

Microchip Technology PIC LITE Macro Assembler V2.00 build -1524193055 
                                                                                               Wed Dec 12 23:14:54 2018

Microchip Technology Omniscient Code Generator v2.00 (Free mode) build 20180527130849
     1  0000                     
      + 0000                     
     2                           ; Version 2.00
     3                           ; Generated 27/05/2018 GMT
     4                           
     5                           ; 
     6                           ; Copyright © 2018, Microchip Technology Inc. and its subsidiaries ("Microchip")
     7                           ; All rights reserved.
     8                           ; 
     9                           ; This software is developed by Microchip Technology Inc. and its subsidiaries ("Microch
                                 ip").
    10                           ; 
    11                           ; Redistribution and use in source and binary forms, with or without modification, are
    12                           ; permitted provided that the following conditions are met:
    13                           ; 
    14                           ;     1. Redistributions of source code must retain the above copyright notice, this lis
                                 t of
    15                           ;        conditions and the following disclaimer.
    16                           ; 
    17                           ;     2. Redistributions in binary form must reproduce the above copyright notice, this 
                                 list
    18                           ;        of conditions and the following disclaimer in the documentation and/or other
    19                           ;        materials provided with the distribution.
    20                           ; 
    21                           ;     3. Microchip's name may not be used to endorse or promote products derived from th
                                 is
    22                           ;        software without specific prior written permission.
    23                           ; 
    24                           ; THIS SOFTWARE IS PROVIDED BY MICROCHIP "AS IS" AND ANY EXPRESS OR IMPLIED WARRANTIES,

    25                           ; INCLUDING, BUT NOT LIMITED TO, THE IMPLIED WARRANTIES OF MERCHANTABILITY AND FITNESS F
                                 OR
    26                           ; PURPOSE ARE DISCLAIMED.  IN NO EVENT SHALL MICROCHIP BE LIABLE FOR ANY DIRECT, INDIREC
                                 T,
    27                           ; INCIDENTAL, SPECIAL, EXEMPLARY, OR CONSEQUENTIAL DAMAGES (INCLUDING BUT NOT LIMITED TO
                                 
    28                           ; PROCUREMENT OF SUBSTITUTE GOODS OR SERVICES; LOSS OF USE, DATA OR PROFITS; OR BUSINESS
                                 
    29                           ; INTERRUPTION) HOWSOEVER CAUSED AND ON ANY THEORY OF LIABILITY, WHETHER IN CONTRACT, ST
                                 RICT
    30                           ; LIABILITY, OR TORT (INCLUDING NEGLIGENCE OR OTHERWISE) ARISING IN ANY WAY OUT OF THE U
                                 SE OF
    31                           ; THIS SOFTWARE, EVEN IF ADVISED OF THE POSSIBILITY OF SUCH DAMAGE.
    32                           ; 
    33                           
    34                           
    35                           ; 
    36                           ; Code-generator required, PIC16F887 Definitions
    37                           ; 
    38  0004                     fsr0 equ 04h
    39  0004                     indf equ 00h
    40  0000                     indf0 equ 00h
    41  0000                     pc equ 02h
    42  0002                     pcl equ 02h
    43  0002                     pclath equ 0Ah
    44  000A                     status equ 03h
    45  0003                     
     2                           opt pagewidth 120
     3  0000                     byte0	macro	val
     4                           	(getbyte(val,0))
     5                           endm
     6  0000                     byte1	macro	val
     7                           	(getbyte(val,1))
     8                           endm
     9  0000                     byte2	macro	val
    10                           	(getbyte(val,2))
    11                           endm
    12  0000                     byte3	macro	val
    13                           	(getbyte(val,3))
    14                           endm
    15  0000                     byte4	macro	val
    16                           	(getbyte(val,4))
    17                           endm
    18  0000                     byte5	macro	val
    19                           	(getbyte(val,5))
    20                           endm
    21  0000                     byte6	macro	val
    22                           	(getbyte(val,6))
    23                           endm
    24  0000                     byte7	macro	val
    25                           	(getbyte(val,7))
    26                           endm
    27  0000                     getword	macro	val,pos
    28                           	(((val) >> (8 * pos)) and 0xffff)
    29                           endm
    30  0000                     word0	macro	val
    31                           	(getword(val,0))
    32                           endm
    33  0000                     word1	macro	val
    34                           	(getword(val,2))
    35                           endm
    36  0000                     word2	macro	val
    37                           	(getword(val,4))
    38                           endm
    39  0000                     word3	macro	val
    40                           	(getword(val,6))
    41                           endm
    42  0000                     gettword	macro	val,pos
    43                           	(((val) >> (8 * pos)) and 0xffffff)
    44                           endm
    45  0000                     tword0	macro	val
    46                           	(gettword(val,0))
    47                           endm
    48  0000                     tword1	macro	val
    49                           	(gettword(val,3))
    50                           endm
    51  0000                     tword2	macro	val
    52                           	(gettword(val,6))
    53                           endm
    54  0000                     getdword	macro	val,pos
    55                           	(((val) >> (8 * pos)) and 0xffffffff)
    56                           endm
    57  0000                     dword0	macro	val
    58                           	(getdword(val,0))
    59                           endm
    60  0000                     dword1	macro	val
    61                           	(getdword(val,4))
    62                           endm
    63  0000                     clrc	macro
    64                           	bcf	3,0
    65                           	endm
    66  0000                     clrz	macro
    67                           	bcf	3,2
    68                           	endm
    69  0000                     setc	macro
    70                           	bsf	3,0
    71                           	endm
    72  0000                     setz	macro
    73                           	bsf	3,2
    74                           	endm
    75  0000                     skipc	macro
    76                           	btfss	3,0
    77                           	endm
    78  0000                     skipz	macro
    79                           	btfss	3,2
    80                           	endm
    81  0000                     skipnc	macro
    82                           	btfsc	3,0
    83                           	endm
    84  0000                     skipnz	macro
    85                           	btfsc	3,2
    86                           	endm
    87  0000                     # 54 "/opt/microchip/xc8/v2.00/pic/include/pic16f887.h"
    88                           INDF equ 00h ;# 
    89  0000                     # 61 "/opt/microchip/xc8/v2.00/pic/include/pic16f887.h"
    90                           TMR0 equ 01h ;# 
    91  0001                     # 68 "/opt/microchip/xc8/v2.00/pic/include/pic16f887.h"
    92                           PCL equ 02h ;# 
    93  0002                     # 75 "/opt/microchip/xc8/v2.00/pic/include/pic16f887.h"
    94                           STATUS equ 03h ;# 
    95  0003                     # 161 "/opt/microchip/xc8/v2.00/pic/include/pic16f887.h"
    96                           FSR equ 04h ;# 
    97  0004                     # 168 "/opt/microchip/xc8/v2.00/pic/include/pic16f887.h"
    98                           PORTA equ 05h ;# 
    99  0005                     # 230 "/opt/microchip/xc8/v2.00/pic/include/pic16f887.h"
   100                           PORTB equ 06h ;# 
   101  0006                     # 292 "/opt/microchip/xc8/v2.00/pic/include/pic16f887.h"
   102                           PORTC equ 07h ;# 
   103  0007                     # 354 "/opt/microchip/xc8/v2.00/pic/include/pic16f887.h"
   104                           PORTD equ 08h ;# 
   105  0008                     # 416 "/opt/microchip/xc8/v2.00/pic/include/pic16f887.h"
   106                           PORTE equ 09h ;# 
   107  0009                     # 454 "/opt/microchip/xc8/v2.00/pic/include/pic16f887.h"
   108                           PCLATH equ 0Ah ;# 
   109  000A                     # 461 "/opt/microchip/xc8/v2.00/pic/include/pic16f887.h"
   110                           INTCON equ 0Bh ;# 
   111  000B                     # 539 "/opt/microchip/xc8/v2.00/pic/include/pic16f887.h"
   112                           PIR1 equ 0Ch ;# 
   113  000C                     # 595 "/opt/microchip/xc8/v2.00/pic/include/pic16f887.h"
   114                           PIR2 equ 0Dh ;# 
   115  000D                     # 652 "/opt/microchip/xc8/v2.00/pic/include/pic16f887.h"
   116                           TMR1 equ 0Eh ;# 
   117  000E                     # 659 "/opt/microchip/xc8/v2.00/pic/include/pic16f887.h"
   118                           TMR1L equ 0Eh ;# 
   119  000E                     # 666 "/opt/microchip/xc8/v2.00/pic/include/pic16f887.h"
   120                           TMR1H equ 0Fh ;# 
   121  000F                     # 673 "/opt/microchip/xc8/v2.00/pic/include/pic16f887.h"
   122                           T1CON equ 010h ;# 
   123  0010                     # 767 "/opt/microchip/xc8/v2.00/pic/include/pic16f887.h"
   124                           TMR2 equ 011h ;# 
   125  0011                     # 774 "/opt/microchip/xc8/v2.00/pic/include/pic16f887.h"
   126                           T2CON equ 012h ;# 
   127  0012                     # 845 "/opt/microchip/xc8/v2.00/pic/include/pic16f887.h"
   128                           SSPBUF equ 013h ;# 
   129  0013                     # 852 "/opt/microchip/xc8/v2.00/pic/include/pic16f887.h"
   130                           SSPCON equ 014h ;# 
   131  0014                     # 922 "/opt/microchip/xc8/v2.00/pic/include/pic16f887.h"
   132                           CCPR1 equ 015h ;# 
   133  0015                     # 929 "/opt/microchip/xc8/v2.00/pic/include/pic16f887.h"
   134                           CCPR1L equ 015h ;# 
   135  0015                     # 936 "/opt/microchip/xc8/v2.00/pic/include/pic16f887.h"
   136                           CCPR1H equ 016h ;# 
   137  0016                     # 943 "/opt/microchip/xc8/v2.00/pic/include/pic16f887.h"
   138                           CCP1CON equ 017h ;# 
   139  0017                     # 1040 "/opt/microchip/xc8/v2.00/pic/include/pic16f887.h"
   140                           RCSTA equ 018h ;# 
   141  0018                     # 1135 "/opt/microchip/xc8/v2.00/pic/include/pic16f887.h"
   142                           TXREG equ 019h ;# 
   143  0019                     # 1142 "/opt/microchip/xc8/v2.00/pic/include/pic16f887.h"
   144                           RCREG equ 01Ah ;# 
   145  001A                     # 1149 "/opt/microchip/xc8/v2.00/pic/include/pic16f887.h"
   146                           CCPR2 equ 01Bh ;# 
   147  001B                     # 1156 "/opt/microchip/xc8/v2.00/pic/include/pic16f887.h"
   148                           CCPR2L equ 01Bh ;# 
   149  001B                     # 1163 "/opt/microchip/xc8/v2.00/pic/include/pic16f887.h"
   150                           CCPR2H equ 01Ch ;# 
   151  001C                     # 1170 "/opt/microchip/xc8/v2.00/pic/include/pic16f887.h"
   152                           CCP2CON equ 01Dh ;# 
   153  001D                     # 1240 "/opt/microchip/xc8/v2.00/pic/include/pic16f887.h"
   154                           ADRESH equ 01Eh ;# 
   155  001E                     # 1247 "/opt/microchip/xc8/v2.00/pic/include/pic16f887.h"
   156                           ADCON0 equ 01Fh ;# 
   157  001F                     # 1348 "/opt/microchip/xc8/v2.00/pic/include/pic16f887.h"
   158                           OPTION_REG equ 081h ;# 
   159  0081                     # 1418 "/opt/microchip/xc8/v2.00/pic/include/pic16f887.h"
   160                           TRISA equ 085h ;# 
   161  0085                     # 1480 "/opt/microchip/xc8/v2.00/pic/include/pic16f887.h"
   162                           TRISB equ 086h ;# 
   163  0086                     # 1542 "/opt/microchip/xc8/v2.00/pic/include/pic16f887.h"
   164                           TRISC equ 087h ;# 
   165  0087                     # 1604 "/opt/microchip/xc8/v2.00/pic/include/pic16f887.h"
   166                           TRISD equ 088h ;# 
   167  0088                     # 1666 "/opt/microchip/xc8/v2.00/pic/include/pic16f887.h"
   168                           TRISE equ 089h ;# 
   169  0089                     # 1704 "/opt/microchip/xc8/v2.00/pic/include/pic16f887.h"
   170                           PIE1 equ 08Ch ;# 
   171  008C                     # 1760 "/opt/microchip/xc8/v2.00/pic/include/pic16f887.h"
   172                           PIE2 equ 08Dh ;# 
   173  008D                     # 1817 "/opt/microchip/xc8/v2.00/pic/include/pic16f887.h"
   174                           PCON equ 08Eh ;# 
   175  008E                     # 1864 "/opt/microchip/xc8/v2.00/pic/include/pic16f887.h"
   176                           OSCCON equ 08Fh ;# 
   177  008F                     # 1929 "/opt/microchip/xc8/v2.00/pic/include/pic16f887.h"
   178                           OSCTUNE equ 090h ;# 
   179  0090                     # 1981 "/opt/microchip/xc8/v2.00/pic/include/pic16f887.h"
   180                           SSPCON2 equ 091h ;# 
   181  0091                     # 2043 "/opt/microchip/xc8/v2.00/pic/include/pic16f887.h"
   182                           PR2 equ 092h ;# 
   183  0092                     # 2050 "/opt/microchip/xc8/v2.00/pic/include/pic16f887.h"
   184                           SSPADD equ 093h ;# 
   185  0093                     # 2057 "/opt/microchip/xc8/v2.00/pic/include/pic16f887.h"
   186                           SSPMSK equ 093h ;# 
   187  0093                     # 2062 "/opt/microchip/xc8/v2.00/pic/include/pic16f887.h"
   188                           MSK equ 093h ;# 
   189  0093                     # 2179 "/opt/microchip/xc8/v2.00/pic/include/pic16f887.h"
   190                           SSPSTAT equ 094h ;# 
   191  0094                     # 2348 "/opt/microchip/xc8/v2.00/pic/include/pic16f887.h"
   192                           WPUB equ 095h ;# 
   193  0095                     # 2418 "/opt/microchip/xc8/v2.00/pic/include/pic16f887.h"
   194                           IOCB equ 096h ;# 
   195  0096                     # 2488 "/opt/microchip/xc8/v2.00/pic/include/pic16f887.h"
   196                           VRCON equ 097h ;# 
   197  0097                     # 2558 "/opt/microchip/xc8/v2.00/pic/include/pic16f887.h"
   198                           TXSTA equ 098h ;# 
   199  0098                     # 2644 "/opt/microchip/xc8/v2.00/pic/include/pic16f887.h"
   200                           SPBRG equ 099h ;# 
   201  0099                     # 2706 "/opt/microchip/xc8/v2.00/pic/include/pic16f887.h"
   202                           SPBRGH equ 09Ah ;# 
   203  009A                     # 2776 "/opt/microchip/xc8/v2.00/pic/include/pic16f887.h"
   204                           PWM1CON equ 09Bh ;# 
   205  009B                     # 2846 "/opt/microchip/xc8/v2.00/pic/include/pic16f887.h"
   206                           ECCPAS equ 09Ch ;# 
   207  009C                     # 2928 "/opt/microchip/xc8/v2.00/pic/include/pic16f887.h"
   208                           PSTRCON equ 09Dh ;# 
   209  009D                     # 2972 "/opt/microchip/xc8/v2.00/pic/include/pic16f887.h"
   210                           ADRESL equ 09Eh ;# 
   211  009E                     # 2979 "/opt/microchip/xc8/v2.00/pic/include/pic16f887.h"
   212                           ADCON1 equ 09Fh ;# 
   213  009F                     # 3013 "/opt/microchip/xc8/v2.00/pic/include/pic16f887.h"
   214                           WDTCON equ 0105h ;# 
   215  0105                     # 3066 "/opt/microchip/xc8/v2.00/pic/include/pic16f887.h"
   216                           CM1CON0 equ 0107h ;# 
   217  0107                     # 3131 "/opt/microchip/xc8/v2.00/pic/include/pic16f887.h"
   218                           CM2CON0 equ 0108h ;# 
   219  0108                     # 3196 "/opt/microchip/xc8/v2.00/pic/include/pic16f887.h"
   220                           CM2CON1 equ 0109h ;# 
   221  0109                     # 3247 "/opt/microchip/xc8/v2.00/pic/include/pic16f887.h"
   222                           EEDATA equ 010Ch ;# 
   223  010C                     # 3252 "/opt/microchip/xc8/v2.00/pic/include/pic16f887.h"
   224                           EEDAT equ 010Ch ;# 
   225  010C                     # 3259 "/opt/microchip/xc8/v2.00/pic/include/pic16f887.h"
   226                           EEADR equ 010Dh ;# 
   227  010D                     # 3266 "/opt/microchip/xc8/v2.00/pic/include/pic16f887.h"
   228                           EEDATH equ 010Eh ;# 
   229  010E                     # 3273 "/opt/microchip/xc8/v2.00/pic/include/pic16f887.h"
   230                           EEADRH equ 010Fh ;# 
   231  010F                     # 3280 "/opt/microchip/xc8/v2.00/pic/include/pic16f887.h"
   232                           SRCON equ 0185h ;# 
   233  0185                     # 3337 "/opt/microchip/xc8/v2.00/pic/include/pic16f887.h"
   234                           BAUDCTL equ 0187h ;# 
   235  0187                     # 3389 "/opt/microchip/xc8/v2.00/pic/include/pic16f887.h"
   236                           ANSEL equ 0188h ;# 
   237  0188                     # 3451 "/opt/microchip/xc8/v2.00/pic/include/pic16f887.h"
   238                           ANSELH equ 0189h ;# 
   239  0189                     # 3501 "/opt/microchip/xc8/v2.00/pic/include/pic16f887.h"
   240                           EECON1 equ 018Ch ;# 
   241  018C                     # 3546 "/opt/microchip/xc8/v2.00/pic/include/pic16f887.h"
   242                           EECON2 equ 018Dh ;# 
   243  018D                     # 54 "/opt/microchip/xc8/v2.00/pic/include/pic16f887.h"
   244                           INDF equ 00h ;# 
   245  0000                     # 61 "/opt/microchip/xc8/v2.00/pic/include/pic16f887.h"
   246                           TMR0 equ 01h ;# 
   247  0001                     # 68 "/opt/microchip/xc8/v2.00/pic/include/pic16f887.h"
   248                           PCL equ 02h ;# 
   249  0002                     # 75 "/opt/microchip/xc8/v2.00/pic/include/pic16f887.h"
   250                           STATUS equ 03h ;# 
   251  0003                     # 161 "/opt/microchip/xc8/v2.00/pic/include/pic16f887.h"
   252                           FSR equ 04h ;# 
   253  0004                     # 168 "/opt/microchip/xc8/v2.00/pic/include/pic16f887.h"
   254                           PORTA equ 05h ;# 
   255  0005                     # 230 "/opt/microchip/xc8/v2.00/pic/include/pic16f887.h"
   256                           PORTB equ 06h ;# 
   257  0006                     # 292 "/opt/microchip/xc8/v2.00/pic/include/pic16f887.h"
   258                           PORTC equ 07h ;# 
   259  0007                     # 354 "/opt/microchip/xc8/v2.00/pic/include/pic16f887.h"
   260                           PORTD equ 08h ;# 
   261  0008                     # 416 "/opt/microchip/xc8/v2.00/pic/include/pic16f887.h"
   262                           PORTE equ 09h ;# 
   263  0009                     # 454 "/opt/microchip/xc8/v2.00/pic/include/pic16f887.h"
   264                           PCLATH equ 0Ah ;# 
   265  000A                     # 461 "/opt/microchip/xc8/v2.00/pic/include/pic16f887.h"
   266                           INTCON equ 0Bh ;# 
   267  000B                     # 539 "/opt/microchip/xc8/v2.00/pic/include/pic16f887.h"
   268                           PIR1 equ 0Ch ;# 
   269  000C                     # 595 "/opt/microchip/xc8/v2.00/pic/include/pic16f887.h"
   270                           PIR2 equ 0Dh ;# 
   271  000D                     # 652 "/opt/microchip/xc8/v2.00/pic/include/pic16f887.h"
   272                           TMR1 equ 0Eh ;# 
   273  000E                     # 659 "/opt/microchip/xc8/v2.00/pic/include/pic16f887.h"
   274                           TMR1L equ 0Eh ;# 
   275  000E                     # 666 "/opt/microchip/xc8/v2.00/pic/include/pic16f887.h"
   276                           TMR1H equ 0Fh ;# 
   277  000F                     # 673 "/opt/microchip/xc8/v2.00/pic/include/pic16f887.h"
   278                           T1CON equ 010h ;# 
   279  0010                     # 767 "/opt/microchip/xc8/v2.00/pic/include/pic16f887.h"
   280                           TMR2 equ 011h ;# 
   281  0011                     # 774 "/opt/microchip/xc8/v2.00/pic/include/pic16f887.h"
   282                           T2CON equ 012h ;# 
   283  0012                     # 845 "/opt/microchip/xc8/v2.00/pic/include/pic16f887.h"
   284                           SSPBUF equ 013h ;# 
   285  0013                     # 852 "/opt/microchip/xc8/v2.00/pic/include/pic16f887.h"
   286                           SSPCON equ 014h ;# 
   287  0014                     # 922 "/opt/microchip/xc8/v2.00/pic/include/pic16f887.h"
   288                           CCPR1 equ 015h ;# 
   289  0015                     # 929 "/opt/microchip/xc8/v2.00/pic/include/pic16f887.h"
   290                           CCPR1L equ 015h ;# 
   291  0015                     # 936 "/opt/microchip/xc8/v2.00/pic/include/pic16f887.h"
   292                           CCPR1H equ 016h ;# 
   293  0016                     # 943 "/opt/microchip/xc8/v2.00/pic/include/pic16f887.h"
   294                           CCP1CON equ 017h ;# 
   295  0017                     # 1040 "/opt/microchip/xc8/v2.00/pic/include/pic16f887.h"
   296                           RCSTA equ 018h ;# 
   297  0018                     # 1135 "/opt/microchip/xc8/v2.00/pic/include/pic16f887.h"
   298                           TXREG equ 019h ;# 
   299  0019                     # 1142 "/opt/microchip/xc8/v2.00/pic/include/pic16f887.h"
   300                           RCREG equ 01Ah ;# 
   301  001A                     # 1149 "/opt/microchip/xc8/v2.00/pic/include/pic16f887.h"
   302                           CCPR2 equ 01Bh ;# 
   303  001B                     # 1156 "/opt/microchip/xc8/v2.00/pic/include/pic16f887.h"
   304                           CCPR2L equ 01Bh ;# 
   305  001B                     # 1163 "/opt/microchip/xc8/v2.00/pic/include/pic16f887.h"
   306                           CCPR2H equ 01Ch ;# 
   307  001C                     # 1170 "/opt/microchip/xc8/v2.00/pic/include/pic16f887.h"
   308                           CCP2CON equ 01Dh ;# 
   309  001D                     # 1240 "/opt/microchip/xc8/v2.00/pic/include/pic16f887.h"
   310                           ADRESH equ 01Eh ;# 
   311  001E                     # 1247 "/opt/microchip/xc8/v2.00/pic/include/pic16f887.h"
   312                           ADCON0 equ 01Fh ;# 
   313  001F                     # 1348 "/opt/microchip/xc8/v2.00/pic/include/pic16f887.h"
   314                           OPTION_REG equ 081h ;# 
   315  0081                     # 1418 "/opt/microchip/xc8/v2.00/pic/include/pic16f887.h"
   316                           TRISA equ 085h ;# 
   317  0085                     # 1480 "/opt/microchip/xc8/v2.00/pic/include/pic16f887.h"
   318                           TRISB equ 086h ;# 
   319  0086                     # 1542 "/opt/microchip/xc8/v2.00/pic/include/pic16f887.h"
   320                           TRISC equ 087h ;# 
   321  0087                     # 1604 "/opt/microchip/xc8/v2.00/pic/include/pic16f887.h"
   322                           TRISD equ 088h ;# 
   323  0088                     # 1666 "/opt/microchip/xc8/v2.00/pic/include/pic16f887.h"
   324                           TRISE equ 089h ;# 
   325  0089                     # 1704 "/opt/microchip/xc8/v2.00/pic/include/pic16f887.h"
   326                           PIE1 equ 08Ch ;# 
   327  008C                     # 1760 "/opt/microchip/xc8/v2.00/pic/include/pic16f887.h"
   328                           PIE2 equ 08Dh ;# 
   329  008D                     # 1817 "/opt/microchip/xc8/v2.00/pic/include/pic16f887.h"
   330                           PCON equ 08Eh ;# 
   331  008E                     # 1864 "/opt/microchip/xc8/v2.00/pic/include/pic16f887.h"
   332                           OSCCON equ 08Fh ;# 
   333  008F                     # 1929 "/opt/microchip/xc8/v2.00/pic/include/pic16f887.h"
   334                           OSCTUNE equ 090h ;# 
   335  0090                     # 1981 "/opt/microchip/xc8/v2.00/pic/include/pic16f887.h"
   336                           SSPCON2 equ 091h ;# 
   337  0091                     # 2043 "/opt/microchip/xc8/v2.00/pic/include/pic16f887.h"
   338                           PR2 equ 092h ;# 
   339  0092                     # 2050 "/opt/microchip/xc8/v2.00/pic/include/pic16f887.h"
   340                           SSPADD equ 093h ;# 
   341  0093                     # 2057 "/opt/microchip/xc8/v2.00/pic/include/pic16f887.h"
   342                           SSPMSK equ 093h ;# 
   343  0093                     # 2062 "/opt/microchip/xc8/v2.00/pic/include/pic16f887.h"
   344                           MSK equ 093h ;# 
   345  0093                     # 2179 "/opt/microchip/xc8/v2.00/pic/include/pic16f887.h"
   346                           SSPSTAT equ 094h ;# 
   347  0094                     # 2348 "/opt/microchip/xc8/v2.00/pic/include/pic16f887.h"
   348                           WPUB equ 095h ;# 
   349  0095                     # 2418 "/opt/microchip/xc8/v2.00/pic/include/pic16f887.h"
   350                           IOCB equ 096h ;# 
   351  0096                     # 2488 "/opt/microchip/xc8/v2.00/pic/include/pic16f887.h"
   352                           VRCON equ 097h ;# 
   353  0097                     # 2558 "/opt/microchip/xc8/v2.00/pic/include/pic16f887.h"
   354                           TXSTA equ 098h ;# 
   355  0098                     # 2644 "/opt/microchip/xc8/v2.00/pic/include/pic16f887.h"
   356                           SPBRG equ 099h ;# 
   357  0099                     # 2706 "/opt/microchip/xc8/v2.00/pic/include/pic16f887.h"
   358                           SPBRGH equ 09Ah ;# 
   359  009A                     # 2776 "/opt/microchip/xc8/v2.00/pic/include/pic16f887.h"
   360                           PWM1CON equ 09Bh ;# 
   361  009B                     # 2846 "/opt/microchip/xc8/v2.00/pic/include/pic16f887.h"
   362                           ECCPAS equ 09Ch ;# 
   363  009C                     # 2928 "/opt/microchip/xc8/v2.00/pic/include/pic16f887.h"
   364                           PSTRCON equ 09Dh ;# 
   365  009D                     # 2972 "/opt/microchip/xc8/v2.00/pic/include/pic16f887.h"
   366                           ADRESL equ 09Eh ;# 
   367  009E                     # 2979 "/opt/microchip/xc8/v2.00/pic/include/pic16f887.h"
   368                           ADCON1 equ 09Fh ;# 
   369  009F                     # 3013 "/opt/microchip/xc8/v2.00/pic/include/pic16f887.h"
   370                           WDTCON equ 0105h ;# 
   371  0105                     # 3066 "/opt/microchip/xc8/v2.00/pic/include/pic16f887.h"
   372                           CM1CON0 equ 0107h ;# 
   373  0107                     # 3131 "/opt/microchip/xc8/v2.00/pic/include/pic16f887.h"
   374                           CM2CON0 equ 0108h ;# 
   375  0108                     # 3196 "/opt/microchip/xc8/v2.00/pic/include/pic16f887.h"
   376                           CM2CON1 equ 0109h ;# 
   377  0109                     # 3247 "/opt/microchip/xc8/v2.00/pic/include/pic16f887.h"
   378                           EEDATA equ 010Ch ;# 
   379  010C                     # 3252 "/opt/microchip/xc8/v2.00/pic/include/pic16f887.h"
   380                           EEDAT equ 010Ch ;# 
   381  010C                     # 3259 "/opt/microchip/xc8/v2.00/pic/include/pic16f887.h"
   382                           EEADR equ 010Dh ;# 
   383  010D                     # 3266 "/opt/microchip/xc8/v2.00/pic/include/pic16f887.h"
   384                           EEDATH equ 010Eh ;# 
   385  010E                     # 3273 "/opt/microchip/xc8/v2.00/pic/include/pic16f887.h"
   386                           EEADRH equ 010Fh ;# 
   387  010F                     # 3280 "/opt/microchip/xc8/v2.00/pic/include/pic16f887.h"
   388                           SRCON equ 0185h ;# 
   389  0185                     # 3337 "/opt/microchip/xc8/v2.00/pic/include/pic16f887.h"
   390                           BAUDCTL equ 0187h ;# 
   391  0187                     # 3389 "/opt/microchip/xc8/v2.00/pic/include/pic16f887.h"
   392                           ANSEL equ 0188h ;# 
   393  0188                     # 3451 "/opt/microchip/xc8/v2.00/pic/include/pic16f887.h"
   394                           ANSELH equ 0189h ;# 
   395  0189                     # 3501 "/opt/microchip/xc8/v2.00/pic/include/pic16f887.h"
   396                           EECON1 equ 018Ch ;# 
   397  018C                     # 3546 "/opt/microchip/xc8/v2.00/pic/include/pic16f887.h"
   398                           EECON2 equ 018Dh ;# 
   399  018D                     	FNROOT	_main
   400                           	global	_PORTD
   401                           _PORTD	set	0x8
   402  0008                     	global	_PORTEbits
   403                           _PORTEbits	set	0x9
   404  0009                     	global	_ADRESH
   405                           _ADRESH	set	0x1E
   406  001E                     	global	_TXREG
   407                           _TXREG	set	0x19
   408  0019                     	global	_PIR1bits
   409                           _PIR1bits	set	0xC
   410  000C                     	global	_ADCON0bits
   411                           _ADCON0bits	set	0x1F
   412  001F                     	global	_RCSTAbits
   413                           _RCSTAbits	set	0x18
   414  0018                     	global	_TRISD
   415                           _TRISD	set	0x88
   416  0088                     	global	_ADCON1bits
   417                           _ADCON1bits	set	0x9F
   418  009F                     	global	_TRISAbits
   419                           _TRISAbits	set	0x85
   420  0085                     	global	_TXSTAbits
   421                           _TXSTAbits	set	0x98
   422  0098                     	global	_SPBRG
   423                           _SPBRG	set	0x99
   424  0099                     ; #config settings
   425                           global __CFG_FOSC$INTRC_CLKOUT
   426                           __CFG_FOSC$INTRC_CLKOUT equ 0x0
   427  0000                     global __CFG_WDTE$OFF
   428                           __CFG_WDTE$OFF equ 0x0
   429  0000                     global __CFG_PWRTE$ON
   430                           __CFG_PWRTE$ON equ 0x0
   431  0000                     global __CFG_IESO$OFF
   432                           __CFG_IESO$OFF equ 0x0
   433  0000                     global __CFG_FCMEN$OFF
   434                           __CFG_FCMEN$OFF equ 0x0
   435  0000                     	file	"/tmp/xcX60gfPD"
   436                           	line	#
   437                           psect cinit,class=CODE,delta=2
   438                           global start_initialization
   439                           start_initialization:
   440  07FC                     
   441                           global __initialization
   442                           __initialization:
   443  07FC                     psect cinit,class=CODE,delta=2,merge=1
   444                           global end_of_initialization,__end_of__initialization
   445                           
   446                           ;End of C runtime variable initialization code
   447                           
   448                           end_of_initialization:
   449  07FC                     __end_of__initialization:
   450  07FC                     clrf status
   451  07FC  0183               ljmp _main	;jump to C main() function
   452  07FD  120A  118A  2FB9   psect	cstackCOMMON,class=COMMON,space=1,noexec
   453                           global __pcstackCOMMON
   454                           __pcstackCOMMON:
   455  0070                     ?_main:	; 1 bytes @ 0x0
   456  0070                     ??_main:	; 1 bytes @ 0x0
   457  0070                     	ds	3
   458  0070                     ;!
   459                           ;!Data Sizes:
   460                           ;!    Strings     0
   461                           ;!    Constant    0
   462                           ;!    Data        0
   463                           ;!    BSS         0
   464                           ;!    Persistent  0
   465                           ;!    Stack       0
   466                           ;!
   467                           ;!Auto Spaces:
   468                           ;!    Space          Size  Autos    Used
   469                           ;!    COMMON           14      3       3
   470                           ;!    BANK0            80      0       0
   471                           ;!    BANK1            80      0       0
   472                           ;!    BANK3            96      0       0
   473                           ;!    BANK2            96      0       0
   474                           
   475                           ;!
   476                           ;!Pointer List with Targets:
   477                           ;!
   478                           ;!    None.
   479                           
   480                           
   481                           ;!
   482                           ;!Critical Paths under _main in COMMON
   483                           ;!
   484                           ;!    None.
   485                           ;!
   486                           ;!Critical Paths under _main in BANK0
   487                           ;!
   488                           ;!    None.
   489                           ;!
   490                           ;!Critical Paths under _main in BANK1
   491                           ;!
   492                           ;!    None.
   493                           ;!
   494                           ;!Critical Paths under _main in BANK3
   495                           ;!
   496                           ;!    None.
   497                           ;!
   498                           ;!Critical Paths under _main in BANK2
   499                           ;!
   500                           ;!    None.
   501                           
   502 ;;
   503 ;;Main: autosize = 0, tempsize = 3, incstack = 0, save=0
   504 ;;
   505                           
   506                           ;!
   507                           ;!Call Graph Tables:
   508                           ;!
   509                           ;! ---------------------------------------------------------------------------------
   510                           ;! (Depth) Function   	        Calls       Base Space   Used Autos Params    Refs
   511                           ;! ---------------------------------------------------------------------------------
   512                           ;! (0) _main                                                 5     5      0       0
   513                           ;!                                              0 COMMON     3     3      0
   514                           ;! ---------------------------------------------------------------------------------
   515                           ;! Estimated maximum stack depth 0
   516                           ;! ---------------------------------------------------------------------------------
   517                           ;!
   518                           ;! Call Graph Graphs:
   519                           ;!
   520                           ;! _main (ROOT)
   521                           ;!
   522                           
   523                           ;! Address spaces:
   524                           
   525                           ;!Name               Size   Autos  Total    Cost      Usage
   526                           ;!BITCOMMON            E      0       0       0        0.0%
   527                           ;!EEDATA             100      0       0       0        0.0%
   528                           ;!NULL                 0      0       0       0        0.0%
   529                           ;!CODE                 0      0       0       0        0.0%
   530                           ;!COMMON               E      3       3       1       21.4%
   531                           ;!BITSFR0              0      0       0       1        0.0%
   532                           ;!SFR0                 0      0       0       1        0.0%
   533                           ;!BITSFR1              0      0       0       2        0.0%
   534                           ;!SFR1                 0      0       0       2        0.0%
   535                           ;!STACK                0      0       0       2        0.0%
   536                           ;!ABS                  0      0       0       3        0.0%
   537                           ;!BITBANK0            50      0       0       4        0.0%
   538                           ;!BITSFR3              0      0       0       4        0.0%
   539                           ;!SFR3                 0      0       0       4        0.0%
   540                           ;!BANK0               50      0       0       5        0.0%
   541                           ;!BITSFR2              0      0       0       5        0.0%
   542                           ;!SFR2                 0      0       0       5        0.0%
   543                           ;!BITBANK1            50      0       0       6        0.0%
   544                           ;!BANK1               50      0       0       7        0.0%
   545                           ;!BITBANK3            60      0       0       8        0.0%
   546                           ;!BANK3               60      0       0       9        0.0%
   547                           ;!BITBANK2            60      0       0      10        0.0%
   548                           ;!BANK2               60      0       0      11        0.0%
   549                           ;!DATA                 0      0       0      12        0.0%
   550                           
   551                           	global	_main
   552                           
   553 ;; *************** function _main *****************
   554 ;; Defined at:
   555 ;;		line 24 in file "adc.c"
   556 ;; Parameters:    Size  Location     Type
   557 ;;		None
   558 ;; Auto vars:     Size  Location     Type
   559 ;;  lsb             1    0        unsigned char 
   560 ;;  msb             1    0        unsigned char 
   561 ;; Return value:  Size  Location     Type
   562 ;;                  1    wreg      void 
   563 ;; Registers used:
   564 ;;		wreg, status,2, status,0
   565 ;; Tracked objects:
   566 ;;		On entry : B00/0
   567 ;;		On exit  : 0/0
   568 ;;		Unchanged: 0/0
   569 ;; Data sizes:     COMMON   BANK0   BANK1   BANK3   BANK2
   570 ;;      Params:         0       0       0       0       0
   571 ;;      Locals:         0       0       0       0       0
   572 ;;      Temps:          3       0       0       0       0
   573 ;;      Totals:         3       0       0       0       0
   574 ;;Total ram usage:        3 bytes
   575 ;; This function calls:
   576 ;;		Nothing
   577 ;; This function is called by:
   578 ;;		Startup code after reset
   579 ;; This function uses a non-reentrant model
   580 ;;
   581                           psect	maintext,global,class=CODE,delta=2,split=1,group=0
   582                           	file	"adc.c"
   583                           	line	24
   584                           global __pmaintext
   585                           __pmaintext:	;psect for function _main
   586  07B9                     psect	maintext
   587                           	file	"adc.c"
   588                           	line	24
   589                           	global	__size_of_main
   590                           	__size_of_main	equ	__end_of_main-_main
   591  0043                     	
   592                           _main:	
   593  07B9                     ;incstack = 0
   594                           	opt	stack 8
   595                           ; Regs used in _main: [wreg+status,2+status,0]
   596                           	line	41
   597                           	
   598                           l630:	
   599  07B9                     ;adc.c: 41:     SPBRG = 25;
   600                           	movlw	low(019h)
   601  07B9  3019               	bsf	status, 5	;RP0=1, select bank1
   602  07BA  1683               	bcf	status, 6	;RP1=0, select bank1
   603  07BB  1303               	movwf	(153)^080h	;volatile
   604  07BC  0099               	line	44
   605                           	
   606                           l632:	
   607  07BD                     ;adc.c: 44:     TXSTAbits.TXEN = 1;
   608                           	bsf	(152)^080h,5	;volatile
   609  07BD  1698               	line	45
   610                           	
   611                           l634:	
   612  07BE                     ;adc.c: 45:     TXSTAbits.BRGH = 1;
   613                           	bsf	(152)^080h,2	;volatile
   614  07BE  1518               	line	46
   615                           	
   616                           l636:	
   617  07BF                     ;adc.c: 46:     RCSTAbits.SPEN = 1;
   618                           	bcf	status, 5	;RP0=0, select bank0
   619  07BF  1283               	bcf	status, 6	;RP1=0, select bank0
   620  07C0  1303               	bsf	(24),7	;volatile
   621  07C1  1798               	line	47
   622                           	
   623                           l638:	
   624  07C2                     ;adc.c: 47:     RCSTAbits.CREN = 1;
   625                           	bsf	(24),4	;volatile
   626  07C2  1618               	line	53
   627                           	
   628                           l640:	
   629  07C3                     ;adc.c: 53:     TRISAbits.TRISA3 = 1;
   630                           	bsf	status, 5	;RP0=1, select bank1
   631  07C3  1683               	bcf	status, 6	;RP1=0, select bank1
   632  07C4  1303               	bsf	(133)^080h,3	;volatile
   633  07C5  1585               	line	59
   634                           	
   635                           l642:	
   636  07C6                     ;adc.c: 59:     ADCON0bits.ADCS = 0b01;
   637                           	bcf	status, 5	;RP0=0, select bank0
   638  07C6  1283               	bcf	status, 6	;RP1=0, select bank0
   639  07C7  1303               	movf	(31),w	;volatile
   640  07C8  081F               	andlw	not (((1<<2)-1)<<6)
   641  07C9  393F               	iorlw	(01h & ((1<<2)-1))<<6
   642  07CA  3840               	movwf	(31)	;volatile
   643  07CB  009F               	line	62
   644                           	
   645                           l644:	
   646  07CC                     ;adc.c: 62:     ADCON0bits.CHS = 0b0011;
   647                           	movf	(31),w	;volatile
   648  07CC  081F               	andlw	not (((1<<4)-1)<<2)
   649  07CD  39C3               	iorlw	(03h & ((1<<4)-1))<<2
   650  07CE  380C               	movwf	(31)	;volatile
   651  07CF  009F               	line	66
   652                           	
   653                           l646:	
   654  07D0                     ;adc.c: 66:     ADCON0bits.ADON = 1;
   655                           	bsf	(31),0	;volatile
   656  07D0  141F               	line	72
   657                           	
   658                           l648:	
   659  07D1                     ;adc.c: 72:     ADCON1bits.ADFM = 0;
   660                           	bsf	status, 5	;RP0=1, select bank1
   661  07D1  1683               	bcf	status, 6	;RP1=0, select bank1
   662  07D2  1303               	bcf	(159)^080h,7	;volatile
   663  07D3  139F               	line	75
   664                           	
   665                           l650:	
   666  07D4                     ;adc.c: 75:     ADCON1bits.VCFG1 = 0;
   667                           	bcf	(159)^080h,5	;volatile
   668  07D4  129F               	line	76
   669                           	
   670                           l652:	
   671  07D5                     ;adc.c: 76:     ADCON1bits.VCFG0 = 0;
   672                           	bcf	(159)^080h,4	;volatile
   673  07D5  121F               	line	78
   674                           ;adc.c: 78:     while (1) {
   675                           	
   676                           l33:	
   677  07D6                     	line	79
   678                           ;adc.c: 79:         _delay((unsigned long)((1000)*(4000000/4000.0)));
   679                           	opt asmopt_push
   680                           opt asmopt_off
   681                           movlw  6
   682  07D6  3006               movwf	((??_main+0)+0+2),f
   683  07D7  00F2               movlw	19
   684  07D8  3013               movwf	((??_main+0)+0+1),f
   685  07D9  00F1               	movlw	173
   686  07DA  30AD               movwf	((??_main+0)+0),f
   687  07DB  00F0               	u87:
   688  07DC                     decfsz	((??_main+0)+0),f
   689  07DC  0BF0               	goto	u87
   690  07DD  2FDC               	decfsz	((??_main+0)+0+1),f
   691  07DE  0BF1               	goto	u87
   692  07DF  2FDC               	decfsz	((??_main+0)+0+2),f
   693  07E0  0BF2               	goto	u87
   694  07E1  2FDC               	nop2
   695  07E2  2FE3               opt asmopt_pop
   696                           
   697                           	line	82
   698                           	
   699                           l654:	
   700  07E3                     ;adc.c: 82:         ADCON0bits.GO = 1;
   701                           	bcf	status, 5	;RP0=0, select bank0
   702  07E3  1283               	bcf	status, 6	;RP1=0, select bank0
   703  07E4  1303               	bsf	(31),1	;volatile
   704  07E5  149F               	line	89
   705                           ;adc.c: 89:         while (PIR1bits.ADIF != 1) {
   706                           	goto	l34
   707  07E6  2FE8               	
   708                           l35:	
   709  07E7                     	line	90
   710                           ;adc.c: 90:             __nop();
   711                           	opt	asmopt_push
   712                           	opt	asmopt_off
   713                           	nop
   714  07E7  0000               	opt	asmopt_pop
   715                           	line	91
   716                           ;adc.c: 91:         }
   717                           	
   718                           l34:	
   719  07E8                     	line	89
   720                           ;adc.c: 89:         while (PIR1bits.ADIF != 1) {
   721                           	bcf	status, 5	;RP0=0, select bank0
   722  07E8  1283               	bcf	status, 6	;RP1=0, select bank0
   723  07E9  1303               	btfss	(12),6	;volatile
   724  07EA  1F0C               	goto	u11
   725  07EB  2FED               	goto	u10
   726  07EC  2FEE               u11:
   727  07ED                     	goto	l35
   728  07ED  2FE7               u10:
   729  07EE                     	goto	l37
   730  07EE  2FF0               	
   731                           l36:	
   732  07EF                     	line	102
   733                           ;adc.c: 102:         while (PIR1bits.TXIF != 1) ;
   734                           	goto	l37
   735  07EF  2FF0               	
   736                           l38:	
   737  07F0                     	
   738                           l37:	
   739  07F0                     	btfss	(12),4	;volatile
   740  07F0  1E0C               	goto	u21
   741  07F1  2FF3               	goto	u20
   742  07F2  2FF4               u21:
   743  07F3                     	goto	l37
   744  07F3  2FF0               u20:
   745  07F4                     	goto	l656
   746  07F4  2FF5               	
   747                           l39:	
   748  07F5                     	line	103
   749                           	
   750                           l656:	
   751  07F5                     ;adc.c: 103:         TXREG = ADRESH;
   752                           	movf	(30),w	;volatile
   753  07F5  081E               	movwf	(25)	;volatile
   754  07F6  0099               	goto	l33
   755  07F7  2FD6               	line	112
   756                           ;adc.c: 112:     }
   757                           	
   758                           l40:	
   759  07F8                     	goto	l33
   760  07F8  2FD6               	
   761                           l41:	
   762  07F9                     	line	113
   763                           	
   764                           l42:	
   765  07F9                     	global	start
   766                           	ljmp	start
   767  07F9  120A  118A  2800   	opt stack 0
   768                           GLOBAL	__end_of_main
   769                           	__end_of_main:
   770  07FC                     	signat	_main,89
   771                           global	___latbits
   772                           ___latbits	equ	2
   773  0002                     	global	btemp
   774                           	btemp set 07Eh
   775  007E                     
   776                           	DABS	1,126,2	;btemp
   777                           	global	wtemp0
   778                           	wtemp0 set btemp+0
   779  007E                     	end


Data Sizes:
    Strings     0
    Constant    0
    Data        0
    BSS         0
    Persistent  0
    Stack       0

Auto Spaces:
    Space          Size  Autos    Used
    COMMON           14      3       3
    BANK0            80      0       0
    BANK1            80      0       0
    BANK3            96      0       0
    BANK2            96      0       0

Pointer List with Targets:

    None.

Critical Paths under _main in COMMON

    None.

Critical Paths under _main in BANK0

    None.

Critical Paths under _main in BANK1

    None.

Critical Paths under _main in BANK3

    None.

Critical Paths under _main in BANK2

    None.

Call Graph Tables:

 ---------------------------------------------------------------------------------
 (Depth) Function   	        Calls       Base Space   Used Autos Params    Refs
 ---------------------------------------------------------------------------------
 (0) _main                                                 5     5      0       0
                                              0 COMMON     3     3      0
 ---------------------------------------------------------------------------------
 Estimated maximum stack depth 0
 ---------------------------------------------------------------------------------

 Call Graph Graphs:

 _main (ROOT)

 Address spaces:
Name               Size   Autos  Total    Cost      Usage
BITCOMMON            E      0       0       0        0.0%
EEDATA             100      0       0       0        0.0%
NULL                 0      0       0       0        0.0%
CODE                 0      0       0       0        0.0%
COMMON               E      3       3       1       21.4%
BITSFR0              0      0       0       1        0.0%
SFR0                 0      0       0       1        0.0%
BITSFR1              0      0       0       2        0.0%
SFR1                 0      0       0       2        0.0%
STACK                0      0       0       2        0.0%
ABS                  0      0       0       3        0.0%
BITBANK0            50      0       0       4        0.0%
BITSFR3              0      0       0       4        0.0%
SFR3                 0      0       0       4        0.0%
BANK0               50      0       0       5        0.0%
BITSFR2              0      0       0       5        0.0%
SFR2                 0      0       0       5        0.0%
BITBANK1            50      0       0       6        0.0%
BANK1               50      0       0       7        0.0%
BITBANK3            60      0       0       8        0.0%
BANK3               60      0       0       9        0.0%
BITBANK2            60      0       0      10        0.0%
BANK2               60      0       0      11        0.0%
DATA                 0      0       0      12        0.0%


Microchip Technology PIC Macro Assembler V2.00 build -1524193055 
Symbol Table                                                                                   Wed Dec 12 23:14:54 2018

                     l40 07F8                       l41 07F9                       l33 07D6  
                     l42 07F9                       l34 07E8                       l35 07E7  
                     l36 07EF                       l37 07F0                       l38 07F0  
                     l39 07F5                       u10 07EE                       u11 07ED  
                     u20 07F4                       u21 07F3                       u87 07DC  
                    l630 07B9                      l640 07C3                      l632 07BD  
                    l650 07D4                      l642 07C6                      l634 07BE  
                    l652 07D5                      l644 07CC                      l636 07BF  
                    l654 07E3                      l646 07D0                      l638 07C2  
                    l656 07F5                      l648 07D1                     _main 07B9  
                   btemp 007E                     start 0000            __CFG_IESO$OFF 0000  
                  ?_main 0070            __CFG_WDTE$OFF 0000                    _SPBRG 0099  
                  _PORTD 0008                    _TRISD 0088                    _TXREG 0019  
          __CFG_PWRTE$ON 0000           __CFG_FCMEN$OFF 0000                    status 0003  
                  wtemp0 007E          __initialization 07FC             __end_of_main 07FC  
                 ??_main 0070                   _ADRESH 001E  __end_of__initialization 07FC  
         __pcstackCOMMON 0070               __pmaintext 07B9     end_of_initialization 07FC  
              _RCSTAbits 0018                _PORTEbits 0009                _TRISAbits 0085  
              _TXSTAbits 0098      start_initialization 07FC                ___latbits 0002  
 __CFG_FOSC$INTRC_CLKOUT 0000                 _PIR1bits 000C               _ADCON0bits 001F  
             _ADCON1bits 009F            __size_of_main 0043  
