

Microchip Technology PIC LITE Macro Assembler V2.00 build -1524193055 
                                                                                               Wed Dec 12 19:59:16 2018

Microchip Technology Omniscient Code Generator v2.00 (Free mode) build 20180527130849
     1  0000                     
      + 0000                     
     2                           ; Version 2.00
     3                           ; Generated 27/05/2018 GMT
     4                           
     5                           ; 
     6                           ; Copyright © 2018, Microchip Technology Inc. and its subsidiaries ("Microchip")
     7                           ; All rights reserved.
     8                           ; 
     9                           ; This software is developed by Microchip Technology Inc. and its subsidiaries ("Microch
                                 ip").
    10                           ; 
    11                           ; Redistribution and use in source and binary forms, with or without modification, are
    12                           ; permitted provided that the following conditions are met:
    13                           ; 
    14                           ;     1. Redistributions of source code must retain the above copyright notice, this lis
                                 t of
    15                           ;        conditions and the following disclaimer.
    16                           ; 
    17                           ;     2. Redistributions in binary form must reproduce the above copyright notice, this 
                                 list
    18                           ;        of conditions and the following disclaimer in the documentation and/or other
    19                           ;        materials provided with the distribution.
    20                           ; 
    21                           ;     3. Microchip's name may not be used to endorse or promote products derived from th
                                 is
    22                           ;        software without specific prior written permission.
    23                           ; 
    24                           ; THIS SOFTWARE IS PROVIDED BY MICROCHIP "AS IS" AND ANY EXPRESS OR IMPLIED WARRANTIES,

    25                           ; INCLUDING, BUT NOT LIMITED TO, THE IMPLIED WARRANTIES OF MERCHANTABILITY AND FITNESS F
                                 OR
    26                           ; PURPOSE ARE DISCLAIMED.  IN NO EVENT SHALL MICROCHIP BE LIABLE FOR ANY DIRECT, INDIREC
                                 T,
    27                           ; INCIDENTAL, SPECIAL, EXEMPLARY, OR CONSEQUENTIAL DAMAGES (INCLUDING BUT NOT LIMITED TO
                                 
    28                           ; PROCUREMENT OF SUBSTITUTE GOODS OR SERVICES; LOSS OF USE, DATA OR PROFITS; OR BUSINESS
                                 
    29                           ; INTERRUPTION) HOWSOEVER CAUSED AND ON ANY THEORY OF LIABILITY, WHETHER IN CONTRACT, ST
                                 RICT
    30                           ; LIABILITY, OR TORT (INCLUDING NEGLIGENCE OR OTHERWISE) ARISING IN ANY WAY OUT OF THE U
                                 SE OF
    31                           ; THIS SOFTWARE, EVEN IF ADVISED OF THE POSSIBILITY OF SUCH DAMAGE.
    32                           ; 
    33                           
    34                           
    35                           ; 
    36                           ; Code-generator required, PIC16F887 Definitions
    37                           ; 
    38  0004                     fsr0 equ 04h
    39  0004                     indf equ 00h
    40  0000                     indf0 equ 00h
    41  0000                     pc equ 02h
    42  0002                     pcl equ 02h
    43  0002                     pclath equ 0Ah
    44  000A                     status equ 03h
    45  0003                     
     2                           opt pagewidth 120
     3  0000                     byte0	macro	val
     4                           	(getbyte(val,0))
     5                           endm
     6  0000                     byte1	macro	val
     7                           	(getbyte(val,1))
     8                           endm
     9  0000                     byte2	macro	val
    10                           	(getbyte(val,2))
    11                           endm
    12  0000                     byte3	macro	val
    13                           	(getbyte(val,3))
    14                           endm
    15  0000                     byte4	macro	val
    16                           	(getbyte(val,4))
    17                           endm
    18  0000                     byte5	macro	val
    19                           	(getbyte(val,5))
    20                           endm
    21  0000                     byte6	macro	val
    22                           	(getbyte(val,6))
    23                           endm
    24  0000                     byte7	macro	val
    25                           	(getbyte(val,7))
    26                           endm
    27  0000                     getword	macro	val,pos
    28                           	(((val) >> (8 * pos)) and 0xffff)
    29                           endm
    30  0000                     word0	macro	val
    31                           	(getword(val,0))
    32                           endm
    33  0000                     word1	macro	val
    34                           	(getword(val,2))
    35                           endm
    36  0000                     word2	macro	val
    37                           	(getword(val,4))
    38                           endm
    39  0000                     word3	macro	val
    40                           	(getword(val,6))
    41                           endm
    42  0000                     gettword	macro	val,pos
    43                           	(((val) >> (8 * pos)) and 0xffffff)
    44                           endm
    45  0000                     tword0	macro	val
    46                           	(gettword(val,0))
    47                           endm
    48  0000                     tword1	macro	val
    49                           	(gettword(val,3))
    50                           endm
    51  0000                     tword2	macro	val
    52                           	(gettword(val,6))
    53                           endm
    54  0000                     getdword	macro	val,pos
    55                           	(((val) >> (8 * pos)) and 0xffffffff)
    56                           endm
    57  0000                     dword0	macro	val
    58                           	(getdword(val,0))
    59                           endm
    60  0000                     dword1	macro	val
    61                           	(getdword(val,4))
    62                           endm
    63  0000                     clrc	macro
    64                           	bcf	3,0
    65                           	endm
    66  0000                     clrz	macro
    67                           	bcf	3,2
    68                           	endm
    69  0000                     setc	macro
    70                           	bsf	3,0
    71                           	endm
    72  0000                     setz	macro
    73                           	bsf	3,2
    74                           	endm
    75  0000                     skipc	macro
    76                           	btfss	3,0
    77                           	endm
    78  0000                     skipz	macro
    79                           	btfss	3,2
    80                           	endm
    81  0000                     skipnc	macro
    82                           	btfsc	3,0
    83                           	endm
    84  0000                     skipnz	macro
    85                           	btfsc	3,2
    86                           	endm
    87  0000                     # 54 "/opt/microchip/xc8/v2.00/pic/include/pic16f887.h"
    88                           INDF equ 00h ;# 
    89  0000                     # 61 "/opt/microchip/xc8/v2.00/pic/include/pic16f887.h"
    90                           TMR0 equ 01h ;# 
    91  0001                     # 68 "/opt/microchip/xc8/v2.00/pic/include/pic16f887.h"
    92                           PCL equ 02h ;# 
    93  0002                     # 75 "/opt/microchip/xc8/v2.00/pic/include/pic16f887.h"
    94                           STATUS equ 03h ;# 
    95  0003                     # 161 "/opt/microchip/xc8/v2.00/pic/include/pic16f887.h"
    96                           FSR equ 04h ;# 
    97  0004                     # 168 "/opt/microchip/xc8/v2.00/pic/include/pic16f887.h"
    98                           PORTA equ 05h ;# 
    99  0005                     # 230 "/opt/microchip/xc8/v2.00/pic/include/pic16f887.h"
   100                           PORTB equ 06h ;# 
   101  0006                     # 292 "/opt/microchip/xc8/v2.00/pic/include/pic16f887.h"
   102                           PORTC equ 07h ;# 
   103  0007                     # 354 "/opt/microchip/xc8/v2.00/pic/include/pic16f887.h"
   104                           PORTD equ 08h ;# 
   105  0008                     # 416 "/opt/microchip/xc8/v2.00/pic/include/pic16f887.h"
   106                           PORTE equ 09h ;# 
   107  0009                     # 454 "/opt/microchip/xc8/v2.00/pic/include/pic16f887.h"
   108                           PCLATH equ 0Ah ;# 
   109  000A                     # 461 "/opt/microchip/xc8/v2.00/pic/include/pic16f887.h"
   110                           INTCON equ 0Bh ;# 
   111  000B                     # 539 "/opt/microchip/xc8/v2.00/pic/include/pic16f887.h"
   112                           PIR1 equ 0Ch ;# 
   113  000C                     # 595 "/opt/microchip/xc8/v2.00/pic/include/pic16f887.h"
   114                           PIR2 equ 0Dh ;# 
   115  000D                     # 652 "/opt/microchip/xc8/v2.00/pic/include/pic16f887.h"
   116                           TMR1 equ 0Eh ;# 
   117  000E                     # 659 "/opt/microchip/xc8/v2.00/pic/include/pic16f887.h"
   118                           TMR1L equ 0Eh ;# 
   119  000E                     # 666 "/opt/microchip/xc8/v2.00/pic/include/pic16f887.h"
   120                           TMR1H equ 0Fh ;# 
   121  000F                     # 673 "/opt/microchip/xc8/v2.00/pic/include/pic16f887.h"
   122                           T1CON equ 010h ;# 
   123  0010                     # 767 "/opt/microchip/xc8/v2.00/pic/include/pic16f887.h"
   124                           TMR2 equ 011h ;# 
   125  0011                     # 774 "/opt/microchip/xc8/v2.00/pic/include/pic16f887.h"
   126                           T2CON equ 012h ;# 
   127  0012                     # 845 "/opt/microchip/xc8/v2.00/pic/include/pic16f887.h"
   128                           SSPBUF equ 013h ;# 
   129  0013                     # 852 "/opt/microchip/xc8/v2.00/pic/include/pic16f887.h"
   130                           SSPCON equ 014h ;# 
   131  0014                     # 922 "/opt/microchip/xc8/v2.00/pic/include/pic16f887.h"
   132                           CCPR1 equ 015h ;# 
   133  0015                     # 929 "/opt/microchip/xc8/v2.00/pic/include/pic16f887.h"
   134                           CCPR1L equ 015h ;# 
   135  0015                     # 936 "/opt/microchip/xc8/v2.00/pic/include/pic16f887.h"
   136                           CCPR1H equ 016h ;# 
   137  0016                     # 943 "/opt/microchip/xc8/v2.00/pic/include/pic16f887.h"
   138                           CCP1CON equ 017h ;# 
   139  0017                     # 1040 "/opt/microchip/xc8/v2.00/pic/include/pic16f887.h"
   140                           RCSTA equ 018h ;# 
   141  0018                     # 1135 "/opt/microchip/xc8/v2.00/pic/include/pic16f887.h"
   142                           TXREG equ 019h ;# 
   143  0019                     # 1142 "/opt/microchip/xc8/v2.00/pic/include/pic16f887.h"
   144                           RCREG equ 01Ah ;# 
   145  001A                     # 1149 "/opt/microchip/xc8/v2.00/pic/include/pic16f887.h"
   146                           CCPR2 equ 01Bh ;# 
   147  001B                     # 1156 "/opt/microchip/xc8/v2.00/pic/include/pic16f887.h"
   148                           CCPR2L equ 01Bh ;# 
   149  001B                     # 1163 "/opt/microchip/xc8/v2.00/pic/include/pic16f887.h"
   150                           CCPR2H equ 01Ch ;# 
   151  001C                     # 1170 "/opt/microchip/xc8/v2.00/pic/include/pic16f887.h"
   152                           CCP2CON equ 01Dh ;# 
   153  001D                     # 1240 "/opt/microchip/xc8/v2.00/pic/include/pic16f887.h"
   154                           ADRESH equ 01Eh ;# 
   155  001E                     # 1247 "/opt/microchip/xc8/v2.00/pic/include/pic16f887.h"
   156                           ADCON0 equ 01Fh ;# 
   157  001F                     # 1348 "/opt/microchip/xc8/v2.00/pic/include/pic16f887.h"
   158                           OPTION_REG equ 081h ;# 
   159  0081                     # 1418 "/opt/microchip/xc8/v2.00/pic/include/pic16f887.h"
   160                           TRISA equ 085h ;# 
   161  0085                     # 1480 "/opt/microchip/xc8/v2.00/pic/include/pic16f887.h"
   162                           TRISB equ 086h ;# 
   163  0086                     # 1542 "/opt/microchip/xc8/v2.00/pic/include/pic16f887.h"
   164                           TRISC equ 087h ;# 
   165  0087                     # 1604 "/opt/microchip/xc8/v2.00/pic/include/pic16f887.h"
   166                           TRISD equ 088h ;# 
   167  0088                     # 1666 "/opt/microchip/xc8/v2.00/pic/include/pic16f887.h"
   168                           TRISE equ 089h ;# 
   169  0089                     # 1704 "/opt/microchip/xc8/v2.00/pic/include/pic16f887.h"
   170                           PIE1 equ 08Ch ;# 
   171  008C                     # 1760 "/opt/microchip/xc8/v2.00/pic/include/pic16f887.h"
   172                           PIE2 equ 08Dh ;# 
   173  008D                     # 1817 "/opt/microchip/xc8/v2.00/pic/include/pic16f887.h"
   174                           PCON equ 08Eh ;# 
   175  008E                     # 1864 "/opt/microchip/xc8/v2.00/pic/include/pic16f887.h"
   176                           OSCCON equ 08Fh ;# 
   177  008F                     # 1929 "/opt/microchip/xc8/v2.00/pic/include/pic16f887.h"
   178                           OSCTUNE equ 090h ;# 
   179  0090                     # 1981 "/opt/microchip/xc8/v2.00/pic/include/pic16f887.h"
   180                           SSPCON2 equ 091h ;# 
   181  0091                     # 2043 "/opt/microchip/xc8/v2.00/pic/include/pic16f887.h"
   182                           PR2 equ 092h ;# 
   183  0092                     # 2050 "/opt/microchip/xc8/v2.00/pic/include/pic16f887.h"
   184                           SSPADD equ 093h ;# 
   185  0093                     # 2057 "/opt/microchip/xc8/v2.00/pic/include/pic16f887.h"
   186                           SSPMSK equ 093h ;# 
   187  0093                     # 2062 "/opt/microchip/xc8/v2.00/pic/include/pic16f887.h"
   188                           MSK equ 093h ;# 
   189  0093                     # 2179 "/opt/microchip/xc8/v2.00/pic/include/pic16f887.h"
   190                           SSPSTAT equ 094h ;# 
   191  0094                     # 2348 "/opt/microchip/xc8/v2.00/pic/include/pic16f887.h"
   192                           WPUB equ 095h ;# 
   193  0095                     # 2418 "/opt/microchip/xc8/v2.00/pic/include/pic16f887.h"
   194                           IOCB equ 096h ;# 
   195  0096                     # 2488 "/opt/microchip/xc8/v2.00/pic/include/pic16f887.h"
   196                           VRCON equ 097h ;# 
   197  0097                     # 2558 "/opt/microchip/xc8/v2.00/pic/include/pic16f887.h"
   198                           TXSTA equ 098h ;# 
   199  0098                     # 2644 "/opt/microchip/xc8/v2.00/pic/include/pic16f887.h"
   200                           SPBRG equ 099h ;# 
   201  0099                     # 2706 "/opt/microchip/xc8/v2.00/pic/include/pic16f887.h"
   202                           SPBRGH equ 09Ah ;# 
   203  009A                     # 2776 "/opt/microchip/xc8/v2.00/pic/include/pic16f887.h"
   204                           PWM1CON equ 09Bh ;# 
   205  009B                     # 2846 "/opt/microchip/xc8/v2.00/pic/include/pic16f887.h"
   206                           ECCPAS equ 09Ch ;# 
   207  009C                     # 2928 "/opt/microchip/xc8/v2.00/pic/include/pic16f887.h"
   208                           PSTRCON equ 09Dh ;# 
   209  009D                     # 2972 "/opt/microchip/xc8/v2.00/pic/include/pic16f887.h"
   210                           ADRESL equ 09Eh ;# 
   211  009E                     # 2979 "/opt/microchip/xc8/v2.00/pic/include/pic16f887.h"
   212                           ADCON1 equ 09Fh ;# 
   213  009F                     # 3013 "/opt/microchip/xc8/v2.00/pic/include/pic16f887.h"
   214                           WDTCON equ 0105h ;# 
   215  0105                     # 3066 "/opt/microchip/xc8/v2.00/pic/include/pic16f887.h"
   216                           CM1CON0 equ 0107h ;# 
   217  0107                     # 3131 "/opt/microchip/xc8/v2.00/pic/include/pic16f887.h"
   218                           CM2CON0 equ 0108h ;# 
   219  0108                     # 3196 "/opt/microchip/xc8/v2.00/pic/include/pic16f887.h"
   220                           CM2CON1 equ 0109h ;# 
   221  0109                     # 3247 "/opt/microchip/xc8/v2.00/pic/include/pic16f887.h"
   222                           EEDATA equ 010Ch ;# 
   223  010C                     # 3252 "/opt/microchip/xc8/v2.00/pic/include/pic16f887.h"
   224                           EEDAT equ 010Ch ;# 
   225  010C                     # 3259 "/opt/microchip/xc8/v2.00/pic/include/pic16f887.h"
   226                           EEADR equ 010Dh ;# 
   227  010D                     # 3266 "/opt/microchip/xc8/v2.00/pic/include/pic16f887.h"
   228                           EEDATH equ 010Eh ;# 
   229  010E                     # 3273 "/opt/microchip/xc8/v2.00/pic/include/pic16f887.h"
   230                           EEADRH equ 010Fh ;# 
   231  010F                     # 3280 "/opt/microchip/xc8/v2.00/pic/include/pic16f887.h"
   232                           SRCON equ 0185h ;# 
   233  0185                     # 3337 "/opt/microchip/xc8/v2.00/pic/include/pic16f887.h"
   234                           BAUDCTL equ 0187h ;# 
   235  0187                     # 3389 "/opt/microchip/xc8/v2.00/pic/include/pic16f887.h"
   236                           ANSEL equ 0188h ;# 
   237  0188                     # 3451 "/opt/microchip/xc8/v2.00/pic/include/pic16f887.h"
   238                           ANSELH equ 0189h ;# 
   239  0189                     # 3501 "/opt/microchip/xc8/v2.00/pic/include/pic16f887.h"
   240                           EECON1 equ 018Ch ;# 
   241  018C                     # 3546 "/opt/microchip/xc8/v2.00/pic/include/pic16f887.h"
   242                           EECON2 equ 018Dh ;# 
   243  018D                     # 54 "/opt/microchip/xc8/v2.00/pic/include/pic16f887.h"
   244                           INDF equ 00h ;# 
   245  0000                     # 61 "/opt/microchip/xc8/v2.00/pic/include/pic16f887.h"
   246                           TMR0 equ 01h ;# 
   247  0001                     # 68 "/opt/microchip/xc8/v2.00/pic/include/pic16f887.h"
   248                           PCL equ 02h ;# 
   249  0002                     # 75 "/opt/microchip/xc8/v2.00/pic/include/pic16f887.h"
   250                           STATUS equ 03h ;# 
   251  0003                     # 161 "/opt/microchip/xc8/v2.00/pic/include/pic16f887.h"
   252                           FSR equ 04h ;# 
   253  0004                     # 168 "/opt/microchip/xc8/v2.00/pic/include/pic16f887.h"
   254                           PORTA equ 05h ;# 
   255  0005                     # 230 "/opt/microchip/xc8/v2.00/pic/include/pic16f887.h"
   256                           PORTB equ 06h ;# 
   257  0006                     # 292 "/opt/microchip/xc8/v2.00/pic/include/pic16f887.h"
   258                           PORTC equ 07h ;# 
   259  0007                     # 354 "/opt/microchip/xc8/v2.00/pic/include/pic16f887.h"
   260                           PORTD equ 08h ;# 
   261  0008                     # 416 "/opt/microchip/xc8/v2.00/pic/include/pic16f887.h"
   262                           PORTE equ 09h ;# 
   263  0009                     # 454 "/opt/microchip/xc8/v2.00/pic/include/pic16f887.h"
   264                           PCLATH equ 0Ah ;# 
   265  000A                     # 461 "/opt/microchip/xc8/v2.00/pic/include/pic16f887.h"
   266                           INTCON equ 0Bh ;# 
   267  000B                     # 539 "/opt/microchip/xc8/v2.00/pic/include/pic16f887.h"
   268                           PIR1 equ 0Ch ;# 
   269  000C                     # 595 "/opt/microchip/xc8/v2.00/pic/include/pic16f887.h"
   270                           PIR2 equ 0Dh ;# 
   271  000D                     # 652 "/opt/microchip/xc8/v2.00/pic/include/pic16f887.h"
   272                           TMR1 equ 0Eh ;# 
   273  000E                     # 659 "/opt/microchip/xc8/v2.00/pic/include/pic16f887.h"
   274                           TMR1L equ 0Eh ;# 
   275  000E                     # 666 "/opt/microchip/xc8/v2.00/pic/include/pic16f887.h"
   276                           TMR1H equ 0Fh ;# 
   277  000F                     # 673 "/opt/microchip/xc8/v2.00/pic/include/pic16f887.h"
   278                           T1CON equ 010h ;# 
   279  0010                     # 767 "/opt/microchip/xc8/v2.00/pic/include/pic16f887.h"
   280                           TMR2 equ 011h ;# 
   281  0011                     # 774 "/opt/microchip/xc8/v2.00/pic/include/pic16f887.h"
   282                           T2CON equ 012h ;# 
   283  0012                     # 845 "/opt/microchip/xc8/v2.00/pic/include/pic16f887.h"
   284                           SSPBUF equ 013h ;# 
   285  0013                     # 852 "/opt/microchip/xc8/v2.00/pic/include/pic16f887.h"
   286                           SSPCON equ 014h ;# 
   287  0014                     # 922 "/opt/microchip/xc8/v2.00/pic/include/pic16f887.h"
   288                           CCPR1 equ 015h ;# 
   289  0015                     # 929 "/opt/microchip/xc8/v2.00/pic/include/pic16f887.h"
   290                           CCPR1L equ 015h ;# 
   291  0015                     # 936 "/opt/microchip/xc8/v2.00/pic/include/pic16f887.h"
   292                           CCPR1H equ 016h ;# 
   293  0016                     # 943 "/opt/microchip/xc8/v2.00/pic/include/pic16f887.h"
   294                           CCP1CON equ 017h ;# 
   295  0017                     # 1040 "/opt/microchip/xc8/v2.00/pic/include/pic16f887.h"
   296                           RCSTA equ 018h ;# 
   297  0018                     # 1135 "/opt/microchip/xc8/v2.00/pic/include/pic16f887.h"
   298                           TXREG equ 019h ;# 
   299  0019                     # 1142 "/opt/microchip/xc8/v2.00/pic/include/pic16f887.h"
   300                           RCREG equ 01Ah ;# 
   301  001A                     # 1149 "/opt/microchip/xc8/v2.00/pic/include/pic16f887.h"
   302                           CCPR2 equ 01Bh ;# 
   303  001B                     # 1156 "/opt/microchip/xc8/v2.00/pic/include/pic16f887.h"
   304                           CCPR2L equ 01Bh ;# 
   305  001B                     # 1163 "/opt/microchip/xc8/v2.00/pic/include/pic16f887.h"
   306                           CCPR2H equ 01Ch ;# 
   307  001C                     # 1170 "/opt/microchip/xc8/v2.00/pic/include/pic16f887.h"
   308                           CCP2CON equ 01Dh ;# 
   309  001D                     # 1240 "/opt/microchip/xc8/v2.00/pic/include/pic16f887.h"
   310                           ADRESH equ 01Eh ;# 
   311  001E                     # 1247 "/opt/microchip/xc8/v2.00/pic/include/pic16f887.h"
   312                           ADCON0 equ 01Fh ;# 
   313  001F                     # 1348 "/opt/microchip/xc8/v2.00/pic/include/pic16f887.h"
   314                           OPTION_REG equ 081h ;# 
   315  0081                     # 1418 "/opt/microchip/xc8/v2.00/pic/include/pic16f887.h"
   316                           TRISA equ 085h ;# 
   317  0085                     # 1480 "/opt/microchip/xc8/v2.00/pic/include/pic16f887.h"
   318                           TRISB equ 086h ;# 
   319  0086                     # 1542 "/opt/microchip/xc8/v2.00/pic/include/pic16f887.h"
   320                           TRISC equ 087h ;# 
   321  0087                     # 1604 "/opt/microchip/xc8/v2.00/pic/include/pic16f887.h"
   322                           TRISD equ 088h ;# 
   323  0088                     # 1666 "/opt/microchip/xc8/v2.00/pic/include/pic16f887.h"
   324                           TRISE equ 089h ;# 
   325  0089                     # 1704 "/opt/microchip/xc8/v2.00/pic/include/pic16f887.h"
   326                           PIE1 equ 08Ch ;# 
   327  008C                     # 1760 "/opt/microchip/xc8/v2.00/pic/include/pic16f887.h"
   328                           PIE2 equ 08Dh ;# 
   329  008D                     # 1817 "/opt/microchip/xc8/v2.00/pic/include/pic16f887.h"
   330                           PCON equ 08Eh ;# 
   331  008E                     # 1864 "/opt/microchip/xc8/v2.00/pic/include/pic16f887.h"
   332                           OSCCON equ 08Fh ;# 
   333  008F                     # 1929 "/opt/microchip/xc8/v2.00/pic/include/pic16f887.h"
   334                           OSCTUNE equ 090h ;# 
   335  0090                     # 1981 "/opt/microchip/xc8/v2.00/pic/include/pic16f887.h"
   336                           SSPCON2 equ 091h ;# 
   337  0091                     # 2043 "/opt/microchip/xc8/v2.00/pic/include/pic16f887.h"
   338                           PR2 equ 092h ;# 
   339  0092                     # 2050 "/opt/microchip/xc8/v2.00/pic/include/pic16f887.h"
   340                           SSPADD equ 093h ;# 
   341  0093                     # 2057 "/opt/microchip/xc8/v2.00/pic/include/pic16f887.h"
   342                           SSPMSK equ 093h ;# 
   343  0093                     # 2062 "/opt/microchip/xc8/v2.00/pic/include/pic16f887.h"
   344                           MSK equ 093h ;# 
   345  0093                     # 2179 "/opt/microchip/xc8/v2.00/pic/include/pic16f887.h"
   346                           SSPSTAT equ 094h ;# 
   347  0094                     # 2348 "/opt/microchip/xc8/v2.00/pic/include/pic16f887.h"
   348                           WPUB equ 095h ;# 
   349  0095                     # 2418 "/opt/microchip/xc8/v2.00/pic/include/pic16f887.h"
   350                           IOCB equ 096h ;# 
   351  0096                     # 2488 "/opt/microchip/xc8/v2.00/pic/include/pic16f887.h"
   352                           VRCON equ 097h ;# 
   353  0097                     # 2558 "/opt/microchip/xc8/v2.00/pic/include/pic16f887.h"
   354                           TXSTA equ 098h ;# 
   355  0098                     # 2644 "/opt/microchip/xc8/v2.00/pic/include/pic16f887.h"
   356                           SPBRG equ 099h ;# 
   357  0099                     # 2706 "/opt/microchip/xc8/v2.00/pic/include/pic16f887.h"
   358                           SPBRGH equ 09Ah ;# 
   359  009A                     # 2776 "/opt/microchip/xc8/v2.00/pic/include/pic16f887.h"
   360                           PWM1CON equ 09Bh ;# 
   361  009B                     # 2846 "/opt/microchip/xc8/v2.00/pic/include/pic16f887.h"
   362                           ECCPAS equ 09Ch ;# 
   363  009C                     # 2928 "/opt/microchip/xc8/v2.00/pic/include/pic16f887.h"
   364                           PSTRCON equ 09Dh ;# 
   365  009D                     # 2972 "/opt/microchip/xc8/v2.00/pic/include/pic16f887.h"
   366                           ADRESL equ 09Eh ;# 
   367  009E                     # 2979 "/opt/microchip/xc8/v2.00/pic/include/pic16f887.h"
   368                           ADCON1 equ 09Fh ;# 
   369  009F                     # 3013 "/opt/microchip/xc8/v2.00/pic/include/pic16f887.h"
   370                           WDTCON equ 0105h ;# 
   371  0105                     # 3066 "/opt/microchip/xc8/v2.00/pic/include/pic16f887.h"
   372                           CM1CON0 equ 0107h ;# 
   373  0107                     # 3131 "/opt/microchip/xc8/v2.00/pic/include/pic16f887.h"
   374                           CM2CON0 equ 0108h ;# 
   375  0108                     # 3196 "/opt/microchip/xc8/v2.00/pic/include/pic16f887.h"
   376                           CM2CON1 equ 0109h ;# 
   377  0109                     # 3247 "/opt/microchip/xc8/v2.00/pic/include/pic16f887.h"
   378                           EEDATA equ 010Ch ;# 
   379  010C                     # 3252 "/opt/microchip/xc8/v2.00/pic/include/pic16f887.h"
   380                           EEDAT equ 010Ch ;# 
   381  010C                     # 3259 "/opt/microchip/xc8/v2.00/pic/include/pic16f887.h"
   382                           EEADR equ 010Dh ;# 
   383  010D                     # 3266 "/opt/microchip/xc8/v2.00/pic/include/pic16f887.h"
   384                           EEDATH equ 010Eh ;# 
   385  010E                     # 3273 "/opt/microchip/xc8/v2.00/pic/include/pic16f887.h"
   386                           EEADRH equ 010Fh ;# 
   387  010F                     # 3280 "/opt/microchip/xc8/v2.00/pic/include/pic16f887.h"
   388                           SRCON equ 0185h ;# 
   389  0185                     # 3337 "/opt/microchip/xc8/v2.00/pic/include/pic16f887.h"
   390                           BAUDCTL equ 0187h ;# 
   391  0187                     # 3389 "/opt/microchip/xc8/v2.00/pic/include/pic16f887.h"
   392                           ANSEL equ 0188h ;# 
   393  0188                     # 3451 "/opt/microchip/xc8/v2.00/pic/include/pic16f887.h"
   394                           ANSELH equ 0189h ;# 
   395  0189                     # 3501 "/opt/microchip/xc8/v2.00/pic/include/pic16f887.h"
   396                           EECON1 equ 018Ch ;# 
   397  018C                     # 3546 "/opt/microchip/xc8/v2.00/pic/include/pic16f887.h"
   398                           EECON2 equ 018Dh ;# 
   399  018D                     	FNCALL	_main,___fladd
   400                           	FNCALL	_main,___flmul
   401                           	FNCALL	_main,___xxtofl
   402                           	FNCALL	_main,_comando
   403                           	FNCALL	_main,_confBusLCD
   404                           	FNCALL	_main,_printf
   405                           	FNCALL	_printf,___awdiv
   406                           	FNCALL	_printf,___fladd
   407                           	FNCALL	_printf,___fleq
   408                           	FNCALL	_printf,___flge
   409                           	FNCALL	_printf,___flmul
   410                           	FNCALL	_printf,___flneg
   411                           	FNCALL	_printf,___flsub
   412                           	FNCALL	_printf,___fltol
   413                           	FNCALL	_printf,___lldiv
   414                           	FNCALL	_printf,___llmod
   415                           	FNCALL	_printf,___wmul
   416                           	FNCALL	_printf,___xxtofl
   417                           	FNCALL	_printf,__div_to_l_
   418                           	FNCALL	_printf,__tdiv_to_l_
   419                           	FNCALL	_printf,_fround
   420                           	FNCALL	_printf,_isdigit
   421                           	FNCALL	_printf,_putch
   422                           	FNCALL	_printf,_scale
   423                           	FNCALL	_scale,___awdiv
   424                           	FNCALL	_scale,___awmod
   425                           	FNCALL	_scale,___flmul
   426                           	FNCALL	_fround,___flmul
   427                           	FNCALL	_fround,___lwdiv
   428                           	FNCALL	_fround,___lwmod
   429                           	FNCALL	___flmul,__Umul8_16
   430                           	FNCALL	___flsub,___fladd
   431                           	FNROOT	_main
   432                           	global	__powers_
   433                           psect	strings,class=STRING,delta=2,noexec
   434                           global __pstrings
   435                           __pstrings:
   436  1800                     stringtab:
   437  1800                     	global    __stringtab
   438                           __stringtab:
   439  1800                     ;	String table - string pointers are 1 byte each
   440                           	btfsc	(btemp+1),7
   441  1800  1BFF               	ljmp	stringcode
   442  1801  280A               	bcf	status,7
   443  1802  1383               	btfsc	(btemp+1),0
   444  1803  187F               	bsf	status,7
   445  1804  1783               	movf	indf,w
   446  1805  0800               	incf fsr
   447  1806  0A84               skipnz
   448  1807  1903               incf btemp+1
   449  1808  0AFF               	return
   450  1809  0008               stringcode:stringdir:
   451  180A                     movlw high(stringdir)
      + 180A                     stringdir:	
   452  180A  3018               movwf pclath
   453  180B  008A               movf fsr,w
   454  180C  0804               incf fsr
   455  180D  0A84               	addwf pc
   456  180E  0782               	global __stringbase
   457                           __stringbase:
   458  180F                     	retlw	0
   459  180F  3400               psect	strings
   460                           	global    __end_of__stringtab
   461                           __end_of__stringtab:
   462  1810                     	file	"/opt/microchip/xc8/v2.00/pic/sources/c90/common/powers.c"
   463                           	line	7
   464                           __powers_:
   465  1810                     	retlw	0x0
   466  1810  3400               	retlw	0x0
   467  1811  3400               	retlw	0x80
   468  1812  3480               	retlw	0x3f
   469  1813  343F               
   470                           	retlw	0x0
   471  1814  3400               	retlw	0x0
   472  1815  3400               	retlw	0x20
   473  1816  3420               	retlw	0x41
   474  1817  3441               
   475                           	retlw	0x0
   476  1818  3400               	retlw	0x0
   477  1819  3400               	retlw	0xc8
   478  181A  34C8               	retlw	0x42
   479  181B  3442               
   480                           	retlw	0x0
   481  181C  3400               	retlw	0x0
   482  181D  3400               	retlw	0x7a
   483  181E  347A               	retlw	0x44
   484  181F  3444               
   485                           	retlw	0x0
   486  1820  3400               	retlw	0x40
   487  1821  3440               	retlw	0x1c
   488  1822  341C               	retlw	0x46
   489  1823  3446               
   490                           	retlw	0x0
   491  1824  3400               	retlw	0x50
   492  1825  3450               	retlw	0xc3
   493  1826  34C3               	retlw	0x47
   494  1827  3447               
   495                           	retlw	0x0
   496  1828  3400               	retlw	0x24
   497  1829  3424               	retlw	0x74
   498  182A  3474               	retlw	0x49
   499  182B  3449               
   500                           	retlw	0x80
   501  182C  3480               	retlw	0x96
   502  182D  3496               	retlw	0x18
   503  182E  3418               	retlw	0x4b
   504  182F  344B               
   505                           	retlw	0x20
   506  1830  3420               	retlw	0xbc
   507  1831  34BC               	retlw	0xbe
   508  1832  34BE               	retlw	0x4c
   509  1833  344C               
   510                           	retlw	0x28
   511  1834  3428               	retlw	0x6b
   512  1835  346B               	retlw	0x6e
   513  1836  346E               	retlw	0x4e
   514  1837  344E               
   515                           	retlw	0xf9
   516  1838  34F9               	retlw	0x2
   517  1839  3402               	retlw	0x15
   518  183A  3415               	retlw	0x50
   519  183B  3450               
   520                           	retlw	0xec
   521  183C  34EC               	retlw	0x78
   522  183D  3478               	retlw	0xad
   523  183E  34AD               	retlw	0x60
   524  183F  3460               
   525                           	retlw	0xca
   526  1840  34CA               	retlw	0xf2
   527  1841  34F2               	retlw	0x49
   528  1842  3449               	retlw	0x71
   529  1843  3471               
   530                           	global __end_of__powers_
   531                           __end_of__powers_:
   532  1844                     	global	__npowers_
   533                           psect	strings
   534                           	file	"/opt/microchip/xc8/v2.00/pic/sources/c90/common/powers.c"
   535                           	line	39
   536                           __npowers_:
   537  1844                     	retlw	0x0
   538  1844  3400               	retlw	0x0
   539  1845  3400               	retlw	0x80
   540  1846  3480               	retlw	0x3f
   541  1847  343F               
   542                           	retlw	0xcd
   543  1848  34CD               	retlw	0xcc
   544  1849  34CC               	retlw	0xcc
   545  184A  34CC               	retlw	0x3d
   546  184B  343D               
   547                           	retlw	0xa
   548  184C  340A               	retlw	0xd7
   549  184D  34D7               	retlw	0x23
   550  184E  3423               	retlw	0x3c
   551  184F  343C               
   552                           	retlw	0x6f
   553  1850  346F               	retlw	0x12
   554  1851  3412               	retlw	0x83
   555  1852  3483               	retlw	0x3a
   556  1853  343A               
   557                           	retlw	0x17
   558  1854  3417               	retlw	0xb7
   559  1855  34B7               	retlw	0xd1
   560  1856  34D1               	retlw	0x38
   561  1857  3438               
   562                           	retlw	0xac
   563  1858  34AC               	retlw	0xc5
   564  1859  34C5               	retlw	0x27
   565  185A  3427               	retlw	0x37
   566  185B  3437               
   567                           	retlw	0xbd
   568  185C  34BD               	retlw	0x37
   569  185D  3437               	retlw	0x86
   570  185E  3486               	retlw	0x35
   571  185F  3435               
   572                           	retlw	0x95
   573  1860  3495               	retlw	0xbf
   574  1861  34BF               	retlw	0xd6
   575  1862  34D6               	retlw	0x33
   576  1863  3433               
   577                           	retlw	0x77
   578  1864  3477               	retlw	0xcc
   579  1865  34CC               	retlw	0x2b
   580  1866  342B               	retlw	0x32
   581  1867  3432               
   582                           	retlw	0x5f
   583  1868  345F               	retlw	0x70
   584  1869  3470               	retlw	0x89
   585  186A  3489               	retlw	0x30
   586  186B  3430               
   587                           	retlw	0xff
   588  186C  34FF               	retlw	0xe6
   589  186D  34E6               	retlw	0xdb
   590  186E  34DB               	retlw	0x2e
   591  186F  342E               
   592                           	retlw	0x8
   593  1870  3408               	retlw	0xe5
   594  1871  34E5               	retlw	0x3c
   595  1872  343C               	retlw	0x1e
   596  1873  341E               
   597                           	retlw	0x60
   598  1874  3460               	retlw	0x42
   599  1875  3442               	retlw	0xa2
   600  1876  34A2               	retlw	0xd
   601  1877  340D               
   602                           	global __end_of__npowers_
   603                           __end_of__npowers_:
   604  1878                     	global	_dpowers
   605                           psect	strings
   606                           	file	"/opt/microchip/xc8/v2.00/pic/sources/c90/common/doprnt.c"
   607                           	line	358
   608                           _dpowers:
   609  1878                     	retlw	01h
   610  1878  3401               	retlw	0
   611  1879  3400               	retlw	0
   612  187A  3400               	retlw	0
   613  187B  3400               
   614                           	retlw	0Ah
   615  187C  340A               	retlw	0
   616  187D  3400               	retlw	0
   617  187E  3400               	retlw	0
   618  187F  3400               
   619                           	retlw	064h
   620  1880  3464               	retlw	0
   621  1881  3400               	retlw	0
   622  1882  3400               	retlw	0
   623  1883  3400               
   624                           	retlw	0E8h
   625  1884  34E8               	retlw	03h
   626  1885  3403               	retlw	0
   627  1886  3400               	retlw	0
   628  1887  3400               
   629                           	retlw	010h
   630  1888  3410               	retlw	027h
   631  1889  3427               	retlw	0
   632  188A  3400               	retlw	0
   633  188B  3400               
   634                           	retlw	0A0h
   635  188C  34A0               	retlw	086h
   636  188D  3486               	retlw	01h
   637  188E  3401               	retlw	0
   638  188F  3400               
   639                           	retlw	040h
   640  1890  3440               	retlw	042h
   641  1891  3442               	retlw	0Fh
   642  1892  340F               	retlw	0
   643  1893  3400               
   644                           	retlw	080h
   645  1894  3480               	retlw	096h
   646  1895  3496               	retlw	098h
   647  1896  3498               	retlw	0
   648  1897  3400               
   649                           	retlw	0
   650  1898  3400               	retlw	0E1h
   651  1899  34E1               	retlw	0F5h
   652  189A  34F5               	retlw	05h
   653  189B  3405               
   654                           	retlw	0
   655  189C  3400               	retlw	0CAh
   656  189D  34CA               	retlw	09Ah
   657  189E  349A               	retlw	03Bh
   658  189F  343B               
   659                           	global __end_of_dpowers
   660                           __end_of_dpowers:
   661  18A0                     	global	__powers_
   662                           	global	__npowers_
   663                           	global	_dpowers
   664                           	global	_PORTD
   665                           _PORTD	set	0x8
   666  0008                     	global	_PORTEbits
   667                           _PORTEbits	set	0x9
   668  0009                     	global	_ADRESH
   669                           _ADRESH	set	0x1E
   670  001E                     	global	_ADCON0bits
   671                           _ADCON0bits	set	0x1F
   672  001F                     	global	_TRISD
   673                           _TRISD	set	0x88
   674  0088                     	global	_ADRESL
   675                           _ADRESL	set	0x9E
   676  009E                     	global	_ADCON1bits
   677                           _ADCON1bits	set	0x9F
   678  009F                     	global	_TRISAbits
   679                           _TRISAbits	set	0x85
   680  0085                     	global	_TRISE
   681                           _TRISE	set	0x89
   682  0089                     	global	_ANSEL
   683                           _ANSEL	set	0x188
   684  0188                     	
   685                           STR_2:	
   686  18A0                     	retlw	84	;'T'
   687  18A0  3454               	retlw	101	;'e'
   688  18A1  3465               	retlw	109	;'m'
   689  18A2  346D               	retlw	112	;'p'
   690  18A3  3470               	retlw	101	;'e'
   691  18A4  3465               	retlw	114	;'r'
   692  18A5  3472               	retlw	97	;'a'
   693  18A6  3461               	retlw	116	;'t'
   694  18A7  3474               	retlw	117	;'u'
   695  18A8  3475               	retlw	114	;'r'
   696  18A9  3472               	retlw	97	;'a'
   697  18AA  3461               	retlw	58	;':'
   698  18AB  343A               	retlw	0
   699  18AC  3400               psect	strings
   700                           	
   701                           STR_5:	
   702  18AD                     	retlw	40	;'('
   703  18AD  3428               	retlw	110	;'n'
   704  18AE  346E               	retlw	117	;'u'
   705  18AF  3475               	retlw	108	;'l'
   706  18B0  346C               	retlw	108	;'l'
   707  18B1  346C               	retlw	41	;')'
   708  18B2  3429               	retlw	0
   709  18B3  3400               psect	strings
   710                           	
   711                           STR_3:	
   712  18B4                     	retlw	37	;'%'
   713  18B4  3425               	retlw	51	;'3'
   714  18B5  3433               	retlw	46	;'.'
   715  18B6  342E               	retlw	49	;'1'
   716  18B7  3431               	retlw	102	;'f'
   717  18B8  3466               	retlw	0
   718  18B9  3400               psect	strings
   719                           	
   720                           STR_1:	
   721  18BA                     	retlw	37	;'%'
   722  18BA  3425               	retlw	115	;'s'
   723  18BB  3473               	retlw	0
   724  18BC  3400               psect	strings
   725                           STR_4	equ	STR_3+0
   726  18B4                     ; #config settings
   727                           global __CFG_FOSC$INTRC_CLKOUT
   728                           __CFG_FOSC$INTRC_CLKOUT equ 0x0
   729  0000                     global __CFG_WDTE$OFF
   730                           __CFG_WDTE$OFF equ 0x0
   731  0000                     global __CFG_PWRTE$ON
   732                           __CFG_PWRTE$ON equ 0x0
   733  0000                     global __CFG_IESO$OFF
   734                           __CFG_IESO$OFF equ 0x0
   735  0000                     global __CFG_FCMEN$OFF
   736                           __CFG_FCMEN$OFF equ 0x0
   737  0000                     	file	"/tmp/xcXuocefq"
   738                           	line	#
   739                           psect cinit,class=CODE,delta=2
   740                           global start_initialization
   741                           start_initialization:
   742  07FC                     
   743                           global __initialization
   744                           __initialization:
   745  07FC                     psect cinit,class=CODE,delta=2,merge=1
   746                           global end_of_initialization,__end_of__initialization
   747                           
   748                           ;End of C runtime variable initialization code
   749                           
   750                           end_of_initialization:
   751  07FC                     __end_of__initialization:
   752  07FC                     clrf status
   753  07FC  0183               ljmp _main	;jump to C main() function
   754  07FD  160A  118A  2983   psect	cstackBANK1,class=BANK1,space=1,noexec
   755                           global __pcstackBANK1
   756                           __pcstackBANK1:
   757  00A0                     	global	?___flsub
   758                           ?___flsub:	; 4 bytes @ 0x0
   759  00A0                     	global	___flsub@a
   760                           ___flsub@a:	; 4 bytes @ 0x0
   761  00A0                     	ds	4
   762  00A0                     	global	___flsub@b
   763                           ___flsub@b:	; 4 bytes @ 0x4
   764  00A4                     	ds	4
   765  00A4                     ??_printf:	; 1 bytes @ 0x8
   766  00A8                     	ds	5
   767  00A8                     	global	_printf$879
   768                           _printf$879:	; 4 bytes @ 0xD
   769  00AD                     	ds	4
   770  00AD                     	global	printf@ap
   771                           printf@ap:	; 1 bytes @ 0x11
   772  00B1                     	ds	1
   773  00B1                     	global	printf@cp
   774                           printf@cp:	; 2 bytes @ 0x12
   775  00B2                     	ds	2
   776  00B2                     	global	printf@len
   777                           printf@len:	; 2 bytes @ 0x14
   778  00B4                     	ds	2
   779  00B4                     	global	printf@val
   780                           printf@val:	; 4 bytes @ 0x16
   781  00B6                     	ds	4
   782  00B6                     	global	printf@flag
   783                           printf@flag:	; 2 bytes @ 0x1A
   784  00BA                     	ds	2
   785  00BA                     	global	printf@f
   786                           printf@f:	; 1 bytes @ 0x1C
   787  00BC                     	ds	1
   788  00BC                     	global	printf@tmpval
   789                           printf@tmpval:	; 4 bytes @ 0x1D
   790  00BD                     	ds	4
   791  00BD                     	global	printf@eexp
   792                           printf@eexp:	; 2 bytes @ 0x21
   793  00C1                     	ds	2
   794  00C1                     	global	printf@width
   795                           printf@width:	; 2 bytes @ 0x23
   796  00C3                     	ds	2
   797  00C3                     	global	printf@fval
   798                           printf@fval:	; 4 bytes @ 0x25
   799  00C5                     	ds	4
   800  00C5                     	global	printf@prec
   801                           printf@prec:	; 2 bytes @ 0x29
   802  00C9                     	ds	2
   803  00C9                     	global	printf@c
   804                           printf@c:	; 1 bytes @ 0x2B
   805  00CB                     	ds	1
   806  00CB                     ??_main:	; 1 bytes @ 0x2C
   807  00CC                     	ds	4
   808  00CC                     	global	main@temp
   809                           main@temp:	; 4 bytes @ 0x30
   810  00D0                     	ds	4
   811  00D0                     psect	cstackCOMMON,class=COMMON,space=1,noexec
   812                           global __pcstackCOMMON
   813                           __pcstackCOMMON:
   814  0070                     ?_isdigit:	; 1 bit 
   815  0070                     ?___fleq:	; 1 bit 
   816  0070                     ?___flge:	; 1 bit 
   817  0070                     ?_confBusLCD:	; 1 bytes @ 0x0
   818  0070                     ??_confBusLCD:	; 1 bytes @ 0x0
   819  0070                     ?_comando:	; 1 bytes @ 0x0
   820  0070                     ?_putch:	; 1 bytes @ 0x0
   821  0070                     ??_putch:	; 1 bytes @ 0x0
   822  0070                     ??_isdigit:	; 1 bytes @ 0x0
   823  0070                     ?_main:	; 1 bytes @ 0x0
   824  0070                     	global	?__Umul8_16
   825                           ?__Umul8_16:	; 2 bytes @ 0x0
   826  0070                     	global	?___wmul
   827                           ?___wmul:	; 2 bytes @ 0x0
   828  0070                     	global	?___awmod
   829                           ?___awmod:	; 2 bytes @ 0x0
   830  0070                     	global	?___lwmod
   831                           ?___lwmod:	; 2 bytes @ 0x0
   832  0070                     	global	?__tdiv_to_l_
   833                           ?__tdiv_to_l_:	; 4 bytes @ 0x0
   834  0070                     	global	?__div_to_l_
   835                           ?__div_to_l_:	; 4 bytes @ 0x0
   836  0070                     	global	?___lldiv
   837                           ?___lldiv:	; 4 bytes @ 0x0
   838  0070                     	global	?___flneg
   839                           ?___flneg:	; 4 bytes @ 0x0
   840  0070                     	global	?___llmod
   841                           ?___llmod:	; 4 bytes @ 0x0
   842  0070                     	global	?___xxtofl
   843                           ?___xxtofl:	; 4 bytes @ 0x0
   844  0070                     	global	_isdigit$703
   845                           _isdigit$703:	; 1 bytes @ 0x0
   846  0070                     putch@c:	; 1 bytes @ 0x0
   847  0070                     	global	__Umul8_16@multiplicand
   848                           __Umul8_16@multiplicand:	; 1 bytes @ 0x0
   849  0070                     	global	comando@com
   850                           comando@com:	; 2 bytes @ 0x0
   851  0070                     	global	___wmul@multiplier
   852                           ___wmul@multiplier:	; 2 bytes @ 0x0
   853  0070                     	global	___awmod@divisor
   854                           ___awmod@divisor:	; 2 bytes @ 0x0
   855  0070                     	global	___lwmod@divisor
   856                           ___lwmod@divisor:	; 2 bytes @ 0x0
   857  0070                     	global	___lldiv@divisor
   858                           ___lldiv@divisor:	; 4 bytes @ 0x0
   859  0070                     	global	__div_to_l_@f1
   860                           __div_to_l_@f1:	; 4 bytes @ 0x0
   861  0070                     	global	___fleq@ff1
   862                           ___fleq@ff1:	; 4 bytes @ 0x0
   863  0070                     	global	___flge@ff1
   864                           ___flge@ff1:	; 4 bytes @ 0x0
   865  0070                     	global	___flneg@f1
   866                           ___flneg@f1:	; 4 bytes @ 0x0
   867  0070                     	global	__tdiv_to_l_@f1
   868                           __tdiv_to_l_@f1:	; 4 bytes @ 0x0
   869  0070                     	global	___llmod@divisor
   870                           ___llmod@divisor:	; 4 bytes @ 0x0
   871  0070                     	global	___xxtofl@val
   872                           ___xxtofl@val:	; 4 bytes @ 0x0
   873  0070                     	ds	1
   874  0070                     	global	isdigit@c
   875                           isdigit@c:	; 1 bytes @ 0x1
   876  0071                     	ds	1
   877  0071                     ??_comando:	; 1 bytes @ 0x2
   878  0072                     ??__Umul8_16:	; 1 bytes @ 0x2
   879  0072                     	global	confBusLCD@estado
   880                           confBusLCD@estado:	; 2 bytes @ 0x2
   881  0072                     	global	___wmul@multiplicand
   882                           ___wmul@multiplicand:	; 2 bytes @ 0x2
   883  0072                     	global	___awmod@dividend
   884                           ___awmod@dividend:	; 2 bytes @ 0x2
   885  0072                     	global	___lwmod@dividend
   886                           ___lwmod@dividend:	; 2 bytes @ 0x2
   887  0072                     	ds	2
   888  0072                     ??___wmul:	; 1 bytes @ 0x4
   889  0074                     ??___awmod:	; 1 bytes @ 0x4
   890  0074                     ??___flneg:	; 1 bytes @ 0x4
   891  0074                     ??___lwmod:	; 1 bytes @ 0x4
   892  0074                     ??___xxtofl:	; 1 bytes @ 0x4
   893  0074                     	global	confBusLCD@t
   894                           confBusLCD@t:	; 2 bytes @ 0x4
   895  0074                     	global	comando@estado
   896                           comando@estado:	; 2 bytes @ 0x4
   897  0074                     	global	___wmul@product
   898                           ___wmul@product:	; 2 bytes @ 0x4
   899  0074                     	global	__Umul8_16@product
   900                           __Umul8_16@product:	; 2 bytes @ 0x4
   901  0074                     	global	___lldiv@dividend
   902                           ___lldiv@dividend:	; 4 bytes @ 0x4
   903  0074                     	global	__div_to_l_@f2
   904                           __div_to_l_@f2:	; 4 bytes @ 0x4
   905  0074                     	global	___fleq@ff2
   906                           ___fleq@ff2:	; 4 bytes @ 0x4
   907  0074                     	global	___flge@ff2
   908                           ___flge@ff2:	; 4 bytes @ 0x4
   909  0074                     	global	__tdiv_to_l_@f2
   910                           __tdiv_to_l_@f2:	; 4 bytes @ 0x4
   911  0074                     	global	___llmod@dividend
   912                           ___llmod@dividend:	; 4 bytes @ 0x4
   913  0074                     	ds	1
   914  0074                     	global	___awmod@counter
   915                           ___awmod@counter:	; 1 bytes @ 0x5
   916  0075                     	global	___lwmod@counter
   917                           ___lwmod@counter:	; 1 bytes @ 0x5
   918  0075                     	ds	1
   919  0075                     	global	?___lwdiv
   920                           ?___lwdiv:	; 2 bytes @ 0x6
   921  0076                     	global	___awmod@sign
   922                           ___awmod@sign:	; 1 bytes @ 0x6
   923  0076                     	global	comando@t
   924                           comando@t:	; 2 bytes @ 0x6
   925  0076                     	global	___lwdiv@divisor
   926                           ___lwdiv@divisor:	; 2 bytes @ 0x6
   927  0076                     	global	__Umul8_16@word_mpld
   928                           __Umul8_16@word_mpld:	; 2 bytes @ 0x6
   929  0076                     	ds	1
   930  0076                     	global	?___awdiv
   931                           ?___awdiv:	; 2 bytes @ 0x7
   932  0077                     	global	___awdiv@divisor
   933                           ___awdiv@divisor:	; 2 bytes @ 0x7
   934  0077                     	ds	1
   935  0077                     ??__tdiv_to_l_:	; 1 bytes @ 0x8
   936  0078                     ??__div_to_l_:	; 1 bytes @ 0x8
   937  0078                     ??___lldiv:	; 1 bytes @ 0x8
   938  0078                     ??___fleq:	; 1 bytes @ 0x8
   939  0078                     ??___llmod:	; 1 bytes @ 0x8
   940  0078                     	global	___xxtofl@sign
   941                           ___xxtofl@sign:	; 1 bytes @ 0x8
   942  0078                     	global	__Umul8_16@multiplier
   943                           __Umul8_16@multiplier:	; 1 bytes @ 0x8
   944  0078                     	global	___lwdiv@dividend
   945                           ___lwdiv@dividend:	; 2 bytes @ 0x8
   946  0078                     	ds	1
   947  0078                     	global	___llmod@counter
   948                           ___llmod@counter:	; 1 bytes @ 0x9
   949  0079                     	global	___xxtofl@exp
   950                           ___xxtofl@exp:	; 1 bytes @ 0x9
   951  0079                     	global	___awdiv@dividend
   952                           ___awdiv@dividend:	; 2 bytes @ 0x9
   953  0079                     	global	___lldiv@quotient
   954                           ___lldiv@quotient:	; 4 bytes @ 0x9
   955  0079                     	ds	1
   956  0079                     ??___lwdiv:	; 1 bytes @ 0xA
   957  007A                     	global	___xxtofl@arg
   958                           ___xxtofl@arg:	; 4 bytes @ 0xA
   959  007A                     	ds	1
   960  007A                     ??___awdiv:	; 1 bytes @ 0xB
   961  007B                     	global	___lwdiv@quotient
   962                           ___lwdiv@quotient:	; 2 bytes @ 0xB
   963  007B                     	ds	2
   964  007B                     	global	___lldiv@counter
   965                           ___lldiv@counter:	; 1 bytes @ 0xD
   966  007D                     	global	___lwdiv@counter
   967                           ___lwdiv@counter:	; 1 bytes @ 0xD
   968  007D                     	ds	1
   969  007D                     ??___flsub:	; 1 bytes @ 0xE
   970  007E                     psect	cstackBANK0,class=BANK0,space=1,noexec
   971                           global __pcstackBANK0
   972                           __pcstackBANK0:
   973  0020                     ??___flge:	; 1 bytes @ 0x0
   974  0020                     	global	___awdiv@counter
   975                           ___awdiv@counter:	; 1 bytes @ 0x0
   976  0020                     	global	__div_to_l_@quot
   977                           __div_to_l_@quot:	; 4 bytes @ 0x0
   978  0020                     	global	__tdiv_to_l_@quot
   979                           __tdiv_to_l_@quot:	; 4 bytes @ 0x0
   980  0020                     	ds	1
   981  0020                     	global	___awdiv@sign
   982                           ___awdiv@sign:	; 1 bytes @ 0x1
   983  0021                     	ds	1
   984  0021                     	global	___awdiv@quotient
   985                           ___awdiv@quotient:	; 2 bytes @ 0x2
   986  0022                     	ds	2
   987  0022                     	global	?___flmul
   988                           ?___flmul:	; 4 bytes @ 0x4
   989  0024                     	global	__div_to_l_@cntr
   990                           __div_to_l_@cntr:	; 1 bytes @ 0x4
   991  0024                     	global	__tdiv_to_l_@cntr
   992                           __tdiv_to_l_@cntr:	; 1 bytes @ 0x4
   993  0024                     	global	___flmul@b
   994                           ___flmul@b:	; 4 bytes @ 0x4
   995  0024                     	ds	1
   996  0024                     	global	__div_to_l_@exp1
   997                           __div_to_l_@exp1:	; 1 bytes @ 0x5
   998  0025                     	global	__tdiv_to_l_@exp1
   999                           __tdiv_to_l_@exp1:	; 1 bytes @ 0x5
  1000  0025                     	ds	3
  1001  0025                     	global	___flmul@a
  1002                           ___flmul@a:	; 4 bytes @ 0x8
  1003  0028                     	ds	4
  1004  0028                     ??___flmul:	; 1 bytes @ 0xC
  1005  002C                     	ds	5
  1006  002C                     	global	___flmul@sign
  1007                           ___flmul@sign:	; 1 bytes @ 0x11
  1008  0031                     	ds	1
  1009  0031                     	global	___flmul@grs
  1010                           ___flmul@grs:	; 4 bytes @ 0x12
  1011  0032                     	ds	4
  1012  0032                     	global	___flmul@aexp
  1013                           ___flmul@aexp:	; 1 bytes @ 0x16
  1014  0036                     	ds	1
  1015  0036                     	global	___flmul@bexp
  1016                           ___flmul@bexp:	; 1 bytes @ 0x17
  1017  0037                     	ds	1
  1018  0037                     	global	___flmul@prod
  1019                           ___flmul@prod:	; 4 bytes @ 0x18
  1020  0038                     	ds	4
  1021  0038                     	global	___flmul@temp
  1022                           ___flmul@temp:	; 2 bytes @ 0x1C
  1023  003C                     	ds	2
  1024  003C                     	global	?_fround
  1025                           ?_fround:	; 4 bytes @ 0x1E
  1026  003E                     	global	?_scale
  1027                           ?_scale:	; 4 bytes @ 0x1E
  1028  003E                     	ds	4
  1029  003E                     ??_fround:	; 1 bytes @ 0x22
  1030  0042                     ??_scale:	; 1 bytes @ 0x22
  1031  0042                     	ds	7
  1032  0042                     	global	_fround$877
  1033                           _fround$877:	; 4 bytes @ 0x29
  1034  0049                     	ds	3
  1035  0049                     	global	_scale$878
  1036                           _scale$878:	; 4 bytes @ 0x2C
  1037  004C                     	ds	1
  1038  004C                     	global	_fround$876
  1039                           _fround$876:	; 4 bytes @ 0x2D
  1040  004D                     	ds	3
  1041  004D                     	global	scale@scl
  1042                           scale@scl:	; 1 bytes @ 0x30
  1043  0050                     	ds	1
  1044  0050                     	global	?___fltol
  1045                           ?___fltol:	; 4 bytes @ 0x31
  1046  0051                     	global	fround@prec
  1047                           fround@prec:	; 1 bytes @ 0x31
  1048  0051                     	global	___fltol@f1
  1049                           ___fltol@f1:	; 4 bytes @ 0x31
  1050  0051                     	ds	1
  1051  0051                     	global	?___fladd
  1052                           ?___fladd:	; 4 bytes @ 0x32
  1053  0052                     	global	___fladd@b
  1054                           ___fladd@b:	; 4 bytes @ 0x32
  1055  0052                     	ds	3
  1056  0052                     ??___fltol:	; 1 bytes @ 0x35
  1057  0055                     	ds	1
  1058  0055                     	global	___fladd@a
  1059                           ___fladd@a:	; 4 bytes @ 0x36
  1060  0056                     	ds	4
  1061  0056                     ??___fladd:	; 1 bytes @ 0x3A
  1062  005A                     	global	___fltol@sign1
  1063                           ___fltol@sign1:	; 1 bytes @ 0x3A
  1064  005A                     	ds	1
  1065  005A                     	global	___fltol@exp1
  1066                           ___fltol@exp1:	; 1 bytes @ 0x3B
  1067  005B                     	ds	11
  1068  005B                     	global	___fladd@signs
  1069                           ___fladd@signs:	; 1 bytes @ 0x46
  1070  0066                     	ds	1
  1071  0066                     	global	___fladd@aexp
  1072                           ___fladd@aexp:	; 1 bytes @ 0x47
  1073  0067                     	ds	1
  1074  0067                     	global	___fladd@bexp
  1075                           ___fladd@bexp:	; 1 bytes @ 0x48
  1076  0068                     	ds	1
  1077  0068                     	global	___fladd@grs
  1078                           ___fladd@grs:	; 1 bytes @ 0x49
  1079  0069                     	ds	1
  1080  0069                     	global	?_printf
  1081                           ?_printf:	; 2 bytes @ 0x4A
  1082  006A                     	ds	4
  1083  006A                     ;!
  1084                           ;!Data Sizes:
  1085                           ;!    Strings     29
  1086                           ;!    Constant    144
  1087                           ;!    Data        0
  1088                           ;!    BSS         0
  1089                           ;!    Persistent  0
  1090                           ;!    Stack       0
  1091                           ;!
  1092                           ;!Auto Spaces:
  1093                           ;!    Space          Size  Autos    Used
  1094                           ;!    COMMON           14     14      14
  1095                           ;!    BANK0            80     78      78
  1096                           ;!    BANK1            80     52      52
  1097                           ;!    BANK3            96      0       0
  1098                           ;!    BANK2            96      0       0
  1099                           
  1100                           ;!
  1101                           ;!Pointer List with Targets:
  1102                           ;!
  1103                           ;!    printf@cp	PTR const unsigned char  size(2) Largest target is 13
  1104                           ;!		 -> STR_5(CODE[7]), ?_printf(BANK0[2]), STR_2(CODE[13]), 
  1105                           ;!
  1106                           ;!    printf@f	PTR const unsigned char  size(1) Largest target is 6
  1107                           ;!		 -> STR_4(CODE[6]), STR_3(CODE[6]), STR_1(CODE[3]), 
  1108                           ;!
  1109                           ;!    printf@ap	PTR void [1] size(1) Largest target is 2
  1110                           ;!		 -> ?_printf(BANK0[2]), 
  1111                           ;!
  1112                           
  1113                           
  1114                           ;!
  1115                           ;!Critical Paths under _main in COMMON
  1116                           ;!
  1117                           ;!    _main->___xxtofl
  1118                           ;!    _printf->___lldiv
  1119                           ;!    _printf->___xxtofl
  1120                           ;!    ___awdiv->___awmod
  1121                           ;!    _fround->___lwdiv
  1122                           ;!    ___lwdiv->___lwmod
  1123                           ;!    ___flmul->___lwdiv
  1124                           ;!    ___flsub->___xxtofl
  1125                           ;!    ___fladd->___xxtofl
  1126                           ;!
  1127                           ;!Critical Paths under _main in BANK0
  1128                           ;!
  1129                           ;!    _main->_printf
  1130                           ;!    _printf->___fladd
  1131                           ;!    _scale->___flmul
  1132                           ;!    _fround->___flmul
  1133                           ;!    ___flmul->___awdiv
  1134                           ;!    ___fltol->_scale
  1135                           ;!    ___flsub->___fladd
  1136                           ;!    ___fladd->_fround
  1137                           ;!
  1138                           ;!Critical Paths under _main in BANK1
  1139                           ;!
  1140                           ;!    _main->_printf
  1141                           ;!    _printf->___flsub
  1142                           ;!
  1143                           ;!Critical Paths under _main in BANK3
  1144                           ;!
  1145                           ;!    None.
  1146                           ;!
  1147                           ;!Critical Paths under _main in BANK2
  1148                           ;!
  1149                           ;!    None.
  1150                           
  1151 ;;
  1152 ;;Main: autosize = 0, tempsize = 4, incstack = 0, save=0
  1153 ;;
  1154                           
  1155                           ;!
  1156                           ;!Call Graph Tables:
  1157                           ;!
  1158                           ;! ---------------------------------------------------------------------------------
  1159                           ;! (Depth) Function   	        Calls       Base Space   Used Autos Params    Refs
  1160                           ;! ---------------------------------------------------------------------------------
  1161                           ;! (0) _main                                                10    10      0   40881
  1162                           ;!                                             44 BANK1      8     8      0
  1163                           ;!                            ___fladd
  1164                           ;!                            ___flmul
  1165                           ;!                           ___xxtofl
  1166                           ;!                            _comando
  1167                           ;!                         _confBusLCD
  1168                           ;!                             _printf
  1169                           ;! ---------------------------------------------------------------------------------
  1170                           ;! (1) _printf                                              41    37      4   32518
  1171                           ;!                                             74 BANK0      4     0      4
  1172                           ;!                                              8 BANK1     36    36      0
  1173                           ;!                            ___awdiv
  1174                           ;!                            ___fladd
  1175                           ;!                             ___fleq
  1176                           ;!                             ___flge
  1177                           ;!                            ___flmul
  1178                           ;!                            ___flneg
  1179                           ;!                            ___flsub
  1180                           ;!                            ___fltol
  1181                           ;!                            ___lldiv
  1182                           ;!                            ___llmod
  1183                           ;!                             ___wmul
  1184                           ;!                           ___xxtofl
  1185                           ;!                         __div_to_l_
  1186                           ;!                        __tdiv_to_l_
  1187                           ;!                             _fround
  1188                           ;!                            _isdigit
  1189                           ;!                              _putch
  1190                           ;!                              _scale
  1191                           ;! ---------------------------------------------------------------------------------
  1192                           ;! (2) _scale                                               19    15      4    7712
  1193                           ;!                                             30 BANK0     19    15      4
  1194                           ;!                            ___awdiv
  1195                           ;!                            ___awmod
  1196                           ;!                            ___flmul
  1197                           ;! ---------------------------------------------------------------------------------
  1198                           ;! (3) ___awmod                                              7     3      4    1208
  1199                           ;!                                              0 COMMON     7     3      4
  1200                           ;! ---------------------------------------------------------------------------------
  1201                           ;! (3) ___awdiv                                              9     5      4    1364
  1202                           ;!                                              7 COMMON     5     1      4
  1203                           ;!                                              0 BANK0      4     4      0
  1204                           ;!                            ___awmod (ARG)
  1205                           ;! ---------------------------------------------------------------------------------
  1206                           ;! (2) _putch                                                1     1      0       0
  1207                           ;! ---------------------------------------------------------------------------------
  1208                           ;! (2) _isdigit                                              2     2      0      68
  1209                           ;!                                              0 COMMON     2     2      0
  1210                           ;! ---------------------------------------------------------------------------------
  1211                           ;! (2) _fround                                              20    16      4    6175
  1212                           ;!                                             30 BANK0     20    16      4
  1213                           ;!                            ___flmul
  1214                           ;!                            ___lwdiv
  1215                           ;!                            ___lwmod
  1216                           ;! ---------------------------------------------------------------------------------
  1217                           ;! (3) ___lwmod                                              6     2      4     615
  1218                           ;!                                              0 COMMON     6     2      4
  1219                           ;! ---------------------------------------------------------------------------------
  1220                           ;! (3) ___lwdiv                                              8     4      4     618
  1221                           ;!                                              6 COMMON     8     4      4
  1222                           ;!                            ___lwmod (ARG)
  1223                           ;! ---------------------------------------------------------------------------------
  1224                           ;! (3) ___flmul                                             26    18      8    4697
  1225                           ;!                                              4 BANK0     26    18      8
  1226                           ;!                          __Umul8_16
  1227                           ;!                            ___awdiv (ARG)
  1228                           ;!                            ___awmod (ARG)
  1229                           ;!                            ___lwdiv (ARG)
  1230                           ;!                            ___lwmod (ARG)
  1231                           ;! ---------------------------------------------------------------------------------
  1232                           ;! (4) __Umul8_16                                            9     7      2     799
  1233                           ;!                                              0 COMMON     9     7      2
  1234                           ;! ---------------------------------------------------------------------------------
  1235                           ;! (2) __tdiv_to_l_                                         18    10      8     455
  1236                           ;!                                              0 COMMON    12     4      8
  1237                           ;!                                              0 BANK0      6     6      0
  1238                           ;! ---------------------------------------------------------------------------------
  1239                           ;! (2) __div_to_l_                                          19    11      8     455
  1240                           ;!                                              0 COMMON    13     5      8
  1241                           ;!                                              0 BANK0      6     6      0
  1242                           ;! ---------------------------------------------------------------------------------
  1243                           ;! (2) ___xxtofl                                            14    10      4     550
  1244                           ;!                                              0 COMMON    14    10      4
  1245                           ;! ---------------------------------------------------------------------------------
  1246                           ;! (2) ___wmul                                               6     2      4     548
  1247                           ;!                                              0 COMMON     6     2      4
  1248                           ;! ---------------------------------------------------------------------------------
  1249                           ;! (2) ___llmod                                             10     2      8     615
  1250                           ;!                                              0 COMMON    10     2      8
  1251                           ;! ---------------------------------------------------------------------------------
  1252                           ;! (2) ___lldiv                                             14     6      8     466
  1253                           ;!                                              0 COMMON    14     6      8
  1254                           ;! ---------------------------------------------------------------------------------
  1255                           ;! (2) ___fltol                                             11     7      4     457
  1256                           ;!                                             49 BANK0     11     7      4
  1257                           ;!                            ___flmul (ARG)
  1258                           ;!                              _scale (ARG)
  1259                           ;! ---------------------------------------------------------------------------------
  1260                           ;! (2) ___flsub                                              8     0      8    2637
  1261                           ;!                                              0 BANK1      8     0      8
  1262                           ;!                            ___fladd
  1263                           ;!                           ___xxtofl (ARG)
  1264                           ;! ---------------------------------------------------------------------------------
  1265                           ;! (3) ___fladd                                             24    16      8    2440
  1266                           ;!                                             50 BANK0     24    16      8
  1267                           ;!                           ___xxtofl (ARG)
  1268                           ;!                             _fround (ARG)
  1269                           ;! ---------------------------------------------------------------------------------
  1270                           ;! (2) ___flneg                                              4     0      4     121
  1271                           ;!                                              0 COMMON     4     0      4
  1272                           ;! ---------------------------------------------------------------------------------
  1273                           ;! (2) ___flge                                              16     8      8     790
  1274                           ;!                                              0 COMMON     8     0      8
  1275                           ;!                                              0 BANK0      8     8      0
  1276                           ;! ---------------------------------------------------------------------------------
  1277                           ;! (2) ___fleq                                              12     4      8     394
  1278                           ;!                                              0 COMMON    12     4      8
  1279                           ;! ---------------------------------------------------------------------------------
  1280                           ;! (1) _confBusLCD                                           6     6      0      29
  1281                           ;!                                              0 COMMON     6     6      0
  1282                           ;! ---------------------------------------------------------------------------------
  1283                           ;! (1) _comando                                              8     6      2     533
  1284                           ;!                                              0 COMMON     8     6      2
  1285                           ;! ---------------------------------------------------------------------------------
  1286                           ;! Estimated maximum stack depth 4
  1287                           ;! ---------------------------------------------------------------------------------
  1288                           ;!
  1289                           ;! Call Graph Graphs:
  1290                           ;!
  1291                           ;! _main (ROOT)
  1292                           ;!   ___fladd
  1293                           ;!     ___xxtofl (ARG)
  1294                           ;!     _fround (ARG)
  1295                           ;!       ___flmul
  1296                           ;!         __Umul8_16
  1297                           ;!         ___awdiv (ARG)
  1298                           ;!           ___awmod (ARG)
  1299                           ;!         ___awmod (ARG)
  1300                           ;!         ___lwdiv (ARG)
  1301                           ;!           ___lwmod (ARG)
  1302                           ;!         ___lwmod (ARG)
  1303                           ;!       ___lwdiv
  1304                           ;!         ___lwmod (ARG)
  1305                           ;!       ___lwmod
  1306                           ;!   ___flmul
  1307                           ;!     __Umul8_16
  1308                           ;!     ___awdiv (ARG)
  1309                           ;!       ___awmod (ARG)
  1310                           ;!     ___awmod (ARG)
  1311                           ;!     ___lwdiv (ARG)
  1312                           ;!       ___lwmod (ARG)
  1313                           ;!     ___lwmod (ARG)
  1314                           ;!   ___xxtofl
  1315                           ;!   _comando
  1316                           ;!   _confBusLCD
  1317                           ;!   _printf
  1318                           ;!     ___awdiv
  1319                           ;!       ___awmod (ARG)
  1320                           ;!     ___fladd
  1321                           ;!       ___xxtofl (ARG)
  1322                           ;!       _fround (ARG)
  1323                           ;!         ___flmul
  1324                           ;!           __Umul8_16
  1325                           ;!           ___awdiv (ARG)
  1326                           ;!             ___awmod (ARG)
  1327                           ;!           ___awmod (ARG)
  1328                           ;!           ___lwdiv (ARG)
  1329                           ;!             ___lwmod (ARG)
  1330                           ;!           ___lwmod (ARG)
  1331                           ;!         ___lwdiv
  1332                           ;!           ___lwmod (ARG)
  1333                           ;!         ___lwmod
  1334                           ;!     ___fleq
  1335                           ;!     ___flge
  1336                           ;!     ___flmul
  1337                           ;!       __Umul8_16
  1338                           ;!       ___awdiv (ARG)
  1339                           ;!         ___awmod (ARG)
  1340                           ;!       ___awmod (ARG)
  1341                           ;!       ___lwdiv (ARG)
  1342                           ;!         ___lwmod (ARG)
  1343                           ;!       ___lwmod (ARG)
  1344                           ;!     ___flneg
  1345                           ;!     ___flsub
  1346                           ;!       ___fladd
  1347                           ;!         ___xxtofl (ARG)
  1348                           ;!         _fround (ARG)
  1349                           ;!           ___flmul
  1350                           ;!             __Umul8_16
  1351                           ;!             ___awdiv (ARG)
  1352                           ;!               ___awmod (ARG)
  1353                           ;!             ___awmod (ARG)
  1354                           ;!             ___lwdiv (ARG)
  1355                           ;!               ___lwmod (ARG)
  1356                           ;!             ___lwmod (ARG)
  1357                           ;!           ___lwdiv
  1358                           ;!             ___lwmod (ARG)
  1359                           ;!           ___lwmod
  1360                           ;!       ___xxtofl (ARG)
  1361                           ;!     ___fltol
  1362                           ;!       ___flmul (ARG)
  1363                           ;!         __Umul8_16
  1364                           ;!         ___awdiv (ARG)
  1365                           ;!           ___awmod (ARG)
  1366                           ;!         ___awmod (ARG)
  1367                           ;!         ___lwdiv (ARG)
  1368                           ;!           ___lwmod (ARG)
  1369                           ;!         ___lwmod (ARG)
  1370                           ;!       _scale (ARG)
  1371                           ;!         ___awdiv
  1372                           ;!           ___awmod (ARG)
  1373                           ;!         ___awmod
  1374                           ;!         ___flmul
  1375                           ;!           __Umul8_16
  1376                           ;!           ___awdiv (ARG)
  1377                           ;!             ___awmod (ARG)
  1378                           ;!           ___awmod (ARG)
  1379                           ;!           ___lwdiv (ARG)
  1380                           ;!             ___lwmod (ARG)
  1381                           ;!           ___lwmod (ARG)
  1382                           ;!     ___lldiv
  1383                           ;!     ___llmod
  1384                           ;!     ___wmul
  1385                           ;!     ___xxtofl
  1386                           ;!     __div_to_l_
  1387                           ;!     __tdiv_to_l_
  1388                           ;!     _fround
  1389                           ;!       ___flmul
  1390                           ;!         __Umul8_16
  1391                           ;!         ___awdiv (ARG)
  1392                           ;!           ___awmod (ARG)
  1393                           ;!         ___awmod (ARG)
  1394                           ;!         ___lwdiv (ARG)
  1395                           ;!           ___lwmod (ARG)
  1396                           ;!         ___lwmod (ARG)
  1397                           ;!       ___lwdiv
  1398                           ;!         ___lwmod (ARG)
  1399                           ;!       ___lwmod
  1400                           ;!     _isdigit
  1401                           ;!     _putch
  1402                           ;!     _scale
  1403                           ;!       ___awdiv
  1404                           ;!         ___awmod (ARG)
  1405                           ;!       ___awmod
  1406                           ;!       ___flmul
  1407                           ;!         __Umul8_16
  1408                           ;!         ___awdiv (ARG)
  1409                           ;!           ___awmod (ARG)
  1410                           ;!         ___awmod (ARG)
  1411                           ;!         ___lwdiv (ARG)
  1412                           ;!           ___lwmod (ARG)
  1413                           ;!         ___lwmod (ARG)
  1414                           ;!
  1415                           
  1416                           ;! Address spaces:
  1417                           
  1418                           ;!Name               Size   Autos  Total    Cost      Usage
  1419                           ;!BITCOMMON            E      0       0       0        0.0%
  1420                           ;!EEDATA             100      0       0       0        0.0%
  1421                           ;!NULL                 0      0       0       0        0.0%
  1422                           ;!CODE                 0      0       0       0        0.0%
  1423                           ;!COMMON               E      E       E       1      100.0%
  1424                           ;!BITSFR0              0      0       0       1        0.0%
  1425                           ;!SFR0                 0      0       0       1        0.0%
  1426                           ;!BITSFR1              0      0       0       2        0.0%
  1427                           ;!SFR1                 0      0       0       2        0.0%
  1428                           ;!STACK                0      0       0       2        0.0%
  1429                           ;!ABS                  0      0       0       3        0.0%
  1430                           ;!BITBANK0            50      0       0       4        0.0%
  1431                           ;!BITSFR3              0      0       0       4        0.0%
  1432                           ;!SFR3                 0      0       0       4        0.0%
  1433                           ;!BANK0               50     4E      4E       5       97.5%
  1434                           ;!BITSFR2              0      0       0       5        0.0%
  1435                           ;!SFR2                 0      0       0       5        0.0%
  1436                           ;!BITBANK1            50      0       0       6        0.0%
  1437                           ;!BANK1               50     34      34       7       65.0%
  1438                           ;!BITBANK3            60      0       0       8        0.0%
  1439                           ;!BANK3               60      0       0       9        0.0%
  1440                           ;!BITBANK2            60      0       0      10        0.0%
  1441                           ;!BANK2               60      0       0      11        0.0%
  1442                           ;!DATA                 0      0       0      12        0.0%
  1443                           
  1444                           	global	_main
  1445                           
  1446 ;; *************** function _main *****************
  1447 ;; Defined at:
  1448 ;;		line 24 in file "adc.c"
  1449 ;; Parameters:    Size  Location     Type
  1450 ;;		None
  1451 ;; Auto vars:     Size  Location     Type
  1452 ;;  temp            4   48[BANK1 ] float 
  1453 ;;  lsb             1    0        unsigned char 
  1454 ;;  msb             1    0        unsigned char 
  1455 ;; Return value:  Size  Location     Type
  1456 ;;                  1    wreg      void 
  1457 ;; Registers used:
  1458 ;;		wreg, fsr0l, fsr0h, status,2, status,0, btemp+1, pclath, cstack
  1459 ;; Tracked objects:
  1460 ;;		On entry : B00/0
  1461 ;;		On exit  : 0/0
  1462 ;;		Unchanged: 0/0
  1463 ;; Data sizes:     COMMON   BANK0   BANK1   BANK3   BANK2
  1464 ;;      Params:         0       0       0       0       0
  1465 ;;      Locals:         0       0       4       0       0
  1466 ;;      Temps:          0       0       4       0       0
  1467 ;;      Totals:         0       0       8       0       0
  1468 ;;Total ram usage:        8 bytes
  1469 ;; Hardware stack levels required when called:    4
  1470 ;; This function calls:
  1471 ;;		___fladd
  1472 ;;		___flmul
  1473 ;;		___xxtofl
  1474 ;;		_comando
  1475 ;;		_confBusLCD
  1476 ;;		_printf
  1477 ;; This function is called by:
  1478 ;;		Startup code after reset
  1479 ;; This function uses a non-reentrant model
  1480 ;;
  1481                           psect	maintext,global,class=CODE,delta=2,split=1,group=0
  1482                           	file	"adc.c"
  1483                           	line	24
  1484                           global __pmaintext
  1485                           __pmaintext:	;psect for function _main
  1486  1183                     psect	maintext
  1487                           	file	"adc.c"
  1488                           	line	24
  1489                           	global	__size_of_main
  1490                           	__size_of_main	equ	__end_of_main-_main
  1491  01AE                     	
  1492                           _main:	
  1493  1183                     ;incstack = 0
  1494                           	opt	stack 4
  1495                           ; Regs used in _main: [wreg-fsr0h+status,2+status,0+btemp+1+pclath+cstack]
  1496                           	line	30
  1497                           	
  1498                           l3317:	
  1499  1183                     	movlw	low(0F8h)
  1500  1183  30F8               	bsf	status, 5	;RP0=1, select bank1
  1501  1184  1683               	bcf	status, 6	;RP1=0, select bank1
  1502  1185  1303               	movwf	(137)^080h	;volatile
  1503  1186  0089               	line	31
  1504                           	
  1505                           l3319:	
  1506  1187                     	bsf	status, 5	;RP0=1, select bank3
  1507  1187  1683               	bsf	status, 6	;RP1=1, select bank3
  1508  1188  1703               	clrf	(392)^0180h	;volatile
  1509  1189  0188               	line	32
  1510                           	
  1511                           l3321:	
  1512  118A                     	fcall	_confBusLCD
  1513  118A  160A  158A  22C9  160A  118A  	line	33
  1514                           	
  1515                           l3323:	
  1516  118F                     	movlw	0Ch
  1517  118F  300C               	movwf	(comando@com)
  1518  1190  00F0               	movlw	0
  1519  1191  3000               	movwf	((comando@com))+1
  1520  1192  00F1               	fcall	_comando
  1521  1193  160A  158A  233B  160A  118A  	line	34
  1522                           	
  1523                           l3325:	
  1524  1198                     	movlw	028h
  1525  1198  3028               	movwf	(comando@com)
  1526  1199  00F0               	movlw	0
  1527  119A  3000               	movwf	((comando@com))+1
  1528  119B  00F1               	fcall	_comando
  1529  119C  160A  158A  233B  160A  118A  	line	35
  1530                           	
  1531                           l3327:	
  1532  11A1                     	movlw	01h
  1533  11A1  3001               	movwf	(comando@com)
  1534  11A2  00F0               	movlw	0
  1535  11A3  3000               	movwf	((comando@com))+1
  1536  11A4  00F1               	fcall	_comando
  1537  11A5  160A  158A  233B  160A  118A  	line	36
  1538                           	
  1539                           l3329:	
  1540  11AA                     	movlw	080h
  1541  11AA  3080               	movwf	(comando@com)
  1542  11AB  00F0               	movlw	0
  1543  11AC  3000               	movwf	((comando@com))+1
  1544  11AD  00F1               	fcall	_comando
  1545  11AE  160A  158A  233B  160A  118A  	line	37
  1546                           	
  1547                           l3331:	
  1548  11B3                     	movlw	(low((((STR_2)-__stringbase)|8000h)))&0ffh
  1549  11B3  3091               	bcf	status, 5	;RP0=0, select bank0
  1550  11B4  1283               	bcf	status, 6	;RP1=0, select bank0
  1551  11B5  1303               	movwf	(?_printf)
  1552  11B6  00EA               	movlw	80h
  1553  11B7  3080               	movwf	(?_printf+1)
  1554  11B8  00EB               	movlw	(low((((STR_1)-__stringbase)|8000h)))&0ffh
  1555  11B9  30AB               	fcall	_printf
  1556  11BA  120A  158A  200E  160A  118A  	line	53
  1557                           	
  1558                           l3333:	
  1559  11BF                     ;adc.c: 53:     ANSEL = 0;
  1560                           	bsf	status, 5	;RP0=1, select bank3
  1561  11BF  1683               	bsf	status, 6	;RP1=1, select bank3
  1562  11C0  1703               	clrf	(392)^0180h	;volatile
  1563  11C1  0188               	line	54
  1564                           	
  1565                           l3335:	
  1566  11C2                     ;adc.c: 54:     TRISAbits.TRISA3 = 1;
  1567                           	bsf	status, 5	;RP0=1, select bank1
  1568  11C2  1683               	bcf	status, 6	;RP1=0, select bank1
  1569  11C3  1303               	bsf	(133)^080h,3	;volatile
  1570  11C4  1585               	line	60
  1571                           	
  1572                           l3337:	
  1573  11C5                     ;adc.c: 60:     ADCON0bits.ADCS = 0b01;
  1574                           	bcf	status, 5	;RP0=0, select bank0
  1575  11C5  1283               	bcf	status, 6	;RP1=0, select bank0
  1576  11C6  1303               	movf	(31),w	;volatile
  1577  11C7  081F               	andlw	not (((1<<2)-1)<<6)
  1578  11C8  393F               	iorlw	(01h & ((1<<2)-1))<<6
  1579  11C9  3840               	movwf	(31)	;volatile
  1580  11CA  009F               	line	63
  1581                           	
  1582                           l3339:	
  1583  11CB                     ;adc.c: 63:     ADCON0bits.CHS = 0b0011;
  1584                           	movf	(31),w	;volatile
  1585  11CB  081F               	andlw	not (((1<<4)-1)<<2)
  1586  11CC  39C3               	iorlw	(03h & ((1<<4)-1))<<2
  1587  11CD  380C               	movwf	(31)	;volatile
  1588  11CE  009F               	line	67
  1589                           	
  1590                           l3341:	
  1591  11CF                     ;adc.c: 67:     ADCON0bits.ADON = 1;
  1592                           	bsf	(31),0	;volatile
  1593  11CF  141F               	line	73
  1594                           	
  1595                           l3343:	
  1596  11D0                     ;adc.c: 73:     ADCON1bits.ADFM = 1;
  1597                           	bsf	status, 5	;RP0=1, select bank1
  1598  11D0  1683               	bcf	status, 6	;RP1=0, select bank1
  1599  11D1  1303               	bsf	(159)^080h,7	;volatile
  1600  11D2  179F               	line	76
  1601                           	
  1602                           l3345:	
  1603  11D3                     ;adc.c: 76:     ADCON1bits.VCFG1 = 0;
  1604                           	bcf	(159)^080h,5	;volatile
  1605  11D3  129F               	line	77
  1606                           	
  1607                           l3347:	
  1608  11D4                     ;adc.c: 77:     ADCON1bits.VCFG0 = 0;
  1609                           	bcf	(159)^080h,4	;volatile
  1610  11D4  121F               	goto	l3349
  1611  11D5  29D6               	line	79
  1612                           ;adc.c: 79:     while (1) {
  1613                           	
  1614                           l33:	
  1615  11D6                     	line	80
  1616                           	
  1617                           l3349:	
  1618  11D6                     ;adc.c: 80:         _delay((unsigned long)((1000)*(4000000/4000.0)));
  1619                           	opt asmopt_push
  1620                           opt asmopt_off
  1621                           movlw  6
  1622  11D6  3006               	bsf	status, 5	;RP0=1, select bank1
  1623  11D7  1683               	bcf	status, 6	;RP1=0, select bank1
  1624  11D8  1303               movwf	((??_main+0)^080h+0+2),f
  1625  11D9  00CE               movlw	19
  1626  11DA  3013               movwf	((??_main+0)^080h+0+1),f
  1627  11DB  00CD               	movlw	173
  1628  11DC  30AD               movwf	((??_main+0)^080h+0),f
  1629  11DD  00CC               	u5677:
  1630  11DE                     decfsz	((??_main+0)^080h+0),f
  1631  11DE  0BCC               	goto	u5677
  1632  11DF  29DE               	decfsz	((??_main+0)^080h+0+1),f
  1633  11E0  0BCD               	goto	u5677
  1634  11E1  29DE               	decfsz	((??_main+0)^080h+0+2),f
  1635  11E2  0BCE               	goto	u5677
  1636  11E3  29DE               opt asmopt_pop
  1637                           
  1638                           	line	83
  1639                           	
  1640                           l3351:	
  1641  11E4                     ;adc.c: 83:         ADCON0bits.GO = 1;
  1642                           	bcf	status, 5	;RP0=0, select bank0
  1643  11E4  1283               	bcf	status, 6	;RP1=0, select bank0
  1644  11E5  1303               	bsf	(31),1	;volatile
  1645  11E6  149F               	line	88
  1646                           ;adc.c: 88:         while(ADCON0bits.nDONE == 1) ;
  1647                           	goto	l34
  1648  11E7  29E8               	
  1649                           l35:	
  1650  11E8                     	
  1651                           l34:	
  1652  11E8                     	btfsc	(31),1	;volatile
  1653  11E8  189F               	goto	u5661
  1654  11E9  29EB               	goto	u5660
  1655  11EA  29EC               u5661:
  1656  11EB                     	goto	l34
  1657  11EB  29E8               u5660:
  1658  11EC                     	goto	l3353
  1659  11EC  29ED               	
  1660                           l36:	
  1661  11ED                     	line	95
  1662                           	
  1663                           l3353:	
  1664  11ED                     ;adc.c: 95:         temp = ADRESH * 256;
  1665                           	movf	(30),w	;volatile
  1666  11ED  081E               	bsf	status, 5	;RP0=1, select bank1
  1667  11EE  1683               	bcf	status, 6	;RP1=0, select bank1
  1668  11EF  1303               	movwf	(??_main+0)^080h+0
  1669  11F0  00CC               	clrf	(??_main+0)^080h+0+1
  1670  11F1  01CD               	movf	(??_main+0)^080h+0,w
  1671  11F2  084C               	movwf	(??_main+0)^080h+1
  1672  11F3  00CD               	clrf	(??_main+0)^080h+0
  1673  11F4  01CC               	movf	0+(??_main+0)^080h+0,w
  1674  11F5  084C               	movwf	(___xxtofl@val)
  1675  11F6  00F0               	movf	1+(??_main+0)^080h+0,w
  1676  11F7  084D               	movwf	(___xxtofl@val+1)
  1677  11F8  00F1               	movlw	0
  1678  11F9  3000               	btfsc	(___xxtofl@val+1),7
  1679  11FA  1BF1               	movlw	255
  1680  11FB  30FF               	movwf	(___xxtofl@val+2)
  1681  11FC  00F2               	movwf	(___xxtofl@val+3)
  1682  11FD  00F3               	movlw	low(01h)
  1683  11FE  3001               	fcall	___xxtofl
  1684  11FF  160A  158A  259A  160A  118A  	movf	(3+(?___xxtofl)),w
  1685  1204  0873               	bsf	status, 5	;RP0=1, select bank1
  1686  1205  1683               	bcf	status, 6	;RP1=0, select bank1
  1687  1206  1303               	movwf	(main@temp+3)^080h
  1688  1207  00D3               	movf	(2+(?___xxtofl)),w
  1689  1208  0872               	movwf	(main@temp+2)^080h
  1690  1209  00D2               	movf	(1+(?___xxtofl)),w
  1691  120A  0871               	movwf	(main@temp+1)^080h
  1692  120B  00D1               	movf	(0+(?___xxtofl)),w
  1693  120C  0870               	movwf	(main@temp)^080h
  1694  120D  00D0               
  1695                           	line	96
  1696                           ;adc.c: 96:         temp += ADRESL;
  1697                           	movf	(158)^080h,w	;volatile
  1698  120E  081E               	movwf	(??_main+0)^080h+0
  1699  120F  00CC               	clrf	(??_main+0)^080h+0+1
  1700  1210  01CD               	clrf	(??_main+0)^080h+0+2
  1701  1211  01CE               	clrf	(??_main+0)^080h+0+3
  1702  1212  01CF               	movf	3+(??_main+0)^080h+0,w
  1703  1213  084F               	movwf	(___xxtofl@val+3)
  1704  1214  00F3               	movf	2+(??_main+0)^080h+0,w
  1705  1215  084E               	movwf	(___xxtofl@val+2)
  1706  1216  00F2               	movf	1+(??_main+0)^080h+0,w
  1707  1217  084D               	movwf	(___xxtofl@val+1)
  1708  1218  00F1               	movf	0+(??_main+0)^080h+0,w
  1709  1219  084C               	movwf	(___xxtofl@val)
  1710  121A  00F0               
  1711                           	movlw	low(01h)
  1712  121B  3001               	fcall	___xxtofl
  1713  121C  160A  158A  259A  160A  118A  	movf	(3+(?___xxtofl)),w
  1714  1221  0873               	bcf	status, 5	;RP0=0, select bank0
  1715  1222  1283               	bcf	status, 6	;RP1=0, select bank0
  1716  1223  1303               	movwf	(___fladd@b+3)
  1717  1224  00D5               	movf	(2+(?___xxtofl)),w
  1718  1225  0872               	movwf	(___fladd@b+2)
  1719  1226  00D4               	movf	(1+(?___xxtofl)),w
  1720  1227  0871               	movwf	(___fladd@b+1)
  1721  1228  00D3               	movf	(0+(?___xxtofl)),w
  1722  1229  0870               	movwf	(___fladd@b)
  1723  122A  00D2               
  1724                           	bsf	status, 5	;RP0=1, select bank1
  1725  122B  1683               	bcf	status, 6	;RP1=0, select bank1
  1726  122C  1303               	movf	(main@temp+3)^080h,w
  1727  122D  0853               	bcf	status, 5	;RP0=0, select bank0
  1728  122E  1283               	bcf	status, 6	;RP1=0, select bank0
  1729  122F  1303               	movwf	(___fladd@a+3)
  1730  1230  00D9               	bsf	status, 5	;RP0=1, select bank1
  1731  1231  1683               	bcf	status, 6	;RP1=0, select bank1
  1732  1232  1303               	movf	(main@temp+2)^080h,w
  1733  1233  0852               	bcf	status, 5	;RP0=0, select bank0
  1734  1234  1283               	bcf	status, 6	;RP1=0, select bank0
  1735  1235  1303               	movwf	(___fladd@a+2)
  1736  1236  00D8               	bsf	status, 5	;RP0=1, select bank1
  1737  1237  1683               	bcf	status, 6	;RP1=0, select bank1
  1738  1238  1303               	movf	(main@temp+1)^080h,w
  1739  1239  0851               	bcf	status, 5	;RP0=0, select bank0
  1740  123A  1283               	bcf	status, 6	;RP1=0, select bank0
  1741  123B  1303               	movwf	(___fladd@a+1)
  1742  123C  00D7               	bsf	status, 5	;RP0=1, select bank1
  1743  123D  1683               	bcf	status, 6	;RP1=0, select bank1
  1744  123E  1303               	movf	(main@temp)^080h,w
  1745  123F  0850               	bcf	status, 5	;RP0=0, select bank0
  1746  1240  1283               	bcf	status, 6	;RP1=0, select bank0
  1747  1241  1303               	movwf	(___fladd@a)
  1748  1242  00D6               
  1749                           	fcall	___fladd
  1750  1243  160A  118A  2544  160A  118A  	bcf	status, 5	;RP0=0, select bank0
  1751  1248  1283               	bcf	status, 6	;RP1=0, select bank0
  1752  1249  1303               	movf	(3+(?___fladd)),w
  1753  124A  0855               	bsf	status, 5	;RP0=1, select bank1
  1754  124B  1683               	bcf	status, 6	;RP1=0, select bank1
  1755  124C  1303               	movwf	(main@temp+3)^080h
  1756  124D  00D3               	bcf	status, 5	;RP0=0, select bank0
  1757  124E  1283               	bcf	status, 6	;RP1=0, select bank0
  1758  124F  1303               	movf	(2+(?___fladd)),w
  1759  1250  0854               	bsf	status, 5	;RP0=1, select bank1
  1760  1251  1683               	bcf	status, 6	;RP1=0, select bank1
  1761  1252  1303               	movwf	(main@temp+2)^080h
  1762  1253  00D2               	bcf	status, 5	;RP0=0, select bank0
  1763  1254  1283               	bcf	status, 6	;RP1=0, select bank0
  1764  1255  1303               	movf	(1+(?___fladd)),w
  1765  1256  0853               	bsf	status, 5	;RP0=1, select bank1
  1766  1257  1683               	bcf	status, 6	;RP1=0, select bank1
  1767  1258  1303               	movwf	(main@temp+1)^080h
  1768  1259  00D1               	bcf	status, 5	;RP0=0, select bank0
  1769  125A  1283               	bcf	status, 6	;RP1=0, select bank0
  1770  125B  1303               	movf	(0+(?___fladd)),w
  1771  125C  0852               	bsf	status, 5	;RP0=1, select bank1
  1772  125D  1683               	bcf	status, 6	;RP1=0, select bank1
  1773  125E  1303               	movwf	(main@temp)^080h
  1774  125F  00D0               
  1775                           	line	99
  1776                           ;adc.c: 99:         temp *= 0.004887586;
  1777                           	movlw	0x3b
  1778  1260  303B               	bcf	status, 5	;RP0=0, select bank0
  1779  1261  1283               	bcf	status, 6	;RP1=0, select bank0
  1780  1262  1303               	movwf	(___flmul@b+3)
  1781  1263  00A7               	movlw	0xa0
  1782  1264  30A0               	movwf	(___flmul@b+2)
  1783  1265  00A6               	movlw	0x28
  1784  1266  3028               	movwf	(___flmul@b+1)
  1785  1267  00A5               	movlw	0xb
  1786  1268  300B               	movwf	(___flmul@b)
  1787  1269  00A4               
  1788                           	bsf	status, 5	;RP0=1, select bank1
  1789  126A  1683               	bcf	status, 6	;RP1=0, select bank1
  1790  126B  1303               	movf	(main@temp+3)^080h,w
  1791  126C  0853               	bcf	status, 5	;RP0=0, select bank0
  1792  126D  1283               	bcf	status, 6	;RP1=0, select bank0
  1793  126E  1303               	movwf	(___flmul@a+3)
  1794  126F  00AB               	bsf	status, 5	;RP0=1, select bank1
  1795  1270  1683               	bcf	status, 6	;RP1=0, select bank1
  1796  1271  1303               	movf	(main@temp+2)^080h,w
  1797  1272  0852               	bcf	status, 5	;RP0=0, select bank0
  1798  1273  1283               	bcf	status, 6	;RP1=0, select bank0
  1799  1274  1303               	movwf	(___flmul@a+2)
  1800  1275  00AA               	bsf	status, 5	;RP0=1, select bank1
  1801  1276  1683               	bcf	status, 6	;RP1=0, select bank1
  1802  1277  1303               	movf	(main@temp+1)^080h,w
  1803  1278  0851               	bcf	status, 5	;RP0=0, select bank0
  1804  1279  1283               	bcf	status, 6	;RP1=0, select bank0
  1805  127A  1303               	movwf	(___flmul@a+1)
  1806  127B  00A9               	bsf	status, 5	;RP0=1, select bank1
  1807  127C  1683               	bcf	status, 6	;RP1=0, select bank1
  1808  127D  1303               	movf	(main@temp)^080h,w
  1809  127E  0850               	bcf	status, 5	;RP0=0, select bank0
  1810  127F  1283               	bcf	status, 6	;RP1=0, select bank0
  1811  1280  1303               	movwf	(___flmul@a)
  1812  1281  00A8               
  1813                           	fcall	___flmul
  1814  1282  120A  158A  248B  160A  118A  	bcf	status, 5	;RP0=0, select bank0
  1815  1287  1283               	bcf	status, 6	;RP1=0, select bank0
  1816  1288  1303               	movf	(3+(?___flmul)),w
  1817  1289  0827               	bsf	status, 5	;RP0=1, select bank1
  1818  128A  1683               	bcf	status, 6	;RP1=0, select bank1
  1819  128B  1303               	movwf	(main@temp+3)^080h
  1820  128C  00D3               	bcf	status, 5	;RP0=0, select bank0
  1821  128D  1283               	bcf	status, 6	;RP1=0, select bank0
  1822  128E  1303               	movf	(2+(?___flmul)),w
  1823  128F  0826               	bsf	status, 5	;RP0=1, select bank1
  1824  1290  1683               	bcf	status, 6	;RP1=0, select bank1
  1825  1291  1303               	movwf	(main@temp+2)^080h
  1826  1292  00D2               	bcf	status, 5	;RP0=0, select bank0
  1827  1293  1283               	bcf	status, 6	;RP1=0, select bank0
  1828  1294  1303               	movf	(1+(?___flmul)),w
  1829  1295  0825               	bsf	status, 5	;RP0=1, select bank1
  1830  1296  1683               	bcf	status, 6	;RP1=0, select bank1
  1831  1297  1303               	movwf	(main@temp+1)^080h
  1832  1298  00D1               	bcf	status, 5	;RP0=0, select bank0
  1833  1299  1283               	bcf	status, 6	;RP1=0, select bank0
  1834  129A  1303               	movf	(0+(?___flmul)),w
  1835  129B  0824               	bsf	status, 5	;RP0=1, select bank1
  1836  129C  1683               	bcf	status, 6	;RP1=0, select bank1
  1837  129D  1303               	movwf	(main@temp)^080h
  1838  129E  00D0               
  1839                           	line	100
  1840                           ;adc.c: 100:         temp *= 100;
  1841                           	movlw	0x42
  1842  129F  3042               	bcf	status, 5	;RP0=0, select bank0
  1843  12A0  1283               	bcf	status, 6	;RP1=0, select bank0
  1844  12A1  1303               	movwf	(___flmul@b+3)
  1845  12A2  00A7               	movlw	0xc8
  1846  12A3  30C8               	movwf	(___flmul@b+2)
  1847  12A4  00A6               	movlw	0x0
  1848  12A5  3000               	movwf	(___flmul@b+1)
  1849  12A6  00A5               	movlw	0x0
  1850  12A7  3000               	movwf	(___flmul@b)
  1851  12A8  00A4               
  1852                           	bsf	status, 5	;RP0=1, select bank1
  1853  12A9  1683               	bcf	status, 6	;RP1=0, select bank1
  1854  12AA  1303               	movf	(main@temp+3)^080h,w
  1855  12AB  0853               	bcf	status, 5	;RP0=0, select bank0
  1856  12AC  1283               	bcf	status, 6	;RP1=0, select bank0
  1857  12AD  1303               	movwf	(___flmul@a+3)
  1858  12AE  00AB               	bsf	status, 5	;RP0=1, select bank1
  1859  12AF  1683               	bcf	status, 6	;RP1=0, select bank1
  1860  12B0  1303               	movf	(main@temp+2)^080h,w
  1861  12B1  0852               	bcf	status, 5	;RP0=0, select bank0
  1862  12B2  1283               	bcf	status, 6	;RP1=0, select bank0
  1863  12B3  1303               	movwf	(___flmul@a+2)
  1864  12B4  00AA               	bsf	status, 5	;RP0=1, select bank1
  1865  12B5  1683               	bcf	status, 6	;RP1=0, select bank1
  1866  12B6  1303               	movf	(main@temp+1)^080h,w
  1867  12B7  0851               	bcf	status, 5	;RP0=0, select bank0
  1868  12B8  1283               	bcf	status, 6	;RP1=0, select bank0
  1869  12B9  1303               	movwf	(___flmul@a+1)
  1870  12BA  00A9               	bsf	status, 5	;RP0=1, select bank1
  1871  12BB  1683               	bcf	status, 6	;RP1=0, select bank1
  1872  12BC  1303               	movf	(main@temp)^080h,w
  1873  12BD  0850               	bcf	status, 5	;RP0=0, select bank0
  1874  12BE  1283               	bcf	status, 6	;RP1=0, select bank0
  1875  12BF  1303               	movwf	(___flmul@a)
  1876  12C0  00A8               
  1877                           	fcall	___flmul
  1878  12C1  120A  158A  248B  160A  118A  	bcf	status, 5	;RP0=0, select bank0
  1879  12C6  1283               	bcf	status, 6	;RP1=0, select bank0
  1880  12C7  1303               	movf	(3+(?___flmul)),w
  1881  12C8  0827               	bsf	status, 5	;RP0=1, select bank1
  1882  12C9  1683               	bcf	status, 6	;RP1=0, select bank1
  1883  12CA  1303               	movwf	(main@temp+3)^080h
  1884  12CB  00D3               	bcf	status, 5	;RP0=0, select bank0
  1885  12CC  1283               	bcf	status, 6	;RP1=0, select bank0
  1886  12CD  1303               	movf	(2+(?___flmul)),w
  1887  12CE  0826               	bsf	status, 5	;RP0=1, select bank1
  1888  12CF  1683               	bcf	status, 6	;RP1=0, select bank1
  1889  12D0  1303               	movwf	(main@temp+2)^080h
  1890  12D1  00D2               	bcf	status, 5	;RP0=0, select bank0
  1891  12D2  1283               	bcf	status, 6	;RP1=0, select bank0
  1892  12D3  1303               	movf	(1+(?___flmul)),w
  1893  12D4  0825               	bsf	status, 5	;RP0=1, select bank1
  1894  12D5  1683               	bcf	status, 6	;RP1=0, select bank1
  1895  12D6  1303               	movwf	(main@temp+1)^080h
  1896  12D7  00D1               	bcf	status, 5	;RP0=0, select bank0
  1897  12D8  1283               	bcf	status, 6	;RP1=0, select bank0
  1898  12D9  1303               	movf	(0+(?___flmul)),w
  1899  12DA  0824               	bsf	status, 5	;RP0=1, select bank1
  1900  12DB  1683               	bcf	status, 6	;RP1=0, select bank1
  1901  12DC  1303               	movwf	(main@temp)^080h
  1902  12DD  00D0               
  1903                           	line	102
  1904                           	
  1905                           l3355:	
  1906  12DE                     ;adc.c: 102:         comando(0xC0);
  1907                           	movlw	0C0h
  1908  12DE  30C0               	movwf	(comando@com)
  1909  12DF  00F0               	movlw	0
  1910  12E0  3000               	movwf	((comando@com))+1
  1911  12E1  00F1               	fcall	_comando
  1912  12E2  160A  158A  233B  160A  118A  	line	103
  1913                           	
  1914                           l3357:	
  1915  12E7                     ;adc.c: 103:         printf("%3.1f", temp);
  1916                           	bsf	status, 5	;RP0=1, select bank1
  1917  12E7  1683               	bcf	status, 6	;RP1=0, select bank1
  1918  12E8  1303               	movf	(main@temp+3)^080h,w
  1919  12E9  0853               	bcf	status, 5	;RP0=0, select bank0
  1920  12EA  1283               	bcf	status, 6	;RP1=0, select bank0
  1921  12EB  1303               	movwf	(?_printf+3)
  1922  12EC  00ED               	bsf	status, 5	;RP0=1, select bank1
  1923  12ED  1683               	bcf	status, 6	;RP1=0, select bank1
  1924  12EE  1303               	movf	(main@temp+2)^080h,w
  1925  12EF  0852               	bcf	status, 5	;RP0=0, select bank0
  1926  12F0  1283               	bcf	status, 6	;RP1=0, select bank0
  1927  12F1  1303               	movwf	(?_printf+2)
  1928  12F2  00EC               	bsf	status, 5	;RP0=1, select bank1
  1929  12F3  1683               	bcf	status, 6	;RP1=0, select bank1
  1930  12F4  1303               	movf	(main@temp+1)^080h,w
  1931  12F5  0851               	bcf	status, 5	;RP0=0, select bank0
  1932  12F6  1283               	bcf	status, 6	;RP1=0, select bank0
  1933  12F7  1303               	movwf	(?_printf+1)
  1934  12F8  00EB               	bsf	status, 5	;RP0=1, select bank1
  1935  12F9  1683               	bcf	status, 6	;RP1=0, select bank1
  1936  12FA  1303               	movf	(main@temp)^080h,w
  1937  12FB  0850               	bcf	status, 5	;RP0=0, select bank0
  1938  12FC  1283               	bcf	status, 6	;RP1=0, select bank0
  1939  12FD  1303               	movwf	(?_printf)
  1940  12FE  00EA               
  1941                           	movlw	(low((((STR_3)-__stringbase)|8000h)))&0ffh
  1942  12FF  30A5               	fcall	_printf
  1943  1300  120A  158A  200E  160A  118A  	line	105
  1944                           	
  1945                           l3359:	
  1946  1305                     ;adc.c: 105:         comando(0xC4);
  1947                           	movlw	0C4h
  1948  1305  30C4               	movwf	(comando@com)
  1949  1306  00F0               	movlw	0
  1950  1307  3000               	movwf	((comando@com))+1
  1951  1308  00F1               	fcall	_comando
  1952  1309  160A  158A  233B  160A  118A  	line	106
  1953                           	
  1954                           l3361:	
  1955  130E                     ;adc.c: 106:         printf("%3.1f", temp);
  1956                           	bsf	status, 5	;RP0=1, select bank1
  1957  130E  1683               	bcf	status, 6	;RP1=0, select bank1
  1958  130F  1303               	movf	(main@temp+3)^080h,w
  1959  1310  0853               	bcf	status, 5	;RP0=0, select bank0
  1960  1311  1283               	bcf	status, 6	;RP1=0, select bank0
  1961  1312  1303               	movwf	(?_printf+3)
  1962  1313  00ED               	bsf	status, 5	;RP0=1, select bank1
  1963  1314  1683               	bcf	status, 6	;RP1=0, select bank1
  1964  1315  1303               	movf	(main@temp+2)^080h,w
  1965  1316  0852               	bcf	status, 5	;RP0=0, select bank0
  1966  1317  1283               	bcf	status, 6	;RP1=0, select bank0
  1967  1318  1303               	movwf	(?_printf+2)
  1968  1319  00EC               	bsf	status, 5	;RP0=1, select bank1
  1969  131A  1683               	bcf	status, 6	;RP1=0, select bank1
  1970  131B  1303               	movf	(main@temp+1)^080h,w
  1971  131C  0851               	bcf	status, 5	;RP0=0, select bank0
  1972  131D  1283               	bcf	status, 6	;RP1=0, select bank0
  1973  131E  1303               	movwf	(?_printf+1)
  1974  131F  00EB               	bsf	status, 5	;RP0=1, select bank1
  1975  1320  1683               	bcf	status, 6	;RP1=0, select bank1
  1976  1321  1303               	movf	(main@temp)^080h,w
  1977  1322  0850               	bcf	status, 5	;RP0=0, select bank0
  1978  1323  1283               	bcf	status, 6	;RP1=0, select bank0
  1979  1324  1303               	movwf	(?_printf)
  1980  1325  00EA               
  1981                           	movlw	(low((((STR_4)-__stringbase)|8000h)))&0ffh
  1982  1326  30A5               	fcall	_printf
  1983  1327  120A  158A  200E  160A  118A  	goto	l3349
  1984  132C  29D6               	line	109
  1985                           ;adc.c: 109:     }
  1986                           	
  1987                           l37:	
  1988  132D                     	goto	l3349
  1989  132D  29D6               	
  1990                           l38:	
  1991  132E                     	line	110
  1992                           	
  1993                           l39:	
  1994  132E                     	global	start
  1995                           	ljmp	start
  1996  132E  120A  118A  2800   	opt stack 0
  1997                           GLOBAL	__end_of_main
  1998                           	__end_of_main:
  1999  1331                     	signat	_main,89
  2000                           	global	_printf
  2001                           
  2002 ;; *************** function _printf *****************
  2003 ;; Defined at:
  2004 ;;		line 472 in file "/opt/microchip/xc8/v2.00/pic/sources/c90/common/doprnt.c"
  2005 ;; Parameters:    Size  Location     Type
  2006 ;;  f               1    wreg     PTR const unsigned char 
  2007 ;;		 -> STR_4(6), STR_3(6), STR_1(3), 
  2008 ;; Auto vars:     Size  Location     Type
  2009 ;;  f               1   28[BANK1 ] PTR const unsigned char 
  2010 ;;		 -> STR_4(6), STR_3(6), STR_1(3), 
  2011 ;;  fval            4   37[BANK1 ] PTR const unsigned char 
  2012 ;;  tmpval          4   29[BANK1 ] struct .
  2013 ;;  val             4   22[BANK1 ] unsigned long 
  2014 ;;  prec            2   41[BANK1 ] int 
  2015 ;;  width           2   35[BANK1 ] int 
  2016 ;;  eexp            2   33[BANK1 ] int 
  2017 ;;  flag            2   26[BANK1 ] unsigned short 
  2018 ;;  len             2   20[BANK1 ] unsigned int 
  2019 ;;  cp              2   18[BANK1 ] PTR const unsigned char 
  2020 ;;		 -> STR_5(7), ?_printf(2), STR_2(13), 
  2021 ;;  c               1   43[BANK1 ] unsigned char 
  2022 ;;  ap              1   17[BANK1 ] PTR void [1]
  2023 ;;		 -> ?_printf(2), 
  2024 ;;  d               1    0        unsigned char 
  2025 ;; Return value:  Size  Location     Type
  2026 ;;                  2   74[BANK0 ] int 
  2027 ;; Registers used:
  2028 ;;		wreg, fsr0l, fsr0h, status,2, status,0, btemp+1, pclath, cstack
  2029 ;; Tracked objects:
  2030 ;;		On entry : 0/0
  2031 ;;		On exit  : 0/0
  2032 ;;		Unchanged: 0/0
  2033 ;; Data sizes:     COMMON   BANK0   BANK1   BANK3   BANK2
  2034 ;;      Params:         0       4       0       0       0
  2035 ;;      Locals:         0       0      31       0       0
  2036 ;;      Temps:          0       0       5       0       0
  2037 ;;      Totals:         0       4      36       0       0
  2038 ;;Total ram usage:       40 bytes
  2039 ;; Hardware stack levels used:    1
  2040 ;; Hardware stack levels required when called:    3
  2041 ;; This function calls:
  2042 ;;		___awdiv
  2043 ;;		___fladd
  2044 ;;		___fleq
  2045 ;;		___flge
  2046 ;;		___flmul
  2047 ;;		___flneg
  2048 ;;		___flsub
  2049 ;;		___fltol
  2050 ;;		___lldiv
  2051 ;;		___llmod
  2052 ;;		___wmul
  2053 ;;		___xxtofl
  2054 ;;		__div_to_l_
  2055 ;;		__tdiv_to_l_
  2056 ;;		_fround
  2057 ;;		_isdigit
  2058 ;;		_putch
  2059 ;;		_scale
  2060 ;; This function is called by:
  2061 ;;		_main
  2062 ;; This function uses a non-reentrant model
  2063 ;;
  2064                           psect	text1,local,class=CODE,delta=2,merge=1,group=0
  2065                           	file	"/opt/microchip/xc8/v2.00/pic/sources/c90/common/doprnt.c"
  2066                           	line	472
  2067                           global __ptext1
  2068                           __ptext1:	;psect for function _printf
  2069  080E                     psect	text1
  2070                           	file	"/opt/microchip/xc8/v2.00/pic/sources/c90/common/doprnt.c"
  2071                           	line	472
  2072                           	global	__size_of_printf
  2073                           	__size_of_printf	equ	__end_of_printf-_printf
  2074  FFEB                     	
  2075                           _printf:	
  2076  080E                     ;incstack = 0
  2077                           	opt	stack 4
  2078                           ; Regs used in _printf: [wreg-fsr0h+status,2+status,0+btemp+1+pclath+cstack]
  2079                           ;printf@f stored from wreg
  2080                           	bsf	status, 5	;RP0=1, select bank1
  2081  080E  1683               	bcf	status, 6	;RP1=0, select bank1
  2082  080F  1303               	movwf	(printf@f)^080h
  2083  0810  00BC               	line	545
  2084                           	
  2085                           l3045:	
  2086  0811                     ;/opt/microchip/xc8/v2.00/pic/sources/c90/common/doprnt.c: 472: printf(const char * f, .
                                 ..);/opt/microchip/xc8/v2.00/pic/sources/c90/common/doprnt.c: 473: {;/opt/microchip/xc8/
                                 v2.00/pic/sources/c90/common/doprnt.c: 474:  va_list ap;;/opt/microchip/xc8/v2.00/pic/so
                                 urces/c90/common/doprnt.c: 507:  char c;;/opt/microchip/xc8/v2.00/pic/sources/c90/common
                                 /doprnt.c: 509:  int width;;/opt/microchip/xc8/v2.00/pic/sources/c90/common/doprnt.c: 51
                                 2:  int prec;;/opt/microchip/xc8/v2.00/pic/sources/c90/common/doprnt.c: 520:  unsigned s
                                 hort flag;
  2087                           	movlw	(low(?_printf|((0x0)<<8)))&0ffh
  2088  0811  306A               	movwf	(??_printf+0)^080h+0
  2089  0812  00A8               	movf	(??_printf+0)^080h+0,w
  2090  0813  0828               	movwf	(printf@ap)^080h
  2091  0814  00B1               	line	548
  2092                           ;/opt/microchip/xc8/v2.00/pic/sources/c90/common/doprnt.c: 548:  while((c = *f++)) {
  2093                           	goto	l3311
  2094  0815  120A  118A  2FE0   	
  2095                           l174:	
  2096  0818                     	line	550
  2097                           	
  2098                           l3047:	
  2099  0818                     ;/opt/microchip/xc8/v2.00/pic/sources/c90/common/doprnt.c: 550:   if(c != '%')
  2100                           		movlw	37
  2101  0818  3025               	xorwf	((printf@c)^080h),w
  2102  0819  064B               	btfsc	status,2
  2103  081A  1903               	goto	u5111
  2104  081B  281D               	goto	u5110
  2105  081C  281E               u5111:
  2106  081D                     	goto	l3051
  2107  081D  2825               u5110:
  2108  081E                     	line	553
  2109                           	
  2110                           l3049:	
  2111  081E                     ;/opt/microchip/xc8/v2.00/pic/sources/c90/common/doprnt.c: 552:   {;/opt/microchip/xc8/v
                                 2.00/pic/sources/c90/common/doprnt.c: 553:    (putch(c) );
  2112                           	movf	(printf@c)^080h,w
  2113  081E  084B               	fcall	_putch
  2114  081F  120A  158A  200D  120A  158A  	line	554
  2115                           ;/opt/microchip/xc8/v2.00/pic/sources/c90/common/doprnt.c: 554:    continue;
  2116                           	goto	l3311
  2117  0824  2815               	line	555
  2118                           ;/opt/microchip/xc8/v2.00/pic/sources/c90/common/doprnt.c: 555:   }
  2119                           	
  2120                           l175:	
  2121  0825                     	line	558
  2122                           	
  2123                           l3051:	
  2124  0825                     ;/opt/microchip/xc8/v2.00/pic/sources/c90/common/doprnt.c: 558:   width = 0;
  2125                           	bsf	status, 5	;RP0=1, select bank1
  2126  0825  1683               	bcf	status, 6	;RP1=0, select bank1
  2127  0826  1303               	clrf	(printf@width)^080h
  2128  0827  01C3               	clrf	(printf@width+1)^080h
  2129  0828  01C4               	line	560
  2130                           ;/opt/microchip/xc8/v2.00/pic/sources/c90/common/doprnt.c: 560:   flag = 0;
  2131                           	clrf	(printf@flag)^080h
  2132  0829  01BA               	clrf	(printf@flag+1)^080h
  2133  082A  01BB               	line	609
  2134                           	
  2135                           l3053:	
  2136  082B                     ;/opt/microchip/xc8/v2.00/pic/sources/c90/common/doprnt.c: 609:   if(isdigit((unsigned)*
                                 f)) {
  2137                           	movf	(printf@f)^080h,w
  2138  082B  083C               	movwf	fsr0
  2139  082C  0084               	fcall	stringdir
  2140  082D  160A  158A  200A  120A  158A  	fcall	_isdigit
  2141  0832  160A  118A  200A  120A  158A  	btfss	status,0
  2142  0837  1C03               	goto	u5121
  2143  0838  283A               	goto	u5120
  2144  0839  283B               u5121:
  2145  083A                     	goto	l3065
  2146  083A  287E               u5120:
  2147  083B                     	line	610
  2148                           	
  2149                           l3055:	
  2150  083B                     ;/opt/microchip/xc8/v2.00/pic/sources/c90/common/doprnt.c: 610:    width = 0;
  2151                           	bsf	status, 5	;RP0=1, select bank1
  2152  083B  1683               	bcf	status, 6	;RP1=0, select bank1
  2153  083C  1303               	clrf	(printf@width)^080h
  2154  083D  01C3               	clrf	(printf@width+1)^080h
  2155  083E  01C4               	goto	l3057
  2156  083F  2840               	line	611
  2157                           ;/opt/microchip/xc8/v2.00/pic/sources/c90/common/doprnt.c: 611:    do {
  2158                           	
  2159                           l177:	
  2160  0840                     	line	612
  2161                           	
  2162                           l3057:	
  2163  0840                     ;/opt/microchip/xc8/v2.00/pic/sources/c90/common/doprnt.c: 612:     width *= 10;
  2164                           	movlw	0Ah
  2165  0840  300A               	movwf	(___wmul@multiplier)
  2166  0841  00F0               	movlw	0
  2167  0842  3000               	movwf	((___wmul@multiplier))+1
  2168  0843  00F1               	bsf	status, 5	;RP0=1, select bank1
  2169  0844  1683               	bcf	status, 6	;RP1=0, select bank1
  2170  0845  1303               	movf	(printf@width+1)^080h,w
  2171  0846  0844               	movwf	(___wmul@multiplicand+1)
  2172  0847  00F3               	movf	(printf@width)^080h,w
  2173  0848  0843               	movwf	(___wmul@multiplicand)
  2174  0849  00F2               	fcall	___wmul
  2175  084A  160A  158A  2277  120A  158A  	movf	(1+(?___wmul)),w
  2176  084F  0871               	bsf	status, 5	;RP0=1, select bank1
  2177  0850  1683               	bcf	status, 6	;RP1=0, select bank1
  2178  0851  1303               	movwf	(printf@width+1)^080h
  2179  0852  00C4               	movf	(0+(?___wmul)),w
  2180  0853  0870               	movwf	(printf@width)^080h
  2181  0854  00C3               	line	613
  2182                           	
  2183                           l3059:	
  2184  0855                     ;/opt/microchip/xc8/v2.00/pic/sources/c90/common/doprnt.c: 613:        width += *f++ - '
                                 0';
  2185                           	movf	(printf@f)^080h,w
  2186  0855  083C               	movwf	fsr0
  2187  0856  0084               	fcall	stringdir
  2188  0857  160A  158A  200A  120A  158A  	addlw	low(-48)
  2189  085C  3ED0               	movwf	(??_printf+0)^080h+0
  2190  085D  00A8               	movlw	high(-48)
  2191  085E  30FF               	skipnc
  2192  085F  1803               	movlw	(high(-48)+1)&0ffh
  2193  0860  3000               	movwf	((??_printf+0)^080h+0)+1
  2194  0861  00A9               	movf	0+(??_printf+0)^080h+0,w
  2195  0862  0828               	addwf	(printf@width)^080h,f
  2196  0863  07C3               	skipnc
  2197  0864  1803               	incf	(printf@width+1)^080h,f
  2198  0865  0AC4               	movf	1+(??_printf+0)^080h+0,w
  2199  0866  0829               	addwf	(printf@width+1)^080h,f
  2200  0867  07C4               	
  2201                           l3061:	
  2202  0868                     	movlw	low(01h)
  2203  0868  3001               	movwf	(??_printf+0)^080h+0
  2204  0869  00A8               	movf	(??_printf+0)^080h+0,w
  2205  086A  0828               	addwf	(printf@f)^080h,f
  2206  086B  07BC               	line	614
  2207                           	
  2208                           l3063:	
  2209  086C                     ;/opt/microchip/xc8/v2.00/pic/sources/c90/common/doprnt.c: 614:    } while(isdigit((unsi
                                 gned)*f));
  2210                           	movf	(printf@f)^080h,w
  2211  086C  083C               	movwf	fsr0
  2212  086D  0084               	fcall	stringdir
  2213  086E  160A  158A  200A  120A  158A  	fcall	_isdigit
  2214  0873  160A  118A  200A  120A  158A  	btfsc	status,0
  2215  0878  1803               	goto	u5131
  2216  0879  287B               	goto	u5130
  2217  087A  287C               u5131:
  2218  087B                     	goto	l3057
  2219  087B  2840               u5130:
  2220  087C                     	goto	l3065
  2221  087C  287E               	
  2222                           l178:	
  2223  087D                     	goto	l3065
  2224  087D  287E               	line	620
  2225                           ;/opt/microchip/xc8/v2.00/pic/sources/c90/common/doprnt.c: 620:   }
  2226                           	
  2227                           l176:	
  2228  087E                     	line	623
  2229                           	
  2230                           l3065:	
  2231  087E                     ;/opt/microchip/xc8/v2.00/pic/sources/c90/common/doprnt.c: 623:   if(*f == '.') {
  2232                           	bsf	status, 5	;RP0=1, select bank1
  2233  087E  1683               	bcf	status, 6	;RP1=0, select bank1
  2234  087F  1303               	movf	(printf@f)^080h,w
  2235  0880  083C               	movwf	fsr0
  2236  0881  0084               	fcall	stringdir
  2237  0882  160A  158A  200A  120A  158A  	xorlw	02Eh
  2238  0887  3A2E               	skipz
  2239  0888  1D03               	goto	u5141
  2240  0889  288B               	goto	u5140
  2241  088A  288C               u5141:
  2242  088B                     	goto	l3079
  2243  088B  28D4               u5140:
  2244  088C                     	line	624
  2245                           	
  2246                           l3067:	
  2247  088C                     ;/opt/microchip/xc8/v2.00/pic/sources/c90/common/doprnt.c: 624:    flag |= 0x4000;
  2248                           	bsf	(printf@flag)^080h+(14/8),(14)&7
  2249  088C  173B               	line	625
  2250                           	
  2251                           l3069:	
  2252  088D                     ;/opt/microchip/xc8/v2.00/pic/sources/c90/common/doprnt.c: 625:    f++;
  2253                           	movlw	low(01h)
  2254  088D  3001               	movwf	(??_printf+0)^080h+0
  2255  088E  00A8               	movf	(??_printf+0)^080h+0,w
  2256  088F  0828               	addwf	(printf@f)^080h,f
  2257  0890  07BC               	line	640
  2258                           	
  2259                           l3071:	
  2260  0891                     ;/opt/microchip/xc8/v2.00/pic/sources/c90/common/doprnt.c: 639:    {;/opt/microchip/xc8/
                                 v2.00/pic/sources/c90/common/doprnt.c: 640:     prec = 0;
  2261                           	clrf	(printf@prec)^080h
  2262  0891  01C9               	clrf	(printf@prec+1)^080h
  2263  0892  01CA               	line	641
  2264                           ;/opt/microchip/xc8/v2.00/pic/sources/c90/common/doprnt.c: 641:     while(isdigit((unsig
                                 ned)*f))
  2265                           	goto	l3077
  2266  0893  28C0               	
  2267                           l181:	
  2268  0894                     	line	642
  2269                           	
  2270                           l3073:	
  2271  0894                     ;/opt/microchip/xc8/v2.00/pic/sources/c90/common/doprnt.c: 642:      prec = prec*10 + *f
                                 ++ - '0';
  2272                           	bsf	status, 5	;RP0=1, select bank1
  2273  0894  1683               	bcf	status, 6	;RP1=0, select bank1
  2274  0895  1303               	movf	(printf@prec+1)^080h,w
  2275  0896  084A               	movwf	(___wmul@multiplier+1)
  2276  0897  00F1               	movf	(printf@prec)^080h,w
  2277  0898  0849               	movwf	(___wmul@multiplier)
  2278  0899  00F0               	movlw	0Ah
  2279  089A  300A               	movwf	(___wmul@multiplicand)
  2280  089B  00F2               	movlw	0
  2281  089C  3000               	movwf	((___wmul@multiplicand))+1
  2282  089D  00F3               	fcall	___wmul
  2283  089E  160A  158A  2277  120A  158A  	bsf	status, 5	;RP0=1, select bank1
  2284  08A3  1683               	bcf	status, 6	;RP1=0, select bank1
  2285  08A4  1303               	movf	(printf@f)^080h,w
  2286  08A5  083C               	movwf	fsr0
  2287  08A6  0084               	fcall	stringdir
  2288  08A7  160A  158A  200A  120A  158A  	addwf	(0+(?___wmul)),w
  2289  08AC  0770               	movwf	(??_printf+0)^080h+0
  2290  08AD  00A8               	movlw	0
  2291  08AE  3000               	skipnc
  2292  08AF  1803               	movlw	1
  2293  08B0  3001               	addwf	(1+(?___wmul)),w
  2294  08B1  0771               	movwf	1+(??_printf+0)^080h+0
  2295  08B2  00A9               	movf	0+(??_printf+0)^080h+0,w
  2296  08B3  0828               	addlw	low(0FFD0h)
  2297  08B4  3ED0               	movwf	(printf@prec)^080h
  2298  08B5  00C9               	movf	1+(??_printf+0)^080h+0,w
  2299  08B6  0829               	skipnc
  2300  08B7  1803               	addlw	1
  2301  08B8  3E01               	addlw	high(0FFD0h)
  2302  08B9  3EFF               	movwf	1+(printf@prec)^080h
  2303  08BA  00CA               	
  2304                           l3075:	
  2305  08BB                     	movlw	low(01h)
  2306  08BB  3001               	movwf	(??_printf+0)^080h+0
  2307  08BC  00A8               	movf	(??_printf+0)^080h+0,w
  2308  08BD  0828               	addwf	(printf@f)^080h,f
  2309  08BE  07BC               	goto	l3077
  2310  08BF  28C0               	
  2311                           l180:	
  2312  08C0                     	line	641
  2313                           	
  2314                           l3077:	
  2315  08C0                     ;/opt/microchip/xc8/v2.00/pic/sources/c90/common/doprnt.c: 641:     while(isdigit((unsig
                                 ned)*f))
  2316                           	movf	(printf@f)^080h,w
  2317  08C0  083C               	movwf	fsr0
  2318  08C1  0084               	fcall	stringdir
  2319  08C2  160A  158A  200A  120A  158A  	fcall	_isdigit
  2320  08C7  160A  118A  200A  120A  158A  	btfsc	status,0
  2321  08CC  1803               	goto	u5151
  2322  08CD  28CF               	goto	u5150
  2323  08CE  28D0               u5151:
  2324  08CF                     	goto	l3073
  2325  08CF  2894               u5150:
  2326  08D0                     	goto	l3119
  2327  08D0  120A  118A  291D   	
  2328                           l182:	
  2329  08D3                     	line	644
  2330                           ;/opt/microchip/xc8/v2.00/pic/sources/c90/common/doprnt.c: 643:    };/opt/microchip/xc8/
                                 v2.00/pic/sources/c90/common/doprnt.c: 644:   } else {
  2331                           	goto	l3119
  2332  08D3  28D0               	
  2333                           l179:	
  2334  08D4                     	line	645
  2335                           	
  2336                           l3079:	
  2337  08D4                     ;/opt/microchip/xc8/v2.00/pic/sources/c90/common/doprnt.c: 645:    prec = 0;
  2338                           	bsf	status, 5	;RP0=1, select bank1
  2339  08D4  1683               	bcf	status, 6	;RP1=0, select bank1
  2340  08D5  1303               	clrf	(printf@prec)^080h
  2341  08D6  01C9               	clrf	(printf@prec+1)^080h
  2342  08D7  01CA               	line	647
  2343                           	
  2344                           l3081:	
  2345  08D8                     ;/opt/microchip/xc8/v2.00/pic/sources/c90/common/doprnt.c: 647:    flag |= 0x1000;
  2346                           	bsf	(printf@flag)^080h+(12/8),(12)&7
  2347  08D8  163B               	goto	l3119
  2348  08D9  28D0               	line	649
  2349                           ;/opt/microchip/xc8/v2.00/pic/sources/c90/common/doprnt.c: 649:   }
  2350                           	
  2351                           l183:	
  2352  08DA                     	line	654
  2353                           ;/opt/microchip/xc8/v2.00/pic/sources/c90/common/doprnt.c: 654:   switch(c = *f++) {
  2354                           	goto	l3119
  2355  08DA  28D0               	line	656
  2356                           ;/opt/microchip/xc8/v2.00/pic/sources/c90/common/doprnt.c: 656:   case 0:
  2357                           	
  2358                           l185:	
  2359  08DB                     	line	657
  2360                           ;/opt/microchip/xc8/v2.00/pic/sources/c90/common/doprnt.c: 657:    goto alldone;
  2361                           	goto	l262
  2362  08DB  120A  118A  2FF8   	line	681
  2363                           ;/opt/microchip/xc8/v2.00/pic/sources/c90/common/doprnt.c: 681:   case 'f':
  2364                           	
  2365                           l187:	
  2366  08DE                     	line	682
  2367                           ;/opt/microchip/xc8/v2.00/pic/sources/c90/common/doprnt.c: 682:    flag |= 0x400;
  2368                           	bsf	(printf@flag)^080h+(10/8),(10)&7
  2369  08DE  153B               	line	683
  2370                           ;/opt/microchip/xc8/v2.00/pic/sources/c90/common/doprnt.c: 683:    break;
  2371                           	goto	l3121
  2372  08DF  120A  118A  2940   	line	747
  2373                           ;/opt/microchip/xc8/v2.00/pic/sources/c90/common/doprnt.c: 747:   case 's':
  2374                           	
  2375                           l189:	
  2376  08E2                     	line	753
  2377                           	
  2378                           l3083:	
  2379  08E2                     ;/opt/microchip/xc8/v2.00/pic/sources/c90/common/doprnt.c: 753:     cp = (*(const char *
                                  *)__va_arg((*(const char * **)ap), (const char *)0));
  2380                           	movf	(printf@ap)^080h,w
  2381  08E2  0831               	movwf	fsr0
  2382  08E3  0084               	bcf	status, 7	;select IRP bank0
  2383  08E4  1383               		movf	indf,w
  2384  08E5  0800               	movwf	(printf@cp)^080h
  2385  08E6  00B2               incf	fsr0,f
  2386  08E7  0A84               	movf	indf,w
  2387  08E8  0800               	decf	fsr0,f
  2388  08E9  0384               movwf	(printf@cp+1)^080h
  2389  08EA  00B3               
  2390                           	
  2391                           l3085:	
  2392  08EB                     	movlw	low(02h)
  2393  08EB  3002               	movwf	(??_printf+0)^080h+0
  2394  08EC  00A8               	movf	(??_printf+0)^080h+0,w
  2395  08ED  0828               	addwf	(printf@ap)^080h,f
  2396  08EE  07B1               	line	759
  2397                           	
  2398                           l3087:	
  2399  08EF                     ;/opt/microchip/xc8/v2.00/pic/sources/c90/common/doprnt.c: 759:    if(!cp)
  2400                           	movf	((printf@cp)^080h),w
  2401  08EF  0832               iorwf	((printf@cp+1)^080h),w
  2402  08F0  0433               	btfss	status,2
  2403  08F1  1D03               	goto	u5161
  2404  08F2  28F4               	goto	u5160
  2405  08F3  28F5               u5161:
  2406  08F4                     	goto	l3091
  2407  08F4  28FA               u5160:
  2408  08F5                     	line	760
  2409                           	
  2410                           l3089:	
  2411  08F5                     ;/opt/microchip/xc8/v2.00/pic/sources/c90/common/doprnt.c: 760:     cp = "(null)";
  2412                           	movlw	(low((((STR_5)-__stringbase)|8000h)))&0ffh
  2413  08F5  309E               	movwf	(printf@cp)^080h
  2414  08F6  00B2               	movlw	80h
  2415  08F7  3080               	movwf	(printf@cp+1)^080h
  2416  08F8  00B3               	goto	l3091
  2417  08F9  28FA               	
  2418                           l190:	
  2419  08FA                     	line	764
  2420                           	
  2421                           l3091:	
  2422  08FA                     ;/opt/microchip/xc8/v2.00/pic/sources/c90/common/doprnt.c: 764:    len = 0;
  2423                           	clrf	(printf@len)^080h
  2424  08FA  01B4               	clrf	(printf@len+1)^080h
  2425  08FB  01B5               	line	765
  2426                           ;/opt/microchip/xc8/v2.00/pic/sources/c90/common/doprnt.c: 765:    while(cp[len])
  2427                           	goto	l3095
  2428  08FC  2906               	
  2429                           l192:	
  2430  08FD                     	line	766
  2431                           	
  2432                           l3093:	
  2433  08FD                     ;/opt/microchip/xc8/v2.00/pic/sources/c90/common/doprnt.c: 766:     len++;
  2434                           	movlw	01h
  2435  08FD  3001               	bsf	status, 5	;RP0=1, select bank1
  2436  08FE  1683               	bcf	status, 6	;RP1=0, select bank1
  2437  08FF  1303               	addwf	(printf@len)^080h,f
  2438  0900  07B4               	skipnc
  2439  0901  1803               	incf	(printf@len+1)^080h,f
  2440  0902  0AB5               	movlw	0
  2441  0903  3000               	addwf	(printf@len+1)^080h,f
  2442  0904  07B5               	goto	l3095
  2443  0905  2906               	
  2444                           l191:	
  2445  0906                     	line	765
  2446                           	
  2447                           l3095:	
  2448  0906                     ;/opt/microchip/xc8/v2.00/pic/sources/c90/common/doprnt.c: 765:    while(cp[len])
  2449                           	movf	(printf@len)^080h,w
  2450  0906  0834               	addwf	(printf@cp)^080h,w
  2451  0907  0732               	movwf	fsr0
  2452  0908  0084               	movf	(printf@cp+1)^080h,w
  2453  0909  0833               	skipnc
  2454  090A  1803               	incf	(printf@cp+1)^080h,w
  2455  090B  0A33               	bcf	status, 5	;RP0=0, select bank0
  2456  090C  1283               	bcf	status, 6	;RP1=0, select bank0
  2457  090D  1303               	movwf	btemp+1
  2458  090E  00FF               	fcall	stringtab
  2459  090F  160A  158A  2000  120A  158A  	xorlw	0
  2460  0914  3A00               	skipz
  2461  0915  1D03               	goto	u5171
  2462  0916  2918               	goto	u5170
  2463  0917  2919               u5171:
  2464  0918                     	goto	l3093
  2465  0918  28FD               u5170:
  2466  0919                     	goto	l3097
  2467  0919  120A  118A  28AC   	
  2468                           l193:	
  2469  00AC                     	line	772
  2470                           	
  2471                           l3097:	
  2472  00AC                     ;/opt/microchip/xc8/v2.00/pic/sources/c90/common/doprnt.c: 772:    if(prec && prec < len
                                 )
  2473                           	bsf	status, 5	;RP0=1, select bank1
  2474  00AC  1683               	bcf	status, 6	;RP1=0, select bank1
  2475  00AD  1303               	movf	((printf@prec)^080h),w
  2476  00AE  0849               iorwf	((printf@prec+1)^080h),w
  2477  00AF  044A               	btfsc	status,2
  2478  00B0  1903               	goto	u5181
  2479  00B1  28B3               	goto	u5180
  2480  00B2  28B4               u5181:
  2481  00B3                     	goto	l194
  2482  00B3  28C2               u5180:
  2483  00B4                     	
  2484                           l3099:	
  2485  00B4                     	movf	(printf@len+1)^080h,w
  2486  00B4  0835               	subwf	(printf@prec+1)^080h,w
  2487  00B5  024A               	skipz
  2488  00B6  1D03               	goto	u5195
  2489  00B7  28BA               	movf	(printf@len)^080h,w
  2490  00B8  0834               	subwf	(printf@prec)^080h,w
  2491  00B9  0249               u5195:
  2492  00BA                     	skipnc
  2493  00BA  1803               	goto	u5191
  2494  00BB  28BD               	goto	u5190
  2495  00BC  28BE               u5191:
  2496  00BD                     	goto	l194
  2497  00BD  28C2               u5190:
  2498  00BE                     	line	773
  2499                           	
  2500                           l3101:	
  2501  00BE                     ;/opt/microchip/xc8/v2.00/pic/sources/c90/common/doprnt.c: 773:     len = prec;
  2502                           	movf	(printf@prec+1)^080h,w
  2503  00BE  084A               	movwf	(printf@len+1)^080h
  2504  00BF  00B5               	movf	(printf@prec)^080h,w
  2505  00C0  0849               	movwf	(printf@len)^080h
  2506  00C1  00B4               	
  2507                           l194:	
  2508  00C2                     	line	776
  2509                           ;/opt/microchip/xc8/v2.00/pic/sources/c90/common/doprnt.c: 776:    if(width > len)
  2510                           	movf	(printf@width+1)^080h,w
  2511  00C2  0844               	subwf	(printf@len+1)^080h,w
  2512  00C3  0235               	skipz
  2513  00C4  1D03               	goto	u5205
  2514  00C5  28C8               	movf	(printf@width)^080h,w
  2515  00C6  0843               	subwf	(printf@len)^080h,w
  2516  00C7  0234               u5205:
  2517  00C8                     	skipnc
  2518  00C8  1803               	goto	u5201
  2519  00C9  28CB               	goto	u5200
  2520  00CA  28CC               u5201:
  2521  00CB                     	goto	l3105
  2522  00CB  28D3               u5200:
  2523  00CC                     	line	777
  2524                           	
  2525                           l3103:	
  2526  00CC                     ;/opt/microchip/xc8/v2.00/pic/sources/c90/common/doprnt.c: 777:     width -= len;
  2527                           	movf	(printf@len)^080h,w
  2528  00CC  0834               	subwf	(printf@width)^080h,f
  2529  00CD  02C3               	movf	(printf@len+1)^080h,w
  2530  00CE  0835               	skipc
  2531  00CF  1C03               	decf	(printf@width+1)^080h,f
  2532  00D0  03C4               	subwf	(printf@width+1)^080h,f
  2533  00D1  02C4               	goto	l3109
  2534  00D2  28DE               	line	778
  2535                           ;/opt/microchip/xc8/v2.00/pic/sources/c90/common/doprnt.c: 778:    else
  2536                           	
  2537                           l195:	
  2538  00D3                     	line	779
  2539                           	
  2540                           l3105:	
  2541  00D3                     ;/opt/microchip/xc8/v2.00/pic/sources/c90/common/doprnt.c: 779:     width = 0;
  2542                           	clrf	(printf@width)^080h
  2543  00D3  01C3               	clrf	(printf@width+1)^080h
  2544  00D4  01C4               	goto	l3109
  2545  00D5  28DE               	
  2546                           l196:	
  2547  00D6                     	line	783
  2548                           ;/opt/microchip/xc8/v2.00/pic/sources/c90/common/doprnt.c: 783:     while(width--)
  2549                           	goto	l3109
  2550  00D6  28DE               	
  2551                           l198:	
  2552  00D7                     	line	784
  2553                           	
  2554                           l3107:	
  2555  00D7                     ;/opt/microchip/xc8/v2.00/pic/sources/c90/common/doprnt.c: 784:      (putch(' ') );
  2556                           	movlw	low(020h)
  2557  00D7  3020               	fcall	_putch
  2558  00D8  120A  158A  200D  120A  118A  	goto	l3109
  2559  00DD  28DE               	
  2560                           l197:	
  2561  00DE                     	line	783
  2562                           	
  2563                           l3109:	
  2564  00DE                     ;/opt/microchip/xc8/v2.00/pic/sources/c90/common/doprnt.c: 783:     while(width--)
  2565                           	movlw	0FFh
  2566  00DE  30FF               	bsf	status, 5	;RP0=1, select bank1
  2567  00DF  1683               	bcf	status, 6	;RP1=0, select bank1
  2568  00E0  1303               	addwf	(printf@width)^080h,f
  2569  00E1  07C3               	skipnc
  2570  00E2  1803               	incf	(printf@width+1)^080h,f
  2571  00E3  0AC4               	movlw	0FFh
  2572  00E4  30FF               	addwf	(printf@width+1)^080h,f
  2573  00E5  07C4               		incf	(((printf@width)^080h)),w
  2574  00E6  0A43               	skipz
  2575  00E7  1D03               	goto	u5211
  2576  00E8  28ED               	incf	(((printf@width+1)^080h)),w
  2577  00E9  0A44               	btfss	status,2
  2578  00EA  1D03               	goto	u5211
  2579  00EB  28ED               	goto	u5210
  2580  00EC  28EE               u5211:
  2581  00ED                     	goto	l3107
  2582  00ED  28D7               u5210:
  2583  00EE                     	goto	l3115
  2584  00EE  290B               	
  2585                           l199:	
  2586  00EF                     	line	786
  2587                           ;/opt/microchip/xc8/v2.00/pic/sources/c90/common/doprnt.c: 786:    while(len--)
  2588                           	goto	l3115
  2589  00EF  290B               	
  2590                           l201:	
  2591  00F0                     	line	787
  2592                           	
  2593                           l3111:	
  2594  00F0                     ;/opt/microchip/xc8/v2.00/pic/sources/c90/common/doprnt.c: 787:     (putch(*cp++) );
  2595                           	movf	(printf@cp+1)^080h,w
  2596  00F0  0833               	bcf	status, 5	;RP0=0, select bank0
  2597  00F1  1283               	bcf	status, 6	;RP1=0, select bank0
  2598  00F2  1303               	movwf	btemp+1
  2599  00F3  00FF               	bsf	status, 5	;RP0=1, select bank1
  2600  00F4  1683               	bcf	status, 6	;RP1=0, select bank1
  2601  00F5  1303               	movf	(printf@cp)^080h,w
  2602  00F6  0832               	movwf	fsr0
  2603  00F7  0084               	bcf	status, 5	;RP0=0, select bank0
  2604  00F8  1283               	bcf	status, 6	;RP1=0, select bank0
  2605  00F9  1303               	fcall	stringtab
  2606  00FA  160A  158A  2000  120A  118A  	fcall	_putch
  2607  00FF  120A  158A  200D  120A  118A  	
  2608                           l3113:	
  2609  0104                     	movlw	01h
  2610  0104  3001               	bsf	status, 5	;RP0=1, select bank1
  2611  0105  1683               	bcf	status, 6	;RP1=0, select bank1
  2612  0106  1303               	addwf	(printf@cp)^080h,f
  2613  0107  07B2               	skipnc
  2614  0108  1803               	incf	(printf@cp+1)^080h,f
  2615  0109  0AB3               	goto	l3115
  2616  010A  290B               	
  2617                           l200:	
  2618  010B                     	line	786
  2619                           	
  2620                           l3115:	
  2621  010B                     ;/opt/microchip/xc8/v2.00/pic/sources/c90/common/doprnt.c: 786:    while(len--)
  2622                           	movlw	01h
  2623  010B  3001               	subwf	(printf@len)^080h,f
  2624  010C  02B4               	movlw	0
  2625  010D  3000               	skipc
  2626  010E  1C03               	decf	(printf@len+1)^080h,f
  2627  010F  03B5               	subwf	(printf@len+1)^080h,f
  2628  0110  02B5               		incf	(((printf@len)^080h)),w
  2629  0111  0A34               	skipz
  2630  0112  1D03               	goto	u5221
  2631  0113  2918               	incf	(((printf@len+1)^080h)),w
  2632  0114  0A35               	btfss	status,2
  2633  0115  1D03               	goto	u5221
  2634  0116  2918               	goto	u5220
  2635  0117  2919               u5221:
  2636  0118                     	goto	l3111
  2637  0118  28F0               u5220:
  2638  0119                     	goto	l3311
  2639  0119  2FE0               	
  2640                           l202:	
  2641  011A                     	line	793
  2642                           ;/opt/microchip/xc8/v2.00/pic/sources/c90/common/doprnt.c: 793:    continue;
  2643                           	goto	l3311
  2644  011A  2FE0               	line	821
  2645                           ;/opt/microchip/xc8/v2.00/pic/sources/c90/common/doprnt.c: 821:   default:
  2646                           	
  2647                           l203:	
  2648  011B                     	line	832
  2649                           ;/opt/microchip/xc8/v2.00/pic/sources/c90/common/doprnt.c: 832:    continue;
  2650                           	goto	l3311
  2651  011B  2FE0               	line	841
  2652                           	
  2653                           l3117:	
  2654  011C                     ;/opt/microchip/xc8/v2.00/pic/sources/c90/common/doprnt.c: 841:   }
  2655                           	goto	l3121
  2656  011C  2940               	
  2657                           l184:	
  2658  011D                     	
  2659                           l3119:	
  2660  011D                     	movlw	01h
  2661  011D  3001               	bsf	status, 5	;RP0=1, select bank1
  2662  011E  1683               	bcf	status, 6	;RP1=0, select bank1
  2663  011F  1303               	addwf	(printf@f)^080h,f
  2664  0120  07BC               	movlw	-01h
  2665  0121  30FF               	addwf	(printf@f)^080h,w
  2666  0122  073C               	movwf	fsr0
  2667  0123  0084               	fcall	stringdir
  2668  0124  160A  158A  200A  120A  118A  	movwf	(printf@c)^080h
  2669  0129  00CB               	movwf	(??_printf+0)^080h+0
  2670  012A  00A8               	clrf	(??_printf+0)^080h+0+1
  2671  012B  01A9               	; Switch on 2 bytes has been partitioned into a top level switch of size 1, and 1 sub-s
                                 witches
  2672                           ; Switch size 1, requested type "space"
  2673                           ; Number of cases is 1, Range of values is 0 to 0
  2674                           ; switch strategies available:
  2675                           ; Name         Instructions Cycles
  2676                           ; simple_byte            4     3 (average)
  2677                           ; direct_byte           11     8 (fixed)
  2678                           ; jumptable            260     6 (fixed)
  2679                           ;	Chosen strategy is simple_byte
  2680                           
  2681                           	movf 1+(??_printf+0)^080h+0,w
  2682  012C  0829               	opt asmopt_push
  2683                           	opt asmopt_off
  2684                           	xorlw	0^0	; case 0
  2685  012D  3A00               	skipnz
  2686  012E  1903               	goto	l3383
  2687  012F  2931               	goto	l3311
  2688  0130  2FE0               	opt asmopt_pop
  2689                           	
  2690                           l3383:	
  2691  0131                     ; Switch size 1, requested type "space"
  2692                           ; Number of cases is 3, Range of values is 0 to 115
  2693                           ; switch strategies available:
  2694                           ; Name         Instructions Cycles
  2695                           ; simple_byte           10     6 (average)
  2696                           ; jumptable            260     6 (fixed)
  2697                           ;	Chosen strategy is simple_byte
  2698                           
  2699                           	movf 0+(??_printf+0)^080h+0,w
  2700  0131  0828               	opt asmopt_push
  2701                           	opt asmopt_off
  2702                           	xorlw	0^0	; case 0
  2703  0132  3A00               	skipnz
  2704  0133  1903               	goto	l262
  2705  0134  2FF8               	xorlw	102^0	; case 102
  2706  0135  3A66               	skipnz
  2707  0136  120A  158A  1903   	goto	l187
  2708  0139  28DE  120A  118A   	xorlw	115^102	; case 115
  2709  013C  3A15               	skipnz
  2710  013D  1903               	goto	l3083
  2711  013E  2FF9               	goto	l3311
  2712  013F  2FE0               	opt asmopt_pop
  2713                           
  2714                           	
  2715                           l188:	
  2716  0140                     	line	844
  2717                           	
  2718                           l3121:	
  2719  0140                     ;/opt/microchip/xc8/v2.00/pic/sources/c90/common/doprnt.c: 844:   if(flag & (0x700)) {
  2720                           	movlw	0
  2721  0140  3000               	andwf	(printf@flag)^080h,w
  2722  0141  053A               	movwf	(??_printf+0)^080h+0
  2723  0142  00A8               	movlw	07h
  2724  0143  3007               	andwf	(printf@flag+1)^080h,w
  2725  0144  053B               	movwf	1+(??_printf+0)^080h+0
  2726  0145  00A9               	movf	((??_printf+0)^080h+0),w
  2727  0146  0828               iorwf	((??_printf+0)^080h+1),w
  2728  0147  0429               	btfsc	status,2
  2729  0148  1903               	goto	u5231
  2730  0149  294B               	goto	u5230
  2731  014A  294C               u5231:
  2732  014B                     	goto	l3269
  2733  014B  2F17               u5230:
  2734  014C                     	line	846
  2735                           	
  2736                           l3123:	
  2737  014C                     ;/opt/microchip/xc8/v2.00/pic/sources/c90/common/doprnt.c: 846:    if(flag & 0x1000)
  2738                           	btfss	(printf@flag+1)^080h,(12)&7
  2739  014C  1E3B               	goto	u5241
  2740  014D  294F               	goto	u5240
  2741  014E  2950               u5241:
  2742  014F                     	goto	l3127
  2743  014F  2955               u5240:
  2744  0150                     	line	848
  2745                           	
  2746                           l3125:	
  2747  0150                     ;/opt/microchip/xc8/v2.00/pic/sources/c90/common/doprnt.c: 848:     prec = 6;
  2748                           	movlw	06h
  2749  0150  3006               	movwf	(printf@prec)^080h
  2750  0151  00C9               	movlw	0
  2751  0152  3000               	movwf	((printf@prec)^080h)+1
  2752  0153  00CA               	goto	l3127
  2753  0154  2955               	
  2754                           l205:	
  2755  0155                     	line	849
  2756                           	
  2757                           l3127:	
  2758  0155                     ;/opt/microchip/xc8/v2.00/pic/sources/c90/common/doprnt.c: 849:    fval = (*(double *)__
                                 va_arg((*(double **)ap), (double)0));
  2759                           	movf	(printf@ap)^080h,w
  2760  0155  0831               	movwf	fsr0
  2761  0156  0084               	bcf	status, 7	;select IRP bank0
  2762  0157  1383               	movf	indf,w
  2763  0158  0800               	movwf	(printf@fval)^080h
  2764  0159  00C5               	incf	fsr0,f
  2765  015A  0A84               	movf	indf,w
  2766  015B  0800               	movwf	(printf@fval+1)^080h
  2767  015C  00C6               	incf	fsr0,f
  2768  015D  0A84               	movf	indf,w
  2769  015E  0800               	movwf	(printf@fval+2)^080h
  2770  015F  00C7               	incf	fsr0,f
  2771  0160  0A84               	movf	indf,w
  2772  0161  0800               	movwf	(printf@fval+3)^080h
  2773  0162  00C8               	
  2774                           l3129:	
  2775  0163                     	movlw	low(04h)
  2776  0163  3004               	movwf	(??_printf+0)^080h+0
  2777  0164  00A8               	movf	(??_printf+0)^080h+0,w
  2778  0165  0828               	addwf	(printf@ap)^080h,f
  2779  0166  07B1               	line	850
  2780                           	
  2781                           l3131:	
  2782  0167                     ;/opt/microchip/xc8/v2.00/pic/sources/c90/common/doprnt.c: 850:    if(fval < 0.0) {
  2783                           	movf	(printf@fval+3)^080h,w
  2784  0167  0848               	movwf	(___flge@ff1+3)
  2785  0168  00F3               	movf	(printf@fval+2)^080h,w
  2786  0169  0847               	movwf	(___flge@ff1+2)
  2787  016A  00F2               	movf	(printf@fval+1)^080h,w
  2788  016B  0846               	movwf	(___flge@ff1+1)
  2789  016C  00F1               	movf	(printf@fval)^080h,w
  2790  016D  0845               	movwf	(___flge@ff1)
  2791  016E  00F0               
  2792                           	movlw	0x0
  2793  016F  3000               	movwf	(___flge@ff2+3)
  2794  0170  00F7               	movlw	0x0
  2795  0171  3000               	movwf	(___flge@ff2+2)
  2796  0172  00F6               	movlw	0x0
  2797  0173  3000               	movwf	(___flge@ff2+1)
  2798  0174  00F5               	movlw	0x0
  2799  0175  3000               	movwf	(___flge@ff2)
  2800  0176  00F4               
  2801                           	fcall	___flge
  2802  0177  160A  158A  265C  120A  118A  	btfsc	status,0
  2803  017C  1803               	goto	u5251
  2804  017D  297F               	goto	u5250
  2805  017E  2980               u5251:
  2806  017F                     	goto	l3137
  2807  017F  299E               u5250:
  2808  0180                     	line	851
  2809                           	
  2810                           l3133:	
  2811  0180                     ;/opt/microchip/xc8/v2.00/pic/sources/c90/common/doprnt.c: 851:     fval = -fval;
  2812                           	bsf	status, 5	;RP0=1, select bank1
  2813  0180  1683               	bcf	status, 6	;RP1=0, select bank1
  2814  0181  1303               	movf	(printf@fval+3)^080h,w
  2815  0182  0848               	movwf	(___flneg@f1+3)
  2816  0183  00F3               	movf	(printf@fval+2)^080h,w
  2817  0184  0847               	movwf	(___flneg@f1+2)
  2818  0185  00F2               	movf	(printf@fval+1)^080h,w
  2819  0186  0846               	movwf	(___flneg@f1+1)
  2820  0187  00F1               	movf	(printf@fval)^080h,w
  2821  0188  0845               	movwf	(___flneg@f1)
  2822  0189  00F0               
  2823                           	fcall	___flneg
  2824  018A  120A  118A  2003  120A  118A  	movf	(3+(?___flneg)),w
  2825  018F  0873               	bsf	status, 5	;RP0=1, select bank1
  2826  0190  1683               	bcf	status, 6	;RP1=0, select bank1
  2827  0191  1303               	movwf	(printf@fval+3)^080h
  2828  0192  00C8               	movf	(2+(?___flneg)),w
  2829  0193  0872               	movwf	(printf@fval+2)^080h
  2830  0194  00C7               	movf	(1+(?___flneg)),w
  2831  0195  0871               	movwf	(printf@fval+1)^080h
  2832  0196  00C6               	movf	(0+(?___flneg)),w
  2833  0197  0870               	movwf	(printf@fval)^080h
  2834  0198  00C5               
  2835                           	line	852
  2836                           	
  2837                           l3135:	
  2838  0199                     ;/opt/microchip/xc8/v2.00/pic/sources/c90/common/doprnt.c: 852:     flag |= 0x03;
  2839                           	movlw	03h
  2840  0199  3003               	iorwf	(printf@flag)^080h,f
  2841  019A  04BA               	movlw	0
  2842  019B  3000               	iorwf	(printf@flag+1)^080h,f
  2843  019C  04BB               	goto	l3137
  2844  019D  299E               	line	853
  2845                           ;/opt/microchip/xc8/v2.00/pic/sources/c90/common/doprnt.c: 853:    }
  2846                           	
  2847                           l206:	
  2848  019E                     	line	854
  2849                           	
  2850                           l3137:	
  2851  019E                     ;/opt/microchip/xc8/v2.00/pic/sources/c90/common/doprnt.c: 854:    eexp = 0;
  2852                           	bsf	status, 5	;RP0=1, select bank1
  2853  019E  1683               	bcf	status, 6	;RP1=0, select bank1
  2854  019F  1303               	clrf	(printf@eexp)^080h
  2855  01A0  01C1               	clrf	(printf@eexp+1)^080h
  2856  01A1  01C2               	line	855
  2857                           	
  2858                           l3139:	
  2859  01A2                     ;/opt/microchip/xc8/v2.00/pic/sources/c90/common/doprnt.c: 855:    if( fval!=0) {
  2860                           	movf	(printf@fval+3)^080h,w
  2861  01A2  0848               	movwf	(___fleq@ff1+3)
  2862  01A3  00F3               	movf	(printf@fval+2)^080h,w
  2863  01A4  0847               	movwf	(___fleq@ff1+2)
  2864  01A5  00F2               	movf	(printf@fval+1)^080h,w
  2865  01A6  0846               	movwf	(___fleq@ff1+1)
  2866  01A7  00F1               	movf	(printf@fval)^080h,w
  2867  01A8  0845               	movwf	(___fleq@ff1)
  2868  01A9  00F0               
  2869                           	movlw	0x0
  2870  01AA  3000               	movwf	(___fleq@ff2+3)
  2871  01AB  00F7               	movlw	0x0
  2872  01AC  3000               	movwf	(___fleq@ff2+2)
  2873  01AD  00F6               	movlw	0x0
  2874  01AE  3000               	movwf	(___fleq@ff2+1)
  2875  01AF  00F5               	movlw	0x0
  2876  01B0  3000               	movwf	(___fleq@ff2)
  2877  01B1  00F4               
  2878                           	fcall	___fleq
  2879  01B2  160A  158A  23CE  120A  118A  	btfsc	status,0
  2880  01B7  1803               	goto	u5261
  2881  01B8  29BA               	goto	u5260
  2882  01B9  29BB               u5261:
  2883  01BA                     	goto	l3165
  2884  01BA  2AB7               u5260:
  2885  01BB                     	line	856
  2886                           	
  2887                           l3141:	
  2888  01BB                     ;/opt/microchip/xc8/v2.00/pic/sources/c90/common/doprnt.c: 856:     (void)(*(&eexp) = (u
                                 nsigned char)((*(unsigned long *)&fval >> 23) & 255) - 126);
  2889                           	bsf	status, 5	;RP0=1, select bank1
  2890  01BB  1683               	bcf	status, 6	;RP1=0, select bank1
  2891  01BC  1303               	movf	(printf@fval)^080h,w
  2892  01BD  0845               	movwf	(??_printf+0)^080h+0
  2893  01BE  00A8               	movf	(printf@fval+1)^080h,w
  2894  01BF  0846               	movwf	((??_printf+0)^080h+0+1)
  2895  01C0  00A9               	movf	(printf@fval+2)^080h,w
  2896  01C1  0847               	movwf	((??_printf+0)^080h+0+2)
  2897  01C2  00AA               	movf	(printf@fval+3)^080h,w
  2898  01C3  0848               	movwf	((??_printf+0)^080h+0+3)
  2899  01C4  00AB               	clrc
  2900  01C5  1003               	rlf	(??_printf+0)^080h+2,w
  2901  01C6  0D2A               	rlf	(??_printf+0)^080h+3,w
  2902  01C7  0D2B               	addlw	low(-126)
  2903  01C8  3E82               	movwf	(printf@eexp)^080h
  2904  01C9  00C1               	movlw	high(-126)
  2905  01CA  30FF               	skipnc
  2906  01CB  1803               	movlw	(high(-126)+1)&0ffh
  2907  01CC  3000               	movwf	((printf@eexp)^080h)+1
  2908  01CD  00C2               	line	857
  2909                           	
  2910                           l3143:	
  2911  01CE                     ;/opt/microchip/xc8/v2.00/pic/sources/c90/common/doprnt.c: 857:     eexp--;
  2912                           	movlw	0FFh
  2913  01CE  30FF               	addwf	(printf@eexp)^080h,f
  2914  01CF  07C1               	skipnc
  2915  01D0  1803               	incf	(printf@eexp+1)^080h,f
  2916  01D1  0AC2               	movlw	0FFh
  2917  01D2  30FF               	addwf	(printf@eexp+1)^080h,f
  2918  01D3  07C2               	line	858
  2919                           	
  2920                           l3145:	
  2921  01D4                     ;/opt/microchip/xc8/v2.00/pic/sources/c90/common/doprnt.c: 858:     eexp *= 3;
  2922                           	movlw	03h
  2923  01D4  3003               	movwf	(___wmul@multiplier)
  2924  01D5  00F0               	movlw	0
  2925  01D6  3000               	movwf	((___wmul@multiplier))+1
  2926  01D7  00F1               	movf	(printf@eexp+1)^080h,w
  2927  01D8  0842               	movwf	(___wmul@multiplicand+1)
  2928  01D9  00F3               	movf	(printf@eexp)^080h,w
  2929  01DA  0841               	movwf	(___wmul@multiplicand)
  2930  01DB  00F2               	fcall	___wmul
  2931  01DC  160A  158A  2277  120A  118A  	movf	(1+(?___wmul)),w
  2932  01E1  0871               	bsf	status, 5	;RP0=1, select bank1
  2933  01E2  1683               	bcf	status, 6	;RP1=0, select bank1
  2934  01E3  1303               	movwf	(printf@eexp+1)^080h
  2935  01E4  00C2               	movf	(0+(?___wmul)),w
  2936  01E5  0870               	movwf	(printf@eexp)^080h
  2937  01E6  00C1               	line	859
  2938                           	
  2939                           l3147:	
  2940  01E7                     ;/opt/microchip/xc8/v2.00/pic/sources/c90/common/doprnt.c: 859:     eexp /= 10;
  2941                           	movlw	0Ah
  2942  01E7  300A               	movwf	(___awdiv@divisor)
  2943  01E8  00F7               	movlw	0
  2944  01E9  3000               	movwf	((___awdiv@divisor))+1
  2945  01EA  00F8               	movf	(printf@eexp+1)^080h,w
  2946  01EB  0842               	movwf	(___awdiv@dividend+1)
  2947  01EC  00FA               	movf	(printf@eexp)^080h,w
  2948  01ED  0841               	movwf	(___awdiv@dividend)
  2949  01EE  00F9               	fcall	___awdiv
  2950  01EF  160A  118A  201E  120A  118A  	movf	(1+(?___awdiv)),w
  2951  01F4  0878               	bsf	status, 5	;RP0=1, select bank1
  2952  01F5  1683               	bcf	status, 6	;RP1=0, select bank1
  2953  01F6  1303               	movwf	(printf@eexp+1)^080h
  2954  01F7  00C2               	movf	(0+(?___awdiv)),w
  2955  01F8  0877               	movwf	(printf@eexp)^080h
  2956  01F9  00C1               	line	860
  2957                           	
  2958                           l3149:	
  2959  01FA                     ;/opt/microchip/xc8/v2.00/pic/sources/c90/common/doprnt.c: 860:     if(eexp < 0)
  2960                           	btfss	(printf@eexp+1)^080h,7
  2961  01FA  1FC2               	goto	u5271
  2962  01FB  29FD               	goto	u5270
  2963  01FC  29FE               u5271:
  2964  01FD                     	goto	l3153
  2965  01FD  2A05               u5270:
  2966  01FE                     	line	861
  2967                           	
  2968                           l3151:	
  2969  01FE                     ;/opt/microchip/xc8/v2.00/pic/sources/c90/common/doprnt.c: 861:      eexp--;
  2970                           	movlw	0FFh
  2971  01FE  30FF               	addwf	(printf@eexp)^080h,f
  2972  01FF  07C1               	skipnc
  2973  0200  1803               	incf	(printf@eexp+1)^080h,f
  2974  0201  0AC2               	movlw	0FFh
  2975  0202  30FF               	addwf	(printf@eexp+1)^080h,f
  2976  0203  07C2               	goto	l3153
  2977  0204  2A05               	
  2978                           l208:	
  2979  0205                     	line	865
  2980                           	
  2981                           l3153:	
  2982  0205                     ;/opt/microchip/xc8/v2.00/pic/sources/c90/common/doprnt.c: 865:     tmpval.integ = scale
                                 (-eexp);
  2983                           	decf	(printf@eexp)^080h,w
  2984  0205  0341               	xorlw	0ffh
  2985  0206  3AFF               	fcall	_scale
  2986  0207  120A  158A  211C  120A  118A  	bcf	status, 5	;RP0=0, select bank0
  2987  020C  1283               	bcf	status, 6	;RP1=0, select bank0
  2988  020D  1303               	movf	(3+(?_scale)),w
  2989  020E  0841               	bsf	status, 5	;RP0=1, select bank1
  2990  020F  1683               	bcf	status, 6	;RP1=0, select bank1
  2991  0210  1303               	movwf	(printf@tmpval+3)^080h
  2992  0211  00C0               	bcf	status, 5	;RP0=0, select bank0
  2993  0212  1283               	bcf	status, 6	;RP1=0, select bank0
  2994  0213  1303               	movf	(2+(?_scale)),w
  2995  0214  0840               	bsf	status, 5	;RP0=1, select bank1
  2996  0215  1683               	bcf	status, 6	;RP1=0, select bank1
  2997  0216  1303               	movwf	(printf@tmpval+2)^080h
  2998  0217  00BF               	bcf	status, 5	;RP0=0, select bank0
  2999  0218  1283               	bcf	status, 6	;RP1=0, select bank0
  3000  0219  1303               	movf	(1+(?_scale)),w
  3001  021A  083F               	bsf	status, 5	;RP0=1, select bank1
  3002  021B  1683               	bcf	status, 6	;RP1=0, select bank1
  3003  021C  1303               	movwf	(printf@tmpval+1)^080h
  3004  021D  00BE               	bcf	status, 5	;RP0=0, select bank0
  3005  021E  1283               	bcf	status, 6	;RP1=0, select bank0
  3006  021F  1303               	movf	(0+(?_scale)),w
  3007  0220  083E               	bsf	status, 5	;RP0=1, select bank1
  3008  0221  1683               	bcf	status, 6	;RP1=0, select bank1
  3009  0222  1303               	movwf	(printf@tmpval)^080h
  3010  0223  00BD               
  3011                           	line	866
  3012                           	
  3013                           l3155:	
  3014  0224                     ;/opt/microchip/xc8/v2.00/pic/sources/c90/common/doprnt.c: 866:     tmpval.integ *= fval
                                 ;
  3015                           	movf	(printf@fval+3)^080h,w
  3016  0224  0848               	bcf	status, 5	;RP0=0, select bank0
  3017  0225  1283               	bcf	status, 6	;RP1=0, select bank0
  3018  0226  1303               	movwf	(___flmul@b+3)
  3019  0227  00A7               	bsf	status, 5	;RP0=1, select bank1
  3020  0228  1683               	bcf	status, 6	;RP1=0, select bank1
  3021  0229  1303               	movf	(printf@fval+2)^080h,w
  3022  022A  0847               	bcf	status, 5	;RP0=0, select bank0
  3023  022B  1283               	bcf	status, 6	;RP1=0, select bank0
  3024  022C  1303               	movwf	(___flmul@b+2)
  3025  022D  00A6               	bsf	status, 5	;RP0=1, select bank1
  3026  022E  1683               	bcf	status, 6	;RP1=0, select bank1
  3027  022F  1303               	movf	(printf@fval+1)^080h,w
  3028  0230  0846               	bcf	status, 5	;RP0=0, select bank0
  3029  0231  1283               	bcf	status, 6	;RP1=0, select bank0
  3030  0232  1303               	movwf	(___flmul@b+1)
  3031  0233  00A5               	bsf	status, 5	;RP0=1, select bank1
  3032  0234  1683               	bcf	status, 6	;RP1=0, select bank1
  3033  0235  1303               	movf	(printf@fval)^080h,w
  3034  0236  0845               	bcf	status, 5	;RP0=0, select bank0
  3035  0237  1283               	bcf	status, 6	;RP1=0, select bank0
  3036  0238  1303               	movwf	(___flmul@b)
  3037  0239  00A4               
  3038                           	bsf	status, 5	;RP0=1, select bank1
  3039  023A  1683               	bcf	status, 6	;RP1=0, select bank1
  3040  023B  1303               	movf	(printf@tmpval+3)^080h,w
  3041  023C  0840               	bcf	status, 5	;RP0=0, select bank0
  3042  023D  1283               	bcf	status, 6	;RP1=0, select bank0
  3043  023E  1303               	movwf	(___flmul@a+3)
  3044  023F  00AB               	bsf	status, 5	;RP0=1, select bank1
  3045  0240  1683               	bcf	status, 6	;RP1=0, select bank1
  3046  0241  1303               	movf	(printf@tmpval+2)^080h,w
  3047  0242  083F               	bcf	status, 5	;RP0=0, select bank0
  3048  0243  1283               	bcf	status, 6	;RP1=0, select bank0
  3049  0244  1303               	movwf	(___flmul@a+2)
  3050  0245  00AA               	bsf	status, 5	;RP0=1, select bank1
  3051  0246  1683               	bcf	status, 6	;RP1=0, select bank1
  3052  0247  1303               	movf	(printf@tmpval+1)^080h,w
  3053  0248  083E               	bcf	status, 5	;RP0=0, select bank0
  3054  0249  1283               	bcf	status, 6	;RP1=0, select bank0
  3055  024A  1303               	movwf	(___flmul@a+1)
  3056  024B  00A9               	bsf	status, 5	;RP0=1, select bank1
  3057  024C  1683               	bcf	status, 6	;RP1=0, select bank1
  3058  024D  1303               	movf	(printf@tmpval)^080h,w
  3059  024E  083D               	bcf	status, 5	;RP0=0, select bank0
  3060  024F  1283               	bcf	status, 6	;RP1=0, select bank0
  3061  0250  1303               	movwf	(___flmul@a)
  3062  0251  00A8               
  3063                           	fcall	___flmul
  3064  0252  120A  158A  248B  120A  118A  	bcf	status, 5	;RP0=0, select bank0
  3065  0257  1283               	bcf	status, 6	;RP1=0, select bank0
  3066  0258  1303               	movf	(3+(?___flmul)),w
  3067  0259  0827               	bsf	status, 5	;RP0=1, select bank1
  3068  025A  1683               	bcf	status, 6	;RP1=0, select bank1
  3069  025B  1303               	movwf	(printf@tmpval+3)^080h
  3070  025C  00C0               	bcf	status, 5	;RP0=0, select bank0
  3071  025D  1283               	bcf	status, 6	;RP1=0, select bank0
  3072  025E  1303               	movf	(2+(?___flmul)),w
  3073  025F  0826               	bsf	status, 5	;RP0=1, select bank1
  3074  0260  1683               	bcf	status, 6	;RP1=0, select bank1
  3075  0261  1303               	movwf	(printf@tmpval+2)^080h
  3076  0262  00BF               	bcf	status, 5	;RP0=0, select bank0
  3077  0263  1283               	bcf	status, 6	;RP1=0, select bank0
  3078  0264  1303               	movf	(1+(?___flmul)),w
  3079  0265  0825               	bsf	status, 5	;RP0=1, select bank1
  3080  0266  1683               	bcf	status, 6	;RP1=0, select bank1
  3081  0267  1303               	movwf	(printf@tmpval+1)^080h
  3082  0268  00BE               	bcf	status, 5	;RP0=0, select bank0
  3083  0269  1283               	bcf	status, 6	;RP1=0, select bank0
  3084  026A  1303               	movf	(0+(?___flmul)),w
  3085  026B  0824               	bsf	status, 5	;RP0=1, select bank1
  3086  026C  1683               	bcf	status, 6	;RP1=0, select bank1
  3087  026D  1303               	movwf	(printf@tmpval)^080h
  3088  026E  00BD               
  3089                           	line	867
  3090                           	
  3091                           l3157:	
  3092  026F                     ;/opt/microchip/xc8/v2.00/pic/sources/c90/common/doprnt.c: 867:     if(tmpval.integ < 1.
                                 0)
  3093                           	movf	(printf@tmpval+3)^080h,w
  3094  026F  0840               	movwf	(___flge@ff1+3)
  3095  0270  00F3               	movf	(printf@tmpval+2)^080h,w
  3096  0271  083F               	movwf	(___flge@ff1+2)
  3097  0272  00F2               	movf	(printf@tmpval+1)^080h,w
  3098  0273  083E               	movwf	(___flge@ff1+1)
  3099  0274  00F1               	movf	(printf@tmpval)^080h,w
  3100  0275  083D               	movwf	(___flge@ff1)
  3101  0276  00F0               
  3102                           	movlw	0x3f
  3103  0277  303F               	movwf	(___flge@ff2+3)
  3104  0278  00F7               	movlw	0x80
  3105  0279  3080               	movwf	(___flge@ff2+2)
  3106  027A  00F6               	movlw	0x0
  3107  027B  3000               	movwf	(___flge@ff2+1)
  3108  027C  00F5               	movlw	0x0
  3109  027D  3000               	movwf	(___flge@ff2)
  3110  027E  00F4               
  3111                           	fcall	___flge
  3112  027F  160A  158A  265C  120A  118A  	btfsc	status,0
  3113  0284  1803               	goto	u5281
  3114  0285  2A87               	goto	u5280
  3115  0286  2A88               u5281:
  3116  0287                     	goto	l3161
  3117  0287  2A91               u5280:
  3118  0288                     	line	868
  3119                           	
  3120                           l3159:	
  3121  0288                     ;/opt/microchip/xc8/v2.00/pic/sources/c90/common/doprnt.c: 868:      eexp--;
  3122                           	movlw	0FFh
  3123  0288  30FF               	bsf	status, 5	;RP0=1, select bank1
  3124  0289  1683               	bcf	status, 6	;RP1=0, select bank1
  3125  028A  1303               	addwf	(printf@eexp)^080h,f
  3126  028B  07C1               	skipnc
  3127  028C  1803               	incf	(printf@eexp+1)^080h,f
  3128  028D  0AC2               	movlw	0FFh
  3129  028E  30FF               	addwf	(printf@eexp+1)^080h,f
  3130  028F  07C2               	goto	l3165
  3131  0290  2AB7               	line	869
  3132                           ;/opt/microchip/xc8/v2.00/pic/sources/c90/common/doprnt.c: 869:     else if(tmpval.integ
                                  >= 10.0)
  3133                           	
  3134                           l209:	
  3135  0291                     	
  3136                           l3161:	
  3137  0291                     	bsf	status, 5	;RP0=1, select bank1
  3138  0291  1683               	bcf	status, 6	;RP1=0, select bank1
  3139  0292  1303               	movf	(printf@tmpval+3)^080h,w
  3140  0293  0840               	movwf	(___flge@ff1+3)
  3141  0294  00F3               	movf	(printf@tmpval+2)^080h,w
  3142  0295  083F               	movwf	(___flge@ff1+2)
  3143  0296  00F2               	movf	(printf@tmpval+1)^080h,w
  3144  0297  083E               	movwf	(___flge@ff1+1)
  3145  0298  00F1               	movf	(printf@tmpval)^080h,w
  3146  0299  083D               	movwf	(___flge@ff1)
  3147  029A  00F0               
  3148                           	movlw	0x41
  3149  029B  3041               	movwf	(___flge@ff2+3)
  3150  029C  00F7               	movlw	0x20
  3151  029D  3020               	movwf	(___flge@ff2+2)
  3152  029E  00F6               	movlw	0x0
  3153  029F  3000               	movwf	(___flge@ff2+1)
  3154  02A0  00F5               	movlw	0x0
  3155  02A1  3000               	movwf	(___flge@ff2)
  3156  02A2  00F4               
  3157                           	fcall	___flge
  3158  02A3  160A  158A  265C  120A  118A  	btfss	status,0
  3159  02A8  1C03               	goto	u5291
  3160  02A9  2AAB               	goto	u5290
  3161  02AA  2AAC               u5291:
  3162  02AB                     	goto	l3165
  3163  02AB  2AB7               u5290:
  3164  02AC                     	line	870
  3165                           	
  3166                           l3163:	
  3167  02AC                     ;/opt/microchip/xc8/v2.00/pic/sources/c90/common/doprnt.c: 870:      eexp++;
  3168                           	movlw	01h
  3169  02AC  3001               	bsf	status, 5	;RP0=1, select bank1
  3170  02AD  1683               	bcf	status, 6	;RP1=0, select bank1
  3171  02AE  1303               	addwf	(printf@eexp)^080h,f
  3172  02AF  07C1               	skipnc
  3173  02B0  1803               	incf	(printf@eexp+1)^080h,f
  3174  02B1  0AC2               	movlw	0
  3175  02B2  3000               	addwf	(printf@eexp+1)^080h,f
  3176  02B3  07C2               	goto	l3165
  3177  02B4  2AB7               	
  3178                           l211:	
  3179  02B5                     	goto	l3165
  3180  02B5  2AB7               	
  3181                           l210:	
  3182  02B6                     	goto	l3165
  3183  02B6  2AB7               	line	871
  3184                           ;/opt/microchip/xc8/v2.00/pic/sources/c90/common/doprnt.c: 871:    }
  3185                           	
  3186                           l207:	
  3187  02B7                     	line	1131
  3188                           	
  3189                           l3165:	
  3190  02B7                     ;/opt/microchip/xc8/v2.00/pic/sources/c90/common/doprnt.c: 1131:      if(prec <= 12)
  3191                           	bsf	status, 5	;RP0=1, select bank1
  3192  02B7  1683               	bcf	status, 6	;RP1=0, select bank1
  3193  02B8  1303               	movf	(printf@prec+1)^080h,w
  3194  02B9  084A               	xorlw	80h
  3195  02BA  3A80               	movwf	btemp+1
  3196  02BB  00FF               	movlw	(0)^80h
  3197  02BC  3080               	subwf	btemp+1,w
  3198  02BD  027F               	skipz
  3199  02BE  1D03               	goto	u5305
  3200  02BF  2AC2               	movlw	0Dh
  3201  02C0  300D               	subwf	(printf@prec)^080h,w
  3202  02C1  0249               u5305:
  3203  02C2                     
  3204                           	skipnc
  3205  02C2  1803               	goto	u5301
  3206  02C3  2AC5               	goto	u5300
  3207  02C4  2AC6               u5301:
  3208  02C5                     	goto	l3169
  3209  02C5  2B0E               u5300:
  3210  02C6                     	line	1132
  3211                           	
  3212                           l3167:	
  3213  02C6                     ;/opt/microchip/xc8/v2.00/pic/sources/c90/common/doprnt.c: 1132:       fval += fround((u
                                 nsigned int)prec);
  3214                           	bsf	status, 5	;RP0=1, select bank1
  3215  02C6  1683               	bcf	status, 6	;RP1=0, select bank1
  3216  02C7  1303               	movf	(printf@prec)^080h,w
  3217  02C8  0849               	fcall	_fround
  3218  02C9  160A  118A  2331  120A  118A  	bcf	status, 5	;RP0=0, select bank0
  3219  02CE  1283               	bcf	status, 6	;RP1=0, select bank0
  3220  02CF  1303               	movf	(3+(?_fround)),w
  3221  02D0  0841               	movwf	(___fladd@b+3)
  3222  02D1  00D5               	movf	(2+(?_fround)),w
  3223  02D2  0840               	movwf	(___fladd@b+2)
  3224  02D3  00D4               	movf	(1+(?_fround)),w
  3225  02D4  083F               	movwf	(___fladd@b+1)
  3226  02D5  00D3               	movf	(0+(?_fround)),w
  3227  02D6  083E               	movwf	(___fladd@b)
  3228  02D7  00D2               
  3229                           	bsf	status, 5	;RP0=1, select bank1
  3230  02D8  1683               	bcf	status, 6	;RP1=0, select bank1
  3231  02D9  1303               	movf	(printf@fval+3)^080h,w
  3232  02DA  0848               	bcf	status, 5	;RP0=0, select bank0
  3233  02DB  1283               	bcf	status, 6	;RP1=0, select bank0
  3234  02DC  1303               	movwf	(___fladd@a+3)
  3235  02DD  00D9               	bsf	status, 5	;RP0=1, select bank1
  3236  02DE  1683               	bcf	status, 6	;RP1=0, select bank1
  3237  02DF  1303               	movf	(printf@fval+2)^080h,w
  3238  02E0  0847               	bcf	status, 5	;RP0=0, select bank0
  3239  02E1  1283               	bcf	status, 6	;RP1=0, select bank0
  3240  02E2  1303               	movwf	(___fladd@a+2)
  3241  02E3  00D8               	bsf	status, 5	;RP0=1, select bank1
  3242  02E4  1683               	bcf	status, 6	;RP1=0, select bank1
  3243  02E5  1303               	movf	(printf@fval+1)^080h,w
  3244  02E6  0846               	bcf	status, 5	;RP0=0, select bank0
  3245  02E7  1283               	bcf	status, 6	;RP1=0, select bank0
  3246  02E8  1303               	movwf	(___fladd@a+1)
  3247  02E9  00D7               	bsf	status, 5	;RP0=1, select bank1
  3248  02EA  1683               	bcf	status, 6	;RP1=0, select bank1
  3249  02EB  1303               	movf	(printf@fval)^080h,w
  3250  02EC  0845               	bcf	status, 5	;RP0=0, select bank0
  3251  02ED  1283               	bcf	status, 6	;RP1=0, select bank0
  3252  02EE  1303               	movwf	(___fladd@a)
  3253  02EF  00D6               
  3254                           	fcall	___fladd
  3255  02F0  160A  118A  2544  120A  118A  	bcf	status, 5	;RP0=0, select bank0
  3256  02F5  1283               	bcf	status, 6	;RP1=0, select bank0
  3257  02F6  1303               	movf	(3+(?___fladd)),w
  3258  02F7  0855               	bsf	status, 5	;RP0=1, select bank1
  3259  02F8  1683               	bcf	status, 6	;RP1=0, select bank1
  3260  02F9  1303               	movwf	(printf@fval+3)^080h
  3261  02FA  00C8               	bcf	status, 5	;RP0=0, select bank0
  3262  02FB  1283               	bcf	status, 6	;RP1=0, select bank0
  3263  02FC  1303               	movf	(2+(?___fladd)),w
  3264  02FD  0854               	bsf	status, 5	;RP0=1, select bank1
  3265  02FE  1683               	bcf	status, 6	;RP1=0, select bank1
  3266  02FF  1303               	movwf	(printf@fval+2)^080h
  3267  0300  00C7               	bcf	status, 5	;RP0=0, select bank0
  3268  0301  1283               	bcf	status, 6	;RP1=0, select bank0
  3269  0302  1303               	movf	(1+(?___fladd)),w
  3270  0303  0853               	bsf	status, 5	;RP0=1, select bank1
  3271  0304  1683               	bcf	status, 6	;RP1=0, select bank1
  3272  0305  1303               	movwf	(printf@fval+1)^080h
  3273  0306  00C6               	bcf	status, 5	;RP0=0, select bank0
  3274  0307  1283               	bcf	status, 6	;RP1=0, select bank0
  3275  0308  1303               	movf	(0+(?___fladd)),w
  3276  0309  0852               	bsf	status, 5	;RP0=1, select bank1
  3277  030A  1683               	bcf	status, 6	;RP1=0, select bank1
  3278  030B  1303               	movwf	(printf@fval)^080h
  3279  030C  00C5               
  3280                           	goto	l3169
  3281  030D  2B0E               	
  3282                           l212:	
  3283  030E                     	line	1135
  3284                           	
  3285                           l3169:	
  3286  030E                     ;/opt/microchip/xc8/v2.00/pic/sources/c90/common/doprnt.c: 1135:     if((eexp > 9)||(fva
                                 l != 0 && (unsigned long)fval == 0 && eexp > 1)) {
  3287                           	bsf	status, 5	;RP0=1, select bank1
  3288  030E  1683               	bcf	status, 6	;RP1=0, select bank1
  3289  030F  1303               	movf	(printf@eexp+1)^080h,w
  3290  0310  0842               	xorlw	80h
  3291  0311  3A80               	movwf	btemp+1
  3292  0312  00FF               	movlw	(0)^80h
  3293  0313  3080               	subwf	btemp+1,w
  3294  0314  027F               	skipz
  3295  0315  1D03               	goto	u5315
  3296  0316  2B19               	movlw	0Ah
  3297  0317  300A               	subwf	(printf@eexp)^080h,w
  3298  0318  0241               u5315:
  3299  0319                     
  3300                           	skipnc
  3301  0319  1803               	goto	u5311
  3302  031A  2B1C               	goto	u5310
  3303  031B  2B1D               u5311:
  3304  031C                     	goto	l3177
  3305  031C  2B6F               u5310:
  3306  031D                     	
  3307                           l3171:	
  3308  031D                     	bsf	status, 5	;RP0=1, select bank1
  3309  031D  1683               	bcf	status, 6	;RP1=0, select bank1
  3310  031E  1303               	movf	(printf@fval+3)^080h,w
  3311  031F  0848               	movwf	(___fleq@ff1+3)
  3312  0320  00F3               	movf	(printf@fval+2)^080h,w
  3313  0321  0847               	movwf	(___fleq@ff1+2)
  3314  0322  00F2               	movf	(printf@fval+1)^080h,w
  3315  0323  0846               	movwf	(___fleq@ff1+1)
  3316  0324  00F1               	movf	(printf@fval)^080h,w
  3317  0325  0845               	movwf	(___fleq@ff1)
  3318  0326  00F0               
  3319                           	movlw	0x0
  3320  0327  3000               	movwf	(___fleq@ff2+3)
  3321  0328  00F7               	movlw	0x0
  3322  0329  3000               	movwf	(___fleq@ff2+2)
  3323  032A  00F6               	movlw	0x0
  3324  032B  3000               	movwf	(___fleq@ff2+1)
  3325  032C  00F5               	movlw	0x0
  3326  032D  3000               	movwf	(___fleq@ff2)
  3327  032E  00F4               
  3328                           	fcall	___fleq
  3329  032F  160A  158A  23CE  120A  118A  	btfsc	status,0
  3330  0334  1803               	goto	u5321
  3331  0335  2B37               	goto	u5320
  3332  0336  2B38               u5321:
  3333  0337                     	goto	l3191
  3334  0337  2C03               u5320:
  3335  0338                     	
  3336                           l3173:	
  3337  0338                     	bsf	status, 5	;RP0=1, select bank1
  3338  0338  1683               	bcf	status, 6	;RP1=0, select bank1
  3339  0339  1303               	movf	(printf@fval+3)^080h,w
  3340  033A  0848               	bcf	status, 5	;RP0=0, select bank0
  3341  033B  1283               	bcf	status, 6	;RP1=0, select bank0
  3342  033C  1303               	movwf	(___fltol@f1+3)
  3343  033D  00D4               	bsf	status, 5	;RP0=1, select bank1
  3344  033E  1683               	bcf	status, 6	;RP1=0, select bank1
  3345  033F  1303               	movf	(printf@fval+2)^080h,w
  3346  0340  0847               	bcf	status, 5	;RP0=0, select bank0
  3347  0341  1283               	bcf	status, 6	;RP1=0, select bank0
  3348  0342  1303               	movwf	(___fltol@f1+2)
  3349  0343  00D3               	bsf	status, 5	;RP0=1, select bank1
  3350  0344  1683               	bcf	status, 6	;RP1=0, select bank1
  3351  0345  1303               	movf	(printf@fval+1)^080h,w
  3352  0346  0846               	bcf	status, 5	;RP0=0, select bank0
  3353  0347  1283               	bcf	status, 6	;RP1=0, select bank0
  3354  0348  1303               	movwf	(___fltol@f1+1)
  3355  0349  00D2               	bsf	status, 5	;RP0=1, select bank1
  3356  034A  1683               	bcf	status, 6	;RP1=0, select bank1
  3357  034B  1303               	movf	(printf@fval)^080h,w
  3358  034C  0845               	bcf	status, 5	;RP0=0, select bank0
  3359  034D  1283               	bcf	status, 6	;RP1=0, select bank0
  3360  034E  1303               	movwf	(___fltol@f1)
  3361  034F  00D1               
  3362                           	fcall	___fltol
  3363  0350  120A  118A  2010  120A  118A  	bcf	status, 5	;RP0=0, select bank0
  3364  0355  1283               	bcf	status, 6	;RP1=0, select bank0
  3365  0356  1303               	movf	(3+(?___fltol)),w
  3366  0357  0854               	iorwf	(2+(?___fltol)),w
  3367  0358  0453               	iorwf	(1+(?___fltol)),w
  3368  0359  0452               	iorwf	(0+(?___fltol)),w
  3369  035A  0451               	skipz
  3370  035B  1D03               	goto	u5331
  3371  035C  2B5E               	goto	u5330
  3372  035D  2B5F               u5331:
  3373  035E                     	goto	l3191
  3374  035E  2C03               u5330:
  3375  035F                     	
  3376                           l3175:	
  3377  035F                     	bsf	status, 5	;RP0=1, select bank1
  3378  035F  1683               	bcf	status, 6	;RP1=0, select bank1
  3379  0360  1303               	movf	(printf@eexp+1)^080h,w
  3380  0361  0842               	xorlw	80h
  3381  0362  3A80               	movwf	btemp+1
  3382  0363  00FF               	movlw	(0)^80h
  3383  0364  3080               	subwf	btemp+1,w
  3384  0365  027F               	skipz
  3385  0366  1D03               	goto	u5345
  3386  0367  2B6A               	movlw	02h
  3387  0368  3002               	subwf	(printf@eexp)^080h,w
  3388  0369  0241               u5345:
  3389  036A                     
  3390                           	skipc
  3391  036A  1C03               	goto	u5341
  3392  036B  2B6D               	goto	u5340
  3393  036C  2B6E               u5341:
  3394  036D                     	goto	l3191
  3395  036D  2C03               u5340:
  3396  036E                     	goto	l3177
  3397  036E  2B6F               	
  3398                           l215:	
  3399  036F                     	line	1139
  3400                           	
  3401                           l3177:	
  3402  036F                     ;/opt/microchip/xc8/v2.00/pic/sources/c90/common/doprnt.c: 1139:      if(tmpval.integ < 
                                 4.294967296){
  3403                           	bsf	status, 5	;RP0=1, select bank1
  3404  036F  1683               	bcf	status, 6	;RP1=0, select bank1
  3405  0370  1303               	movf	(printf@tmpval+3)^080h,w
  3406  0371  0840               	movwf	(___flge@ff1+3)
  3407  0372  00F3               	movf	(printf@tmpval+2)^080h,w
  3408  0373  083F               	movwf	(___flge@ff1+2)
  3409  0374  00F2               	movf	(printf@tmpval+1)^080h,w
  3410  0375  083E               	movwf	(___flge@ff1+1)
  3411  0376  00F1               	movf	(printf@tmpval)^080h,w
  3412  0377  083D               	movwf	(___flge@ff1)
  3413  0378  00F0               
  3414                           	movlw	0x40
  3415  0379  3040               	movwf	(___flge@ff2+3)
  3416  037A  00F7               	movlw	0x89
  3417  037B  3089               	movwf	(___flge@ff2+2)
  3418  037C  00F6               	movlw	0x70
  3419  037D  3070               	movwf	(___flge@ff2+1)
  3420  037E  00F5               	movlw	0x5f
  3421  037F  305F               	movwf	(___flge@ff2)
  3422  0380  00F4               
  3423                           	fcall	___flge
  3424  0381  160A  158A  265C  120A  118A  	btfsc	status,0
  3425  0386  1803               	goto	u5351
  3426  0387  2B89               	goto	u5350
  3427  0388  2B8A               u5351:
  3428  0389                     	goto	l3181
  3429  0389  2B93               u5350:
  3430  038A                     	line	1140
  3431                           	
  3432                           l3179:	
  3433  038A                     ;/opt/microchip/xc8/v2.00/pic/sources/c90/common/doprnt.c: 1140:       eexp -= (sizeof d
                                 powers/sizeof dpowers[0])-1;
  3434                           	movlw	0F7h
  3435  038A  30F7               	bsf	status, 5	;RP0=1, select bank1
  3436  038B  1683               	bcf	status, 6	;RP1=0, select bank1
  3437  038C  1303               	addwf	(printf@eexp)^080h,f
  3438  038D  07C1               	skipnc
  3439  038E  1803               	incf	(printf@eexp+1)^080h,f
  3440  038F  0AC2               	movlw	0FFh
  3441  0390  30FF               	addwf	(printf@eexp+1)^080h,f
  3442  0391  07C2               	line	1141
  3443                           ;/opt/microchip/xc8/v2.00/pic/sources/c90/common/doprnt.c: 1141:      }else{
  3444                           	goto	l3183
  3445  0392  2B9C               	
  3446                           l216:	
  3447  0393                     	line	1142
  3448                           	
  3449                           l3181:	
  3450  0393                     ;/opt/microchip/xc8/v2.00/pic/sources/c90/common/doprnt.c: 1142:       eexp -= (sizeof d
                                 powers/sizeof dpowers[0])-2;
  3451                           	movlw	0F8h
  3452  0393  30F8               	bsf	status, 5	;RP0=1, select bank1
  3453  0394  1683               	bcf	status, 6	;RP1=0, select bank1
  3454  0395  1303               	addwf	(printf@eexp)^080h,f
  3455  0396  07C1               	skipnc
  3456  0397  1803               	incf	(printf@eexp+1)^080h,f
  3457  0398  0AC2               	movlw	0FFh
  3458  0399  30FF               	addwf	(printf@eexp+1)^080h,f
  3459  039A  07C2               	goto	l3183
  3460  039B  2B9C               	line	1143
  3461                           ;/opt/microchip/xc8/v2.00/pic/sources/c90/common/doprnt.c: 1143:      }
  3462                           	
  3463                           l217:	
  3464  039C                     	line	1144
  3465                           	
  3466                           l3183:	
  3467  039C                     ;/opt/microchip/xc8/v2.00/pic/sources/c90/common/doprnt.c: 1145:      val = ((sizeof(dou
                                 ble)== 3) ? _tdiv_to_l_(fval,tmpval.integ) : _div_to_l_(fval,tmpval.integ));
  3468                           	movf	(printf@eexp)^080h,w
  3469  039C  0841               	fcall	_scale
  3470  039D  120A  158A  211C  120A  118A  	bcf	status, 5	;RP0=0, select bank0
  3471  03A2  1283               	bcf	status, 6	;RP1=0, select bank0
  3472  03A3  1303               	movf	(3+(?_scale)),w
  3473  03A4  0841               	bsf	status, 5	;RP0=1, select bank1
  3474  03A5  1683               	bcf	status, 6	;RP1=0, select bank1
  3475  03A6  1303               	movwf	(printf@tmpval+3)^080h
  3476  03A7  00C0               	bcf	status, 5	;RP0=0, select bank0
  3477  03A8  1283               	bcf	status, 6	;RP1=0, select bank0
  3478  03A9  1303               	movf	(2+(?_scale)),w
  3479  03AA  0840               	bsf	status, 5	;RP0=1, select bank1
  3480  03AB  1683               	bcf	status, 6	;RP1=0, select bank1
  3481  03AC  1303               	movwf	(printf@tmpval+2)^080h
  3482  03AD  00BF               	bcf	status, 5	;RP0=0, select bank0
  3483  03AE  1283               	bcf	status, 6	;RP1=0, select bank0
  3484  03AF  1303               	movf	(1+(?_scale)),w
  3485  03B0  083F               	bsf	status, 5	;RP0=1, select bank1
  3486  03B1  1683               	bcf	status, 6	;RP1=0, select bank1
  3487  03B2  1303               	movwf	(printf@tmpval+1)^080h
  3488  03B3  00BE               	bcf	status, 5	;RP0=0, select bank0
  3489  03B4  1283               	bcf	status, 6	;RP1=0, select bank0
  3490  03B5  1303               	movf	(0+(?_scale)),w
  3491  03B6  083E               	bsf	status, 5	;RP0=1, select bank1
  3492  03B7  1683               	bcf	status, 6	;RP1=0, select bank1
  3493  03B8  1303               	movwf	(printf@tmpval)^080h
  3494  03B9  00BD               
  3495                           	line	1145
  3496                           	
  3497                           l3185:	
  3498  03BA                     	movf	(printf@fval+3)^080h,w
  3499  03BA  0848               	movwf	(__div_to_l_@f1+3)
  3500  03BB  00F3               	movf	(printf@fval+2)^080h,w
  3501  03BC  0847               	movwf	(__div_to_l_@f1+2)
  3502  03BD  00F2               	movf	(printf@fval+1)^080h,w
  3503  03BE  0846               	movwf	(__div_to_l_@f1+1)
  3504  03BF  00F1               	movf	(printf@fval)^080h,w
  3505  03C0  0845               	movwf	(__div_to_l_@f1)
  3506  03C1  00F0               
  3507                           	movf	(printf@tmpval+3)^080h,w
  3508  03C2  0840               	movwf	(__div_to_l_@f2+3)
  3509  03C3  00F7               	movf	(printf@tmpval+2)^080h,w
  3510  03C4  083F               	movwf	(__div_to_l_@f2+2)
  3511  03C5  00F6               	movf	(printf@tmpval+1)^080h,w
  3512  03C6  083E               	movwf	(__div_to_l_@f2+1)
  3513  03C7  00F5               	movf	(printf@tmpval)^080h,w
  3514  03C8  083D               	movwf	(__div_to_l_@f2)
  3515  03C9  00F4               
  3516                           	fcall	__div_to_l_
  3517  03CA  160A  118A  2091  120A  118A  	movf	(3+(?__div_to_l_)),w
  3518  03CF  0873               	bsf	status, 5	;RP0=1, select bank1
  3519  03D0  1683               	bcf	status, 6	;RP1=0, select bank1
  3520  03D1  1303               	movwf	(printf@val+3)^080h
  3521  03D2  00B9               	movf	(2+(?__div_to_l_)),w
  3522  03D3  0872               	movwf	(printf@val+2)^080h
  3523  03D4  00B8               	movf	(1+(?__div_to_l_)),w
  3524  03D5  0871               	movwf	(printf@val+1)^080h
  3525  03D6  00B7               	movf	(0+(?__div_to_l_)),w
  3526  03D7  0870               	movwf	(printf@val)^080h
  3527  03D8  00B6               
  3528                           	goto	l3189
  3529  03D9  2BFA               	
  3530                           l219:	
  3531  03DA                     	
  3532                           l3187:	
  3533  03DA                     	movf	(printf@fval+3)^080h,w
  3534  03DA  0848               	movwf	(__tdiv_to_l_@f1+3)
  3535  03DB  00F3               	movf	(printf@fval+2)^080h,w
  3536  03DC  0847               	movwf	(__tdiv_to_l_@f1+2)
  3537  03DD  00F2               	movf	(printf@fval+1)^080h,w
  3538  03DE  0846               	movwf	(__tdiv_to_l_@f1+1)
  3539  03DF  00F1               	movf	(printf@fval)^080h,w
  3540  03E0  0845               	movwf	(__tdiv_to_l_@f1)
  3541  03E1  00F0               
  3542                           	movf	(printf@tmpval+3)^080h,w
  3543  03E2  0840               	movwf	(__tdiv_to_l_@f2+3)
  3544  03E3  00F7               	movf	(printf@tmpval+2)^080h,w
  3545  03E4  083F               	movwf	(__tdiv_to_l_@f2+2)
  3546  03E5  00F6               	movf	(printf@tmpval+1)^080h,w
  3547  03E6  083E               	movwf	(__tdiv_to_l_@f2+1)
  3548  03E7  00F5               	movf	(printf@tmpval)^080h,w
  3549  03E8  083D               	movwf	(__tdiv_to_l_@f2)
  3550  03E9  00F4               
  3551                           	fcall	__tdiv_to_l_
  3552  03EA  160A  158A  271F  120A  118A  	movf	(3+(?__tdiv_to_l_)),w
  3553  03EF  0873               	bsf	status, 5	;RP0=1, select bank1
  3554  03F0  1683               	bcf	status, 6	;RP1=0, select bank1
  3555  03F1  1303               	movwf	(printf@val+3)^080h
  3556  03F2  00B9               	movf	(2+(?__tdiv_to_l_)),w
  3557  03F3  0872               	movwf	(printf@val+2)^080h
  3558  03F4  00B8               	movf	(1+(?__tdiv_to_l_)),w
  3559  03F5  0871               	movwf	(printf@val+1)^080h
  3560  03F6  00B7               	movf	(0+(?__tdiv_to_l_)),w
  3561  03F7  0870               	movwf	(printf@val)^080h
  3562  03F8  00B6               
  3563                           	goto	l3189
  3564  03F9  2BFA               	
  3565                           l221:	
  3566  03FA                     	line	1148
  3567                           	
  3568                           l3189:	
  3569  03FA                     ;/opt/microchip/xc8/v2.00/pic/sources/c90/common/doprnt.c: 1148:      fval = 0.0;
  3570                           	movlw	0x0
  3571  03FA  3000               	movwf	(printf@fval+3)^080h
  3572  03FB  00C8               	movlw	0x0
  3573  03FC  3000               	movwf	(printf@fval+2)^080h
  3574  03FD  00C7               	movlw	0x0
  3575  03FE  3000               	movwf	(printf@fval+1)^080h
  3576  03FF  00C6               	movlw	0x0
  3577  0400  3000               	movwf	(printf@fval)^080h
  3578  0401  00C5               
  3579                           	line	1149
  3580                           ;/opt/microchip/xc8/v2.00/pic/sources/c90/common/doprnt.c: 1149:     } else {
  3581                           	goto	l3197
  3582  0402  2C6A               	
  3583                           l213:	
  3584  0403                     	line	1150
  3585                           	
  3586                           l3191:	
  3587  0403                     ;/opt/microchip/xc8/v2.00/pic/sources/c90/common/doprnt.c: 1150:      val = (unsigned lo
                                 ng)fval;
  3588                           	bsf	status, 5	;RP0=1, select bank1
  3589  0403  1683               	bcf	status, 6	;RP1=0, select bank1
  3590  0404  1303               	movf	(printf@fval+3)^080h,w
  3591  0405  0848               	bcf	status, 5	;RP0=0, select bank0
  3592  0406  1283               	bcf	status, 6	;RP1=0, select bank0
  3593  0407  1303               	movwf	(___fltol@f1+3)
  3594  0408  00D4               	bsf	status, 5	;RP0=1, select bank1
  3595  0409  1683               	bcf	status, 6	;RP1=0, select bank1
  3596  040A  1303               	movf	(printf@fval+2)^080h,w
  3597  040B  0847               	bcf	status, 5	;RP0=0, select bank0
  3598  040C  1283               	bcf	status, 6	;RP1=0, select bank0
  3599  040D  1303               	movwf	(___fltol@f1+2)
  3600  040E  00D3               	bsf	status, 5	;RP0=1, select bank1
  3601  040F  1683               	bcf	status, 6	;RP1=0, select bank1
  3602  0410  1303               	movf	(printf@fval+1)^080h,w
  3603  0411  0846               	bcf	status, 5	;RP0=0, select bank0
  3604  0412  1283               	bcf	status, 6	;RP1=0, select bank0
  3605  0413  1303               	movwf	(___fltol@f1+1)
  3606  0414  00D2               	bsf	status, 5	;RP0=1, select bank1
  3607  0415  1683               	bcf	status, 6	;RP1=0, select bank1
  3608  0416  1303               	movf	(printf@fval)^080h,w
  3609  0417  0845               	bcf	status, 5	;RP0=0, select bank0
  3610  0418  1283               	bcf	status, 6	;RP1=0, select bank0
  3611  0419  1303               	movwf	(___fltol@f1)
  3612  041A  00D1               
  3613                           	fcall	___fltol
  3614  041B  120A  118A  2010  120A  118A  	bcf	status, 5	;RP0=0, select bank0
  3615  0420  1283               	bcf	status, 6	;RP1=0, select bank0
  3616  0421  1303               	movf	(3+(?___fltol)),w
  3617  0422  0854               	bsf	status, 5	;RP0=1, select bank1
  3618  0423  1683               	bcf	status, 6	;RP1=0, select bank1
  3619  0424  1303               	movwf	(printf@val+3)^080h
  3620  0425  00B9               	bcf	status, 5	;RP0=0, select bank0
  3621  0426  1283               	bcf	status, 6	;RP1=0, select bank0
  3622  0427  1303               	movf	(2+(?___fltol)),w
  3623  0428  0853               	bsf	status, 5	;RP0=1, select bank1
  3624  0429  1683               	bcf	status, 6	;RP1=0, select bank1
  3625  042A  1303               	movwf	(printf@val+2)^080h
  3626  042B  00B8               	bcf	status, 5	;RP0=0, select bank0
  3627  042C  1283               	bcf	status, 6	;RP1=0, select bank0
  3628  042D  1303               	movf	(1+(?___fltol)),w
  3629  042E  0852               	bsf	status, 5	;RP0=1, select bank1
  3630  042F  1683               	bcf	status, 6	;RP1=0, select bank1
  3631  0430  1303               	movwf	(printf@val+1)^080h
  3632  0431  00B7               	bcf	status, 5	;RP0=0, select bank0
  3633  0432  1283               	bcf	status, 6	;RP1=0, select bank0
  3634  0433  1303               	movf	(0+(?___fltol)),w
  3635  0434  0851               	bsf	status, 5	;RP0=1, select bank1
  3636  0435  1683               	bcf	status, 6	;RP1=0, select bank1
  3637  0436  1303               	movwf	(printf@val)^080h
  3638  0437  00B6               
  3639                           	line	1151
  3640                           	
  3641                           l3193:	
  3642  0438                     ;/opt/microchip/xc8/v2.00/pic/sources/c90/common/doprnt.c: 1151:      fval -= (double)va
                                 l;
  3643                           	movf	(printf@val+3)^080h,w
  3644  0438  0839               	movwf	(___xxtofl@val+3)
  3645  0439  00F3               	movf	(printf@val+2)^080h,w
  3646  043A  0838               	movwf	(___xxtofl@val+2)
  3647  043B  00F2               	movf	(printf@val+1)^080h,w
  3648  043C  0837               	movwf	(___xxtofl@val+1)
  3649  043D  00F1               	movf	(printf@val)^080h,w
  3650  043E  0836               	movwf	(___xxtofl@val)
  3651  043F  00F0               
  3652                           	movlw	low(0)
  3653  0440  3000               	fcall	___xxtofl
  3654  0441  160A  158A  259A  120A  118A  	movf	(3+(?___xxtofl)),w
  3655  0446  0873               	bsf	status, 5	;RP0=1, select bank1
  3656  0447  1683               	bcf	status, 6	;RP1=0, select bank1
  3657  0448  1303               	movwf	(___flsub@a+3)^080h
  3658  0449  00A3               	movf	(2+(?___xxtofl)),w
  3659  044A  0872               	movwf	(___flsub@a+2)^080h
  3660  044B  00A2               	movf	(1+(?___xxtofl)),w
  3661  044C  0871               	movwf	(___flsub@a+1)^080h
  3662  044D  00A1               	movf	(0+(?___xxtofl)),w
  3663  044E  0870               	movwf	(___flsub@a)^080h
  3664  044F  00A0               
  3665                           	movf	(printf@fval+3)^080h,w
  3666  0450  0848               	movwf	(___flsub@b+3)^080h
  3667  0451  00A7               	movf	(printf@fval+2)^080h,w
  3668  0452  0847               	movwf	(___flsub@b+2)^080h
  3669  0453  00A6               	movf	(printf@fval+1)^080h,w
  3670  0454  0846               	movwf	(___flsub@b+1)^080h
  3671  0455  00A5               	movf	(printf@fval)^080h,w
  3672  0456  0845               	movwf	(___flsub@b)^080h
  3673  0457  00A4               
  3674                           	fcall	___flsub
  3675  0458  160A  158A  241E  120A  118A  	bsf	status, 5	;RP0=1, select bank1
  3676  045D  1683               	bcf	status, 6	;RP1=0, select bank1
  3677  045E  1303               	movf	(3+(?___flsub))^080h,w
  3678  045F  0823               	movwf	(printf@fval+3)^080h
  3679  0460  00C8               	movf	(2+(?___flsub))^080h,w
  3680  0461  0822               	movwf	(printf@fval+2)^080h
  3681  0462  00C7               	movf	(1+(?___flsub))^080h,w
  3682  0463  0821               	movwf	(printf@fval+1)^080h
  3683  0464  00C6               	movf	(0+(?___flsub))^080h,w
  3684  0465  0820               	movwf	(printf@fval)^080h
  3685  0466  00C5               
  3686                           	line	1152
  3687                           	
  3688                           l3195:	
  3689  0467                     ;/opt/microchip/xc8/v2.00/pic/sources/c90/common/doprnt.c: 1152:      eexp = 0;
  3690                           	clrf	(printf@eexp)^080h
  3691  0467  01C1               	clrf	(printf@eexp+1)^080h
  3692  0468  01C2               	goto	l3197
  3693  0469  2C6A               	line	1153
  3694                           ;/opt/microchip/xc8/v2.00/pic/sources/c90/common/doprnt.c: 1153:     }
  3695                           	
  3696                           l222:	
  3697  046A                     	line	1155
  3698                           	
  3699                           l3197:	
  3700  046A                     ;/opt/microchip/xc8/v2.00/pic/sources/c90/common/doprnt.c: 1155:     for(c = 1 ; c != (s
                                 izeof dpowers/sizeof dpowers[0]) ; c++)
  3701                           	clrf	(printf@c)^080h
  3702  046A  01CB               	incf	(printf@c)^080h,f
  3703  046B  0ACB               	
  3704                           l3199:	
  3705  046C                     		movlw	10
  3706  046C  300A               	xorwf	((printf@c)^080h),w
  3707  046D  064B               	btfss	status,2
  3708  046E  1D03               	goto	u5361
  3709  046F  2C71               	goto	u5360
  3710  0470  2C72               u5361:
  3711  0471                     	goto	l3203
  3712  0471  2C74               u5360:
  3713  0472                     	goto	l3209
  3714  0472  2CB7               	
  3715                           l3201:	
  3716  0473                     	goto	l3209
  3717  0473  2CB7               	
  3718                           l223:	
  3719  0474                     	line	1156
  3720                           	
  3721                           l3203:	
  3722  0474                     ;/opt/microchip/xc8/v2.00/pic/sources/c90/common/doprnt.c: 1156:      if(val < dpowers[c
                                 ])
  3723                           	movf	(printf@c)^080h,w
  3724  0474  084B               	movwf	(??_printf+0)^080h+0
  3725  0475  00A8               	movlw	(02h)-1
  3726  0476  3001               u5375:
  3727  0477                     	clrc
  3728  0477  1003               	rlf	(??_printf+0)^080h+0,f
  3729  0478  0DA8               	addlw	-1
  3730  0479  3EFF               	skipz
  3731  047A  1D03               	goto	u5375
  3732  047B  2C77               	clrc
  3733  047C  1003               	rlf	(??_printf+0)^080h+0,w
  3734  047D  0D28               	addlw	low((((_dpowers)-__stringbase)|8000h))
  3735  047E  3E69               	movwf	fsr0
  3736  047F  0084               	fcall	stringdir
  3737  0480  160A  158A  200A  120A  118A  	movwf	((??_printf+1)^080h+0)
  3738  0485  00A9               	fcall	stringdir
  3739  0486  160A  158A  200A  120A  118A  	movwf	((??_printf+1)^080h+0+1)
  3740  048B  00AA               	fcall	stringdir
  3741  048C  160A  158A  200A  120A  118A  	movwf	((??_printf+1)^080h+0+2)
  3742  0491  00AB               	fcall	stringdir
  3743  0492  160A  158A  200A  120A  118A  	movwf	((??_printf+1)^080h+0+3)
  3744  0497  00AC               	movf	3+(??_printf+1)^080h+0,w
  3745  0498  082C               	subwf	(printf@val+3)^080h,w
  3746  0499  0239               	skipz
  3747  049A  1D03               	goto	u5385
  3748  049B  2CA6               	movf	2+(??_printf+1)^080h+0,w
  3749  049C  082B               	subwf	(printf@val+2)^080h,w
  3750  049D  0238               	skipz
  3751  049E  1D03               	goto	u5385
  3752  049F  2CA6               	movf	1+(??_printf+1)^080h+0,w
  3753  04A0  082A               	subwf	(printf@val+1)^080h,w
  3754  04A1  0237               	skipz
  3755  04A2  1D03               	goto	u5385
  3756  04A3  2CA6               	movf	0+(??_printf+1)^080h+0,w
  3757  04A4  0829               	subwf	(printf@val)^080h,w
  3758  04A5  0236               u5385:
  3759  04A6                     	skipnc
  3760  04A6  1803               	goto	u5381
  3761  04A7  2CA9               	goto	u5380
  3762  04A8  2CAA               u5381:
  3763  04A9                     	goto	l3207
  3764  04A9  2CAC               u5380:
  3765  04AA                     	goto	l3209
  3766  04AA  2CB7               	line	1157
  3767                           	
  3768                           l3205:	
  3769  04AB                     ;/opt/microchip/xc8/v2.00/pic/sources/c90/common/doprnt.c: 1157:       break;
  3770                           	goto	l3209
  3771  04AB  2CB7               	
  3772                           l225:	
  3773  04AC                     	
  3774                           l3207:	
  3775  04AC                     	movlw	low(01h)
  3776  04AC  3001               	movwf	(??_printf+0)^080h+0
  3777  04AD  00A8               	movf	(??_printf+0)^080h+0,w
  3778  04AE  0828               	addwf	(printf@c)^080h,f
  3779  04AF  07CB               		movlw	10
  3780  04B0  300A               	xorwf	((printf@c)^080h),w
  3781  04B1  064B               	btfss	status,2
  3782  04B2  1D03               	goto	u5391
  3783  04B3  2CB5               	goto	u5390
  3784  04B4  2CB6               u5391:
  3785  04B5                     	goto	l3203
  3786  04B5  2C74               u5390:
  3787  04B6                     	goto	l3209
  3788  04B6  2CB7               	
  3789                           l224:	
  3790  04B7                     	line	1161
  3791                           	
  3792                           l3209:	
  3793  04B7                     ;/opt/microchip/xc8/v2.00/pic/sources/c90/common/doprnt.c: 1161:     width -= prec + c +
                                  eexp;
  3794                           	movf	(printf@c)^080h,w
  3795  04B7  084B               	addwf	(printf@prec)^080h,w
  3796  04B8  0749               	movwf	(??_printf+0)^080h+0
  3797  04B9  00A8               	movf	(printf@prec+1)^080h,w
  3798  04BA  084A               	skipnc
  3799  04BB  1803               	incf	(printf@prec+1)^080h,w
  3800  04BC  0A4A               	movwf	((??_printf+0)^080h+0)+1
  3801  04BD  00A9               	movf	(printf@eexp)^080h,w
  3802  04BE  0841               	addwf	0+(??_printf+0)^080h+0,w
  3803  04BF  0728               	movwf	(??_printf+2)^080h+0
  3804  04C0  00AA               	movf	(printf@eexp+1)^080h,w
  3805  04C1  0842               	skipnc
  3806  04C2  1803               	incf	(printf@eexp+1)^080h,w
  3807  04C3  0A42               	addwf	1+(??_printf+0)^080h+0,w
  3808  04C4  0729               	movwf	1+(??_printf+2)^080h+0
  3809  04C5  00AB               	movf	0+(??_printf+2)^080h+0,w
  3810  04C6  082A               	subwf	(printf@width)^080h,f
  3811  04C7  02C3               	movf	1+(??_printf+2)^080h+0,w
  3812  04C8  082B               	skipc
  3813  04C9  1C03               	decf	(printf@width+1)^080h,f
  3814  04CA  03C4               	subwf	(printf@width+1)^080h,f
  3815  04CB  02C4               	line	1162
  3816                           ;/opt/microchip/xc8/v2.00/pic/sources/c90/common/doprnt.c: 1162:     if(
  3817                           	movf	((printf@prec)^080h),w
  3818  04CC  0849               iorwf	((printf@prec+1)^080h),w
  3819  04CD  044A               	btfsc	status,2
  3820  04CE  1903               	goto	u5401
  3821  04CF  2CD1               	goto	u5400
  3822  04D0  2CD2               u5401:
  3823  04D1                     	goto	l3213
  3824  04D1  2CD9               u5400:
  3825  04D2                     	line	1167
  3826                           	
  3827                           l3211:	
  3828  04D2                     ;/opt/microchip/xc8/v2.00/pic/sources/c90/common/doprnt.c: 1167:      width--;
  3829                           	movlw	0FFh
  3830  04D2  30FF               	addwf	(printf@width)^080h,f
  3831  04D3  07C3               	skipnc
  3832  04D4  1803               	incf	(printf@width+1)^080h,f
  3833  04D5  0AC4               	movlw	0FFh
  3834  04D6  30FF               	addwf	(printf@width+1)^080h,f
  3835  04D7  07C4               	goto	l3213
  3836  04D8  2CD9               	
  3837                           l226:	
  3838  04D9                     	line	1168
  3839                           	
  3840                           l3213:	
  3841  04D9                     ;/opt/microchip/xc8/v2.00/pic/sources/c90/common/doprnt.c: 1168:     if(flag & 0x03)
  3842                           	movlw	03h
  3843  04D9  3003               	andwf	(printf@flag)^080h,w
  3844  04DA  053A               	movwf	(??_printf+0)^080h+0
  3845  04DB  00A8               	movlw	0
  3846  04DC  3000               	andwf	(printf@flag+1)^080h,w
  3847  04DD  053B               	movwf	1+(??_printf+0)^080h+0
  3848  04DE  00A9               	movf	((??_printf+0)^080h+0),w
  3849  04DF  0828               iorwf	((??_printf+0)^080h+1),w
  3850  04E0  0429               	btfsc	status,2
  3851  04E1  1903               	goto	u5411
  3852  04E2  2CE4               	goto	u5410
  3853  04E3  2CE5               u5411:
  3854  04E4                     	goto	l3221
  3855  04E4  2CFC               u5410:
  3856  04E5                     	line	1169
  3857                           	
  3858                           l3215:	
  3859  04E5                     ;/opt/microchip/xc8/v2.00/pic/sources/c90/common/doprnt.c: 1169:      width--;
  3860                           	movlw	0FFh
  3861  04E5  30FF               	addwf	(printf@width)^080h,f
  3862  04E6  07C3               	skipnc
  3863  04E7  1803               	incf	(printf@width+1)^080h,f
  3864  04E8  0AC4               	movlw	0FFh
  3865  04E9  30FF               	addwf	(printf@width+1)^080h,f
  3866  04EA  07C4               	goto	l3221
  3867  04EB  2CFC               	
  3868                           l227:	
  3869  04EC                     	line	1199
  3870                           ;/opt/microchip/xc8/v2.00/pic/sources/c90/common/doprnt.c: 1194:     {;/opt/microchip/xc
                                 8/v2.00/pic/sources/c90/common/doprnt.c: 1199:      while(width > 0) {
  3871                           	goto	l3221
  3872  04EC  2CFC               	
  3873                           l229:	
  3874  04ED                     	line	1200
  3875                           	
  3876                           l3217:	
  3877  04ED                     ;/opt/microchip/xc8/v2.00/pic/sources/c90/common/doprnt.c: 1200:       (putch(' ') );
  3878                           	movlw	low(020h)
  3879  04ED  3020               	fcall	_putch
  3880  04EE  120A  158A  200D  120A  118A  	line	1201
  3881                           	
  3882                           l3219:	
  3883  04F3                     ;/opt/microchip/xc8/v2.00/pic/sources/c90/common/doprnt.c: 1201:       width--;
  3884                           	movlw	0FFh
  3885  04F3  30FF               	bsf	status, 5	;RP0=1, select bank1
  3886  04F4  1683               	bcf	status, 6	;RP1=0, select bank1
  3887  04F5  1303               	addwf	(printf@width)^080h,f
  3888  04F6  07C3               	skipnc
  3889  04F7  1803               	incf	(printf@width+1)^080h,f
  3890  04F8  0AC4               	movlw	0FFh
  3891  04F9  30FF               	addwf	(printf@width+1)^080h,f
  3892  04FA  07C4               	goto	l3221
  3893  04FB  2CFC               	line	1202
  3894                           ;/opt/microchip/xc8/v2.00/pic/sources/c90/common/doprnt.c: 1202:      }
  3895                           	
  3896                           l228:	
  3897  04FC                     	line	1199
  3898                           	
  3899                           l3221:	
  3900  04FC                     ;/opt/microchip/xc8/v2.00/pic/sources/c90/common/doprnt.c: 1199:      while(width > 0) {
                                 
  3901                           	movf	(printf@width+1)^080h,w
  3902  04FC  0844               	xorlw	80h
  3903  04FD  3A80               	movwf	btemp+1
  3904  04FE  00FF               	movlw	(0)^80h
  3905  04FF  3080               	subwf	btemp+1,w
  3906  0500  027F               	skipz
  3907  0501  1D03               	goto	u5425
  3908  0502  2D05               	movlw	01h
  3909  0503  3001               	subwf	(printf@width)^080h,w
  3910  0504  0243               u5425:
  3911  0505                     
  3912                           	skipnc
  3913  0505  1803               	goto	u5421
  3914  0506  2D08               	goto	u5420
  3915  0507  2D09               u5421:
  3916  0508                     	goto	l3217
  3917  0508  2CED               u5420:
  3918  0509                     	goto	l3223
  3919  0509  2D0A               	
  3920                           l230:	
  3921  050A                     	line	1207
  3922                           	
  3923                           l3223:	
  3924  050A                     ;/opt/microchip/xc8/v2.00/pic/sources/c90/common/doprnt.c: 1207:     if(flag & 0x03)
  3925                           	movlw	03h
  3926  050A  3003               	bsf	status, 5	;RP0=1, select bank1
  3927  050B  1683               	bcf	status, 6	;RP1=0, select bank1
  3928  050C  1303               	andwf	(printf@flag)^080h,w
  3929  050D  053A               	movwf	(??_printf+0)^080h+0
  3930  050E  00A8               	movlw	0
  3931  050F  3000               	andwf	(printf@flag+1)^080h,w
  3932  0510  053B               	movwf	1+(??_printf+0)^080h+0
  3933  0511  00A9               	movf	((??_printf+0)^080h+0),w
  3934  0512  0828               iorwf	((??_printf+0)^080h+1),w
  3935  0513  0429               	btfsc	status,2
  3936  0514  1903               	goto	u5431
  3937  0515  2D17               	goto	u5430
  3938  0516  2D18               u5431:
  3939  0517                     	goto	l3233
  3940  0517  2D84               u5430:
  3941  0518                     	line	1209
  3942                           	
  3943                           l3225:	
  3944  0518                     ;/opt/microchip/xc8/v2.00/pic/sources/c90/common/doprnt.c: 1209:      (putch('-') );
  3945                           	movlw	low(02Dh)
  3946  0518  302D               	fcall	_putch
  3947  0519  120A  158A  200D  120A  118A  	goto	l3233
  3948  051E  2D84               	
  3949                           l231:	
  3950  051F                     	line	1215
  3951                           ;/opt/microchip/xc8/v2.00/pic/sources/c90/common/doprnt.c: 1214:    };/opt/microchip/xc8
                                 /v2.00/pic/sources/c90/common/doprnt.c: 1215:    while(c--) {
  3952                           	goto	l3233
  3953  051F  2D84               	
  3954                           l233:	
  3955  0520                     	line	1220
  3956                           	
  3957                           l3227:	
  3958  0520                     ;/opt/microchip/xc8/v2.00/pic/sources/c90/common/doprnt.c: 1219:     {;/opt/microchip/xc
                                 8/v2.00/pic/sources/c90/common/doprnt.c: 1220:      tmpval.vd = val/dpowers[c];
  3959                           	bsf	status, 5	;RP0=1, select bank1
  3960  0520  1683               	bcf	status, 6	;RP1=0, select bank1
  3961  0521  1303               	movf	(printf@c)^080h,w
  3962  0522  084B               	movwf	(??_printf+0)^080h+0
  3963  0523  00A8               	movlw	(02h)-1
  3964  0524  3001               u5445:
  3965  0525                     	clrc
  3966  0525  1003               	rlf	(??_printf+0)^080h+0,f
  3967  0526  0DA8               	addlw	-1
  3968  0527  3EFF               	skipz
  3969  0528  1D03               	goto	u5445
  3970  0529  2D25               	clrc
  3971  052A  1003               	rlf	(??_printf+0)^080h+0,w
  3972  052B  0D28               	addlw	low((((_dpowers)-__stringbase)|8000h))
  3973  052C  3E69               	movwf	fsr0
  3974  052D  0084               	fcall	stringdir
  3975  052E  160A  158A  200A  120A  118A  	movwf	(___lldiv@divisor)
  3976  0533  00F0               	fcall	stringdir
  3977  0534  160A  158A  200A  120A  118A  	movwf	(___lldiv@divisor+1)
  3978  0539  00F1               	fcall	stringdir
  3979  053A  160A  158A  200A  120A  118A  	movwf	(___lldiv@divisor+2)
  3980  053F  00F2               	fcall	stringdir
  3981  0540  160A  158A  200A  120A  118A  	movwf	(___lldiv@divisor+3)
  3982  0545  00F3               	movf	(printf@val+3)^080h,w
  3983  0546  0839               	movwf	(___lldiv@dividend+3)
  3984  0547  00F7               	movf	(printf@val+2)^080h,w
  3985  0548  0838               	movwf	(___lldiv@dividend+2)
  3986  0549  00F6               	movf	(printf@val+1)^080h,w
  3987  054A  0837               	movwf	(___lldiv@dividend+1)
  3988  054B  00F5               	movf	(printf@val)^080h,w
  3989  054C  0836               	movwf	(___lldiv@dividend)
  3990  054D  00F4               
  3991                           	fcall	___lldiv
  3992  054E  160A  158A  252D  120A  118A  	movf	(3+(?___lldiv)),w
  3993  0553  0873               	bsf	status, 5	;RP0=1, select bank1
  3994  0554  1683               	bcf	status, 6	;RP1=0, select bank1
  3995  0555  1303               	movwf	(printf@tmpval+3)^080h
  3996  0556  00C0               	movf	(2+(?___lldiv)),w
  3997  0557  0872               	movwf	(printf@tmpval+2)^080h
  3998  0558  00BF               	movf	(1+(?___lldiv)),w
  3999  0559  0871               	movwf	(printf@tmpval+1)^080h
  4000  055A  00BE               	movf	(0+(?___lldiv)),w
  4001  055B  0870               	movwf	(printf@tmpval)^080h
  4002  055C  00BD               
  4003                           	line	1221
  4004                           	
  4005                           l3229:	
  4006  055D                     ;/opt/microchip/xc8/v2.00/pic/sources/c90/common/doprnt.c: 1221:      tmpval.vd %= 10;
  4007                           	movlw	0
  4008  055D  3000               	movwf	(___llmod@divisor+3)
  4009  055E  00F3               	movlw	0
  4010  055F  3000               	movwf	(___llmod@divisor+2)
  4011  0560  00F2               	movlw	0
  4012  0561  3000               	movwf	(___llmod@divisor+1)
  4013  0562  00F1               	movlw	0Ah
  4014  0563  300A               	movwf	(___llmod@divisor)
  4015  0564  00F0               
  4016                           	movf	(printf@tmpval+3)^080h,w
  4017  0565  0840               	movwf	(___llmod@dividend+3)
  4018  0566  00F7               	movf	(printf@tmpval+2)^080h,w
  4019  0567  083F               	movwf	(___llmod@dividend+2)
  4020  0568  00F6               	movf	(printf@tmpval+1)^080h,w
  4021  0569  083E               	movwf	(___llmod@dividend+1)
  4022  056A  00F5               	movf	(printf@tmpval)^080h,w
  4023  056B  083D               	movwf	(___llmod@dividend)
  4024  056C  00F4               
  4025                           	fcall	___llmod
  4026  056D  160A  158A  246F  120A  118A  	movf	(3+(?___llmod)),w
  4027  0572  0873               	bsf	status, 5	;RP0=1, select bank1
  4028  0573  1683               	bcf	status, 6	;RP1=0, select bank1
  4029  0574  1303               	movwf	(printf@tmpval+3)^080h
  4030  0575  00C0               	movf	(2+(?___llmod)),w
  4031  0576  0872               	movwf	(printf@tmpval+2)^080h
  4032  0577  00BF               	movf	(1+(?___llmod)),w
  4033  0578  0871               	movwf	(printf@tmpval+1)^080h
  4034  0579  00BE               	movf	(0+(?___llmod)),w
  4035  057A  0870               	movwf	(printf@tmpval)^080h
  4036  057B  00BD               
  4037                           	line	1222
  4038                           	
  4039                           l3231:	
  4040  057C                     ;/opt/microchip/xc8/v2.00/pic/sources/c90/common/doprnt.c: 1222:      (putch('0' + tmpva
                                 l.vd) );
  4041                           	movf	(printf@tmpval)^080h,w
  4042  057C  083D               	addlw	030h
  4043  057D  3E30               	fcall	_putch
  4044  057E  120A  158A  200D  120A  118A  	goto	l3233
  4045  0583  2D84               	line	1225
  4046                           ;/opt/microchip/xc8/v2.00/pic/sources/c90/common/doprnt.c: 1223:     };/opt/microchip/xc
                                 8/v2.00/pic/sources/c90/common/doprnt.c: 1225:    }
  4047                           	
  4048                           l232:	
  4049  0584                     	line	1215
  4050                           	
  4051                           l3233:	
  4052  0584                     ;/opt/microchip/xc8/v2.00/pic/sources/c90/common/doprnt.c: 1215:    while(c--) {
  4053                           	movlw	01h
  4054  0584  3001               	bsf	status, 5	;RP0=1, select bank1
  4055  0585  1683               	bcf	status, 6	;RP1=0, select bank1
  4056  0586  1303               	subwf	(printf@c)^080h,f
  4057  0587  02CB               		incf	(((printf@c)^080h)),w
  4058  0588  0A4B               	btfss	status,2
  4059  0589  1D03               	goto	u5451
  4060  058A  2D8C               	goto	u5450
  4061  058B  2D8D               u5451:
  4062  058C                     	goto	l3227
  4063  058C  2D20               u5450:
  4064  058D                     	goto	l3239
  4065  058D  2D9E               	
  4066                           l234:	
  4067  058E                     	line	1226
  4068                           ;/opt/microchip/xc8/v2.00/pic/sources/c90/common/doprnt.c: 1226:    while(eexp > 0) {
  4069                           	goto	l3239
  4070  058E  2D9E               	
  4071                           l236:	
  4072  058F                     	line	1227
  4073                           	
  4074                           l3235:	
  4075  058F                     ;/opt/microchip/xc8/v2.00/pic/sources/c90/common/doprnt.c: 1227:     (putch('0') );
  4076                           	movlw	low(030h)
  4077  058F  3030               	fcall	_putch
  4078  0590  120A  158A  200D  120A  118A  	line	1228
  4079                           	
  4080                           l3237:	
  4081  0595                     ;/opt/microchip/xc8/v2.00/pic/sources/c90/common/doprnt.c: 1228:     eexp--;
  4082                           	movlw	0FFh
  4083  0595  30FF               	bsf	status, 5	;RP0=1, select bank1
  4084  0596  1683               	bcf	status, 6	;RP1=0, select bank1
  4085  0597  1303               	addwf	(printf@eexp)^080h,f
  4086  0598  07C1               	skipnc
  4087  0599  1803               	incf	(printf@eexp+1)^080h,f
  4088  059A  0AC2               	movlw	0FFh
  4089  059B  30FF               	addwf	(printf@eexp+1)^080h,f
  4090  059C  07C2               	goto	l3239
  4091  059D  2D9E               	line	1229
  4092                           ;/opt/microchip/xc8/v2.00/pic/sources/c90/common/doprnt.c: 1229:    }
  4093                           	
  4094                           l235:	
  4095  059E                     	line	1226
  4096                           	
  4097                           l3239:	
  4098  059E                     ;/opt/microchip/xc8/v2.00/pic/sources/c90/common/doprnt.c: 1226:    while(eexp > 0) {
  4099                           	movf	(printf@eexp+1)^080h,w
  4100  059E  0842               	xorlw	80h
  4101  059F  3A80               	movwf	btemp+1
  4102  05A0  00FF               	movlw	(0)^80h
  4103  05A1  3080               	subwf	btemp+1,w
  4104  05A2  027F               	skipz
  4105  05A3  1D03               	goto	u5465
  4106  05A4  2DA7               	movlw	01h
  4107  05A5  3001               	subwf	(printf@eexp)^080h,w
  4108  05A6  0241               u5465:
  4109  05A7                     
  4110                           	skipnc
  4111  05A7  1803               	goto	u5461
  4112  05A8  2DAA               	goto	u5460
  4113  05A9  2DAB               u5461:
  4114  05AA                     	goto	l3235
  4115  05AA  2D8F               u5460:
  4116  05AB                     	goto	l3241
  4117  05AB  2DAC               	
  4118                           l237:	
  4119  05AC                     	line	1230
  4120                           	
  4121                           l3241:	
  4122  05AC                     ;/opt/microchip/xc8/v2.00/pic/sources/c90/common/doprnt.c: 1230:    if(prec > (int)((siz
                                 eof dpowers/sizeof dpowers[0])-2))
  4123                           	bsf	status, 5	;RP0=1, select bank1
  4124  05AC  1683               	bcf	status, 6	;RP1=0, select bank1
  4125  05AD  1303               	movf	(printf@prec+1)^080h,w
  4126  05AE  084A               	xorlw	80h
  4127  05AF  3A80               	movwf	btemp+1
  4128  05B0  00FF               	movlw	(0)^80h
  4129  05B1  3080               	subwf	btemp+1,w
  4130  05B2  027F               	skipz
  4131  05B3  1D03               	goto	u5475
  4132  05B4  2DB7               	movlw	09h
  4133  05B5  3009               	subwf	(printf@prec)^080h,w
  4134  05B6  0249               u5475:
  4135  05B7                     
  4136                           	skipc
  4137  05B7  1C03               	goto	u5471
  4138  05B8  2DBA               	goto	u5470
  4139  05B9  2DBB               u5471:
  4140  05BA                     	goto	l3245
  4141  05BA  2DC2               u5470:
  4142  05BB                     	line	1231
  4143                           	
  4144                           l3243:	
  4145  05BB                     ;/opt/microchip/xc8/v2.00/pic/sources/c90/common/doprnt.c: 1231:     c = (sizeof dpowers
                                 /sizeof dpowers[0])-2;
  4146                           	movlw	low(08h)
  4147  05BB  3008               	bsf	status, 5	;RP0=1, select bank1
  4148  05BC  1683               	bcf	status, 6	;RP1=0, select bank1
  4149  05BD  1303               	movwf	(??_printf+0)^080h+0
  4150  05BE  00A8               	movf	(??_printf+0)^080h+0,w
  4151  05BF  0828               	movwf	(printf@c)^080h
  4152  05C0  00CB               	goto	l239
  4153  05C1  2DC8               	line	1232
  4154                           ;/opt/microchip/xc8/v2.00/pic/sources/c90/common/doprnt.c: 1232:    else
  4155                           	
  4156                           l238:	
  4157  05C2                     	line	1233
  4158                           	
  4159                           l3245:	
  4160  05C2                     ;/opt/microchip/xc8/v2.00/pic/sources/c90/common/doprnt.c: 1233:     c = (char)prec;
  4161                           	bsf	status, 5	;RP0=1, select bank1
  4162  05C2  1683               	bcf	status, 6	;RP1=0, select bank1
  4163  05C3  1303               	movf	(printf@prec)^080h,w
  4164  05C4  0849               	movwf	(??_printf+0)^080h+0
  4165  05C5  00A8               	movf	(??_printf+0)^080h+0,w
  4166  05C6  0828               	movwf	(printf@c)^080h
  4167  05C7  00CB               	
  4168                           l239:	
  4169  05C8                     	line	1234
  4170                           ;/opt/microchip/xc8/v2.00/pic/sources/c90/common/doprnt.c: 1234:    prec -= (int)c;
  4171                           	movf	(printf@c)^080h,w
  4172  05C8  084B               	movwf	(??_printf+0)^080h+0
  4173  05C9  00A8               	clrf	(??_printf+0)^080h+0+1
  4174  05CA  01A9               	movf	0+(??_printf+0)^080h+0,w
  4175  05CB  0828               	subwf	(printf@prec)^080h,f
  4176  05CC  02C9               	movf	1+(??_printf+0)^080h+0,w
  4177  05CD  0829               	skipc
  4178  05CE  1C03               	decf	(printf@prec+1)^080h,f
  4179  05CF  03CA               	subwf	(printf@prec+1)^080h,f
  4180  05D0  02CA               	line	1238
  4181                           	
  4182                           l3247:	
  4183  05D1                     ;/opt/microchip/xc8/v2.00/pic/sources/c90/common/doprnt.c: 1238:    if(c)
  4184                           	movf	((printf@c)^080h),w
  4185  05D1  084B               	btfsc	status,2
  4186  05D2  1903               	goto	u5481
  4187  05D3  2DD5               	goto	u5480
  4188  05D4  2DD6               u5481:
  4189  05D5                     	goto	l3251
  4190  05D5  2DDD               u5480:
  4191  05D6                     	line	1240
  4192                           	
  4193                           l3249:	
  4194  05D6                     ;/opt/microchip/xc8/v2.00/pic/sources/c90/common/doprnt.c: 1240:     (putch('.') );
  4195                           	movlw	low(02Eh)
  4196  05D6  302E               	fcall	_putch
  4197  05D7  120A  158A  200D  120A  118A  	goto	l3251
  4198  05DC  2DDD               	
  4199                           l240:	
  4200  05DD                     	line	1246
  4201                           	
  4202                           l3251:	
  4203  05DD                     ;/opt/microchip/xc8/v2.00/pic/sources/c90/common/doprnt.c: 1246:    val = (unsigned long
                                 )(fval * scale((signed char)c));
  4204                           	bsf	status, 5	;RP0=1, select bank1
  4205  05DD  1683               	bcf	status, 6	;RP1=0, select bank1
  4206  05DE  1303               	movf	(printf@c)^080h,w
  4207  05DF  084B               	fcall	_scale
  4208  05E0  120A  158A  211C  120A  118A  	bcf	status, 5	;RP0=0, select bank0
  4209  05E5  1283               	bcf	status, 6	;RP1=0, select bank0
  4210  05E6  1303               	movf	(3+(?_scale)),w
  4211  05E7  0841               	bsf	status, 5	;RP0=1, select bank1
  4212  05E8  1683               	bcf	status, 6	;RP1=0, select bank1
  4213  05E9  1303               	movwf	(_printf$879+3)^080h
  4214  05EA  00B0               	bcf	status, 5	;RP0=0, select bank0
  4215  05EB  1283               	bcf	status, 6	;RP1=0, select bank0
  4216  05EC  1303               	movf	(2+(?_scale)),w
  4217  05ED  0840               	bsf	status, 5	;RP0=1, select bank1
  4218  05EE  1683               	bcf	status, 6	;RP1=0, select bank1
  4219  05EF  1303               	movwf	(_printf$879+2)^080h
  4220  05F0  00AF               	bcf	status, 5	;RP0=0, select bank0
  4221  05F1  1283               	bcf	status, 6	;RP1=0, select bank0
  4222  05F2  1303               	movf	(1+(?_scale)),w
  4223  05F3  083F               	bsf	status, 5	;RP0=1, select bank1
  4224  05F4  1683               	bcf	status, 6	;RP1=0, select bank1
  4225  05F5  1303               	movwf	(_printf$879+1)^080h
  4226  05F6  00AE               	bcf	status, 5	;RP0=0, select bank0
  4227  05F7  1283               	bcf	status, 6	;RP1=0, select bank0
  4228  05F8  1303               	movf	(0+(?_scale)),w
  4229  05F9  083E               	bsf	status, 5	;RP0=1, select bank1
  4230  05FA  1683               	bcf	status, 6	;RP1=0, select bank1
  4231  05FB  1303               	movwf	(_printf$879)^080h
  4232  05FC  00AD               
  4233                           	
  4234                           l3253:	
  4235  05FD                     ;/opt/microchip/xc8/v2.00/pic/sources/c90/common/doprnt.c: 1246:    val = (unsigned long
                                 )(fval * scale((signed char)c));
  4236                           	movf	(_printf$879+3)^080h,w
  4237  05FD  0830               	bcf	status, 5	;RP0=0, select bank0
  4238  05FE  1283               	bcf	status, 6	;RP1=0, select bank0
  4239  05FF  1303               	movwf	(___flmul@a+3)
  4240  0600  00AB               	bsf	status, 5	;RP0=1, select bank1
  4241  0601  1683               	bcf	status, 6	;RP1=0, select bank1
  4242  0602  1303               	movf	(_printf$879+2)^080h,w
  4243  0603  082F               	bcf	status, 5	;RP0=0, select bank0
  4244  0604  1283               	bcf	status, 6	;RP1=0, select bank0
  4245  0605  1303               	movwf	(___flmul@a+2)
  4246  0606  00AA               	bsf	status, 5	;RP0=1, select bank1
  4247  0607  1683               	bcf	status, 6	;RP1=0, select bank1
  4248  0608  1303               	movf	(_printf$879+1)^080h,w
  4249  0609  082E               	bcf	status, 5	;RP0=0, select bank0
  4250  060A  1283               	bcf	status, 6	;RP1=0, select bank0
  4251  060B  1303               	movwf	(___flmul@a+1)
  4252  060C  00A9               	bsf	status, 5	;RP0=1, select bank1
  4253  060D  1683               	bcf	status, 6	;RP1=0, select bank1
  4254  060E  1303               	movf	(_printf$879)^080h,w
  4255  060F  082D               	bcf	status, 5	;RP0=0, select bank0
  4256  0610  1283               	bcf	status, 6	;RP1=0, select bank0
  4257  0611  1303               	movwf	(___flmul@a)
  4258  0612  00A8               
  4259                           	bsf	status, 5	;RP0=1, select bank1
  4260  0613  1683               	bcf	status, 6	;RP1=0, select bank1
  4261  0614  1303               	movf	(printf@fval+3)^080h,w
  4262  0615  0848               	bcf	status, 5	;RP0=0, select bank0
  4263  0616  1283               	bcf	status, 6	;RP1=0, select bank0
  4264  0617  1303               	movwf	(___flmul@b+3)
  4265  0618  00A7               	bsf	status, 5	;RP0=1, select bank1
  4266  0619  1683               	bcf	status, 6	;RP1=0, select bank1
  4267  061A  1303               	movf	(printf@fval+2)^080h,w
  4268  061B  0847               	bcf	status, 5	;RP0=0, select bank0
  4269  061C  1283               	bcf	status, 6	;RP1=0, select bank0
  4270  061D  1303               	movwf	(___flmul@b+2)
  4271  061E  00A6               	bsf	status, 5	;RP0=1, select bank1
  4272  061F  1683               	bcf	status, 6	;RP1=0, select bank1
  4273  0620  1303               	movf	(printf@fval+1)^080h,w
  4274  0621  0846               	bcf	status, 5	;RP0=0, select bank0
  4275  0622  1283               	bcf	status, 6	;RP1=0, select bank0
  4276  0623  1303               	movwf	(___flmul@b+1)
  4277  0624  00A5               	bsf	status, 5	;RP0=1, select bank1
  4278  0625  1683               	bcf	status, 6	;RP1=0, select bank1
  4279  0626  1303               	movf	(printf@fval)^080h,w
  4280  0627  0845               	bcf	status, 5	;RP0=0, select bank0
  4281  0628  1283               	bcf	status, 6	;RP1=0, select bank0
  4282  0629  1303               	movwf	(___flmul@b)
  4283  062A  00A4               
  4284                           	fcall	___flmul
  4285  062B  120A  158A  248B  120A  118A  	bcf	status, 5	;RP0=0, select bank0
  4286  0630  1283               	bcf	status, 6	;RP1=0, select bank0
  4287  0631  1303               	movf	(3+(?___flmul)),w
  4288  0632  0827               	movwf	(___fltol@f1+3)
  4289  0633  00D4               	movf	(2+(?___flmul)),w
  4290  0634  0826               	movwf	(___fltol@f1+2)
  4291  0635  00D3               	movf	(1+(?___flmul)),w
  4292  0636  0825               	movwf	(___fltol@f1+1)
  4293  0637  00D2               	movf	(0+(?___flmul)),w
  4294  0638  0824               	movwf	(___fltol@f1)
  4295  0639  00D1               
  4296                           	fcall	___fltol
  4297  063A  120A  118A  2010  120A  118A  	bcf	status, 5	;RP0=0, select bank0
  4298  063F  1283               	bcf	status, 6	;RP1=0, select bank0
  4299  0640  1303               	movf	(3+(?___fltol)),w
  4300  0641  0854               	bsf	status, 5	;RP0=1, select bank1
  4301  0642  1683               	bcf	status, 6	;RP1=0, select bank1
  4302  0643  1303               	movwf	(printf@val+3)^080h
  4303  0644  00B9               	bcf	status, 5	;RP0=0, select bank0
  4304  0645  1283               	bcf	status, 6	;RP1=0, select bank0
  4305  0646  1303               	movf	(2+(?___fltol)),w
  4306  0647  0853               	bsf	status, 5	;RP0=1, select bank1
  4307  0648  1683               	bcf	status, 6	;RP1=0, select bank1
  4308  0649  1303               	movwf	(printf@val+2)^080h
  4309  064A  00B8               	bcf	status, 5	;RP0=0, select bank0
  4310  064B  1283               	bcf	status, 6	;RP1=0, select bank0
  4311  064C  1303               	movf	(1+(?___fltol)),w
  4312  064D  0852               	bsf	status, 5	;RP0=1, select bank1
  4313  064E  1683               	bcf	status, 6	;RP1=0, select bank1
  4314  064F  1303               	movwf	(printf@val+1)^080h
  4315  0650  00B7               	bcf	status, 5	;RP0=0, select bank0
  4316  0651  1283               	bcf	status, 6	;RP1=0, select bank0
  4317  0652  1303               	movf	(0+(?___fltol)),w
  4318  0653  0851               	bsf	status, 5	;RP0=1, select bank1
  4319  0654  1683               	bcf	status, 6	;RP1=0, select bank1
  4320  0655  1303               	movwf	(printf@val)^080h
  4321  0656  00B6               
  4322                           	line	1247
  4323                           ;/opt/microchip/xc8/v2.00/pic/sources/c90/common/doprnt.c: 1247:    while(c--) {
  4324                           	goto	l3261
  4325  0657  2EF7               	
  4326                           l242:	
  4327  0658                     	line	1248
  4328                           	
  4329                           l3255:	
  4330  0658                     ;/opt/microchip/xc8/v2.00/pic/sources/c90/common/doprnt.c: 1248:     tmpval.vd = val/dpo
                                 wers[c];
  4331                           	movf	(printf@c)^080h,w
  4332  0658  084B               	movwf	(??_printf+0)^080h+0
  4333  0659  00A8               	movlw	(02h)-1
  4334  065A  3001               u5495:
  4335  065B                     	clrc
  4336  065B  1003               	rlf	(??_printf+0)^080h+0,f
  4337  065C  0DA8               	addlw	-1
  4338  065D  3EFF               	skipz
  4339  065E  1D03               	goto	u5495
  4340  065F  2E5B               	clrc
  4341  0660  1003               	rlf	(??_printf+0)^080h+0,w
  4342  0661  0D28               	addlw	low((((_dpowers)-__stringbase)|8000h))
  4343  0662  3E69               	movwf	fsr0
  4344  0663  0084               	fcall	stringdir
  4345  0664  160A  158A  200A  120A  118A  	movwf	(___lldiv@divisor)
  4346  0669  00F0               	fcall	stringdir
  4347  066A  160A  158A  200A  120A  118A  	movwf	(___lldiv@divisor+1)
  4348  066F  00F1               	fcall	stringdir
  4349  0670  160A  158A  200A  120A  118A  	movwf	(___lldiv@divisor+2)
  4350  0675  00F2               	fcall	stringdir
  4351  0676  160A  158A  200A  120A  118A  	movwf	(___lldiv@divisor+3)
  4352  067B  00F3               	movf	(printf@val+3)^080h,w
  4353  067C  0839               	movwf	(___lldiv@dividend+3)
  4354  067D  00F7               	movf	(printf@val+2)^080h,w
  4355  067E  0838               	movwf	(___lldiv@dividend+2)
  4356  067F  00F6               	movf	(printf@val+1)^080h,w
  4357  0680  0837               	movwf	(___lldiv@dividend+1)
  4358  0681  00F5               	movf	(printf@val)^080h,w
  4359  0682  0836               	movwf	(___lldiv@dividend)
  4360  0683  00F4               
  4361                           	fcall	___lldiv
  4362  0684  160A  158A  252D  120A  118A  	movf	(3+(?___lldiv)),w
  4363  0689  0873               	bsf	status, 5	;RP0=1, select bank1
  4364  068A  1683               	bcf	status, 6	;RP1=0, select bank1
  4365  068B  1303               	movwf	(printf@tmpval+3)^080h
  4366  068C  00C0               	movf	(2+(?___lldiv)),w
  4367  068D  0872               	movwf	(printf@tmpval+2)^080h
  4368  068E  00BF               	movf	(1+(?___lldiv)),w
  4369  068F  0871               	movwf	(printf@tmpval+1)^080h
  4370  0690  00BE               	movf	(0+(?___lldiv)),w
  4371  0691  0870               	movwf	(printf@tmpval)^080h
  4372  0692  00BD               
  4373                           	line	1249
  4374                           	
  4375                           l3257:	
  4376  0693                     ;/opt/microchip/xc8/v2.00/pic/sources/c90/common/doprnt.c: 1249:     tmpval.vd %= 10;
  4377                           	movlw	0
  4378  0693  3000               	movwf	(___llmod@divisor+3)
  4379  0694  00F3               	movlw	0
  4380  0695  3000               	movwf	(___llmod@divisor+2)
  4381  0696  00F2               	movlw	0
  4382  0697  3000               	movwf	(___llmod@divisor+1)
  4383  0698  00F1               	movlw	0Ah
  4384  0699  300A               	movwf	(___llmod@divisor)
  4385  069A  00F0               
  4386                           	movf	(printf@tmpval+3)^080h,w
  4387  069B  0840               	movwf	(___llmod@dividend+3)
  4388  069C  00F7               	movf	(printf@tmpval+2)^080h,w
  4389  069D  083F               	movwf	(___llmod@dividend+2)
  4390  069E  00F6               	movf	(printf@tmpval+1)^080h,w
  4391  069F  083E               	movwf	(___llmod@dividend+1)
  4392  06A0  00F5               	movf	(printf@tmpval)^080h,w
  4393  06A1  083D               	movwf	(___llmod@dividend)
  4394  06A2  00F4               
  4395                           	fcall	___llmod
  4396  06A3  160A  158A  246F  120A  118A  	movf	(3+(?___llmod)),w
  4397  06A8  0873               	bsf	status, 5	;RP0=1, select bank1
  4398  06A9  1683               	bcf	status, 6	;RP1=0, select bank1
  4399  06AA  1303               	movwf	(printf@tmpval+3)^080h
  4400  06AB  00C0               	movf	(2+(?___llmod)),w
  4401  06AC  0872               	movwf	(printf@tmpval+2)^080h
  4402  06AD  00BF               	movf	(1+(?___llmod)),w
  4403  06AE  0871               	movwf	(printf@tmpval+1)^080h
  4404  06AF  00BE               	movf	(0+(?___llmod)),w
  4405  06B0  0870               	movwf	(printf@tmpval)^080h
  4406  06B1  00BD               
  4407                           	line	1250
  4408                           	
  4409                           l3259:	
  4410  06B2                     ;/opt/microchip/xc8/v2.00/pic/sources/c90/common/doprnt.c: 1250:     (putch('0' + tmpval
                                 .vd) );
  4411                           	movf	(printf@tmpval)^080h,w
  4412  06B2  083D               	addlw	030h
  4413  06B3  3E30               	fcall	_putch
  4414  06B4  120A  158A  200D  120A  118A  	line	1251
  4415                           ;/opt/microchip/xc8/v2.00/pic/sources/c90/common/doprnt.c: 1251:     val %= dpowers[c];

  4416                           	bsf	status, 5	;RP0=1, select bank1
  4417  06B9  1683               	bcf	status, 6	;RP1=0, select bank1
  4418  06BA  1303               	movf	(printf@c)^080h,w
  4419  06BB  084B               	movwf	(??_printf+0)^080h+0
  4420  06BC  00A8               	movlw	(02h)-1
  4421  06BD  3001               u5505:
  4422  06BE                     	clrc
  4423  06BE  1003               	rlf	(??_printf+0)^080h+0,f
  4424  06BF  0DA8               	addlw	-1
  4425  06C0  3EFF               	skipz
  4426  06C1  1D03               	goto	u5505
  4427  06C2  2EBE               	clrc
  4428  06C3  1003               	rlf	(??_printf+0)^080h+0,w
  4429  06C4  0D28               	addlw	low((((_dpowers)-__stringbase)|8000h))
  4430  06C5  3E69               	movwf	fsr0
  4431  06C6  0084               	fcall	stringdir
  4432  06C7  160A  158A  200A  120A  118A  	movwf	(___llmod@divisor)
  4433  06CC  00F0               	fcall	stringdir
  4434  06CD  160A  158A  200A  120A  118A  	movwf	(___llmod@divisor+1)
  4435  06D2  00F1               	fcall	stringdir
  4436  06D3  160A  158A  200A  120A  118A  	movwf	(___llmod@divisor+2)
  4437  06D8  00F2               	fcall	stringdir
  4438  06D9  160A  158A  200A  120A  118A  	movwf	(___llmod@divisor+3)
  4439  06DE  00F3               	movf	(printf@val+3)^080h,w
  4440  06DF  0839               	movwf	(___llmod@dividend+3)
  4441  06E0  00F7               	movf	(printf@val+2)^080h,w
  4442  06E1  0838               	movwf	(___llmod@dividend+2)
  4443  06E2  00F6               	movf	(printf@val+1)^080h,w
  4444  06E3  0837               	movwf	(___llmod@dividend+1)
  4445  06E4  00F5               	movf	(printf@val)^080h,w
  4446  06E5  0836               	movwf	(___llmod@dividend)
  4447  06E6  00F4               
  4448                           	fcall	___llmod
  4449  06E7  160A  158A  246F  120A  118A  	movf	(3+(?___llmod)),w
  4450  06EC  0873               	bsf	status, 5	;RP0=1, select bank1
  4451  06ED  1683               	bcf	status, 6	;RP1=0, select bank1
  4452  06EE  1303               	movwf	(printf@val+3)^080h
  4453  06EF  00B9               	movf	(2+(?___llmod)),w
  4454  06F0  0872               	movwf	(printf@val+2)^080h
  4455  06F1  00B8               	movf	(1+(?___llmod)),w
  4456  06F2  0871               	movwf	(printf@val+1)^080h
  4457  06F3  00B7               	movf	(0+(?___llmod)),w
  4458  06F4  0870               	movwf	(printf@val)^080h
  4459  06F5  00B6               
  4460                           	goto	l3261
  4461  06F6  2EF7               	line	1252
  4462                           ;/opt/microchip/xc8/v2.00/pic/sources/c90/common/doprnt.c: 1252:    }
  4463                           	
  4464                           l241:	
  4465  06F7                     	line	1247
  4466                           	
  4467                           l3261:	
  4468  06F7                     ;/opt/microchip/xc8/v2.00/pic/sources/c90/common/doprnt.c: 1247:    while(c--) {
  4469                           	movlw	01h
  4470  06F7  3001               	subwf	(printf@c)^080h,f
  4471  06F8  02CB               		incf	(((printf@c)^080h)),w
  4472  06F9  0A4B               	btfss	status,2
  4473  06FA  1D03               	goto	u5511
  4474  06FB  2EFD               	goto	u5510
  4475  06FC  2EFE               u5511:
  4476  06FD                     	goto	l3255
  4477  06FD  2E58               u5510:
  4478  06FE                     	goto	l3267
  4479  06FE  2F0F               	
  4480                           l243:	
  4481  06FF                     	line	1254
  4482                           ;/opt/microchip/xc8/v2.00/pic/sources/c90/common/doprnt.c: 1254:    while(prec) {
  4483                           	goto	l3267
  4484  06FF  2F0F               	
  4485                           l245:	
  4486  0700                     	line	1255
  4487                           	
  4488                           l3263:	
  4489  0700                     ;/opt/microchip/xc8/v2.00/pic/sources/c90/common/doprnt.c: 1255:     (putch('0') );
  4490                           	movlw	low(030h)
  4491  0700  3030               	fcall	_putch
  4492  0701  120A  158A  200D  120A  118A  	line	1256
  4493                           	
  4494                           l3265:	
  4495  0706                     ;/opt/microchip/xc8/v2.00/pic/sources/c90/common/doprnt.c: 1256:     prec--;
  4496                           	movlw	0FFh
  4497  0706  30FF               	bsf	status, 5	;RP0=1, select bank1
  4498  0707  1683               	bcf	status, 6	;RP1=0, select bank1
  4499  0708  1303               	addwf	(printf@prec)^080h,f
  4500  0709  07C9               	skipnc
  4501  070A  1803               	incf	(printf@prec+1)^080h,f
  4502  070B  0ACA               	movlw	0FFh
  4503  070C  30FF               	addwf	(printf@prec+1)^080h,f
  4504  070D  07CA               	goto	l3267
  4505  070E  2F0F               	line	1257
  4506                           ;/opt/microchip/xc8/v2.00/pic/sources/c90/common/doprnt.c: 1257:    }
  4507                           	
  4508                           l244:	
  4509  070F                     	line	1254
  4510                           	
  4511                           l3267:	
  4512  070F                     ;/opt/microchip/xc8/v2.00/pic/sources/c90/common/doprnt.c: 1254:    while(prec) {
  4513                           	movf	((printf@prec)^080h),w
  4514  070F  0849               iorwf	((printf@prec+1)^080h),w
  4515  0710  044A               	btfss	status,2
  4516  0711  1D03               	goto	u5521
  4517  0712  2F14               	goto	u5520
  4518  0713  2F15               u5521:
  4519  0714                     	goto	l3263
  4520  0714  2F00               u5520:
  4521  0715                     	goto	l3311
  4522  0715  2FE0               	
  4523                           l246:	
  4524  0716                     	line	1264
  4525                           ;/opt/microchip/xc8/v2.00/pic/sources/c90/common/doprnt.c: 1264:    continue;
  4526                           	goto	l3311
  4527  0716  2FE0               	line	1265
  4528                           ;/opt/microchip/xc8/v2.00/pic/sources/c90/common/doprnt.c: 1265:   }
  4529                           	
  4530                           l204:	
  4531  0717                     	line	1309
  4532                           	
  4533                           l3269:	
  4534  0717                     ;/opt/microchip/xc8/v2.00/pic/sources/c90/common/doprnt.c: 1309:   if(prec == 0 && val =
                                 = 0)
  4535                           	movf	((printf@prec)^080h),w
  4536  0717  0849               iorwf	((printf@prec+1)^080h),w
  4537  0718  044A               	btfss	status,2
  4538  0719  1D03               	goto	u5531
  4539  071A  2F1C               	goto	u5530
  4540  071B  2F1D               u5531:
  4541  071C                     	goto	l247
  4542  071C  2F2B               u5530:
  4543  071D                     	
  4544                           l3271:	
  4545  071D                     	movf	(printf@val+3)^080h,w
  4546  071D  0839               	iorwf	(printf@val+2)^080h,w
  4547  071E  0438               	iorwf	(printf@val+1)^080h,w
  4548  071F  0437               	iorwf	(printf@val)^080h,w
  4549  0720  0436               	skipz
  4550  0721  1D03               	goto	u5541
  4551  0722  2F24               	goto	u5540
  4552  0723  2F25               u5541:
  4553  0724                     	goto	l247
  4554  0724  2F2B               u5540:
  4555  0725                     	line	1310
  4556                           	
  4557                           l3273:	
  4558  0725                     ;/opt/microchip/xc8/v2.00/pic/sources/c90/common/doprnt.c: 1310:    prec++;
  4559                           	movlw	01h
  4560  0725  3001               	addwf	(printf@prec)^080h,f
  4561  0726  07C9               	skipnc
  4562  0727  1803               	incf	(printf@prec+1)^080h,f
  4563  0728  0ACA               	movlw	0
  4564  0729  3000               	addwf	(printf@prec+1)^080h,f
  4565  072A  07CA               	
  4566                           l247:	
  4567  072B                     	line	1358
  4568                           ;/opt/microchip/xc8/v2.00/pic/sources/c90/common/doprnt.c: 1358:   if(c < prec)
  4569                           	movf	(printf@prec+1)^080h,w
  4570  072B  084A               	xorlw	80h
  4571  072C  3A80               	sublw	080h
  4572  072D  3C80               	skipz
  4573  072E  1D03               	goto	u5555
  4574  072F  2F32               	movf	(printf@prec)^080h,w
  4575  0730  0849               	subwf	(printf@c)^080h,w
  4576  0731  024B               u5555:
  4577  0732                     
  4578                           	skipnc
  4579  0732  1803               	goto	u5551
  4580  0733  2F35               	goto	u5550
  4581  0734  2F36               u5551:
  4582  0735                     	goto	l3277
  4583  0735  2F3D               u5550:
  4584  0736                     	line	1359
  4585                           	
  4586                           l3275:	
  4587  0736                     ;/opt/microchip/xc8/v2.00/pic/sources/c90/common/doprnt.c: 1359:    c = prec;
  4588                           	bsf	status, 5	;RP0=1, select bank1
  4589  0736  1683               	bcf	status, 6	;RP1=0, select bank1
  4590  0737  1303               	movf	(printf@prec)^080h,w
  4591  0738  0849               	movwf	(??_printf+0)^080h+0
  4592  0739  00A8               	movf	(??_printf+0)^080h+0,w
  4593  073A  0828               	movwf	(printf@c)^080h
  4594  073B  00CB               	goto	l3281
  4595  073C  2F57               	line	1360
  4596                           ;/opt/microchip/xc8/v2.00/pic/sources/c90/common/doprnt.c: 1360:   else if(prec < c)
  4597                           	
  4598                           l248:	
  4599  073D                     	
  4600                           l3277:	
  4601  073D                     	bsf	status, 5	;RP0=1, select bank1
  4602  073D  1683               	bcf	status, 6	;RP1=0, select bank1
  4603  073E  1303               	movf	(printf@prec+1)^080h,w
  4604  073F  084A               	xorlw	80h
  4605  0740  3A80               	movwf	(??_printf+0)^080h+0
  4606  0741  00A8               	movlw	80h
  4607  0742  3080               	subwf	(??_printf+0)^080h+0,w
  4608  0743  0228               	skipz
  4609  0744  1D03               	goto	u5565
  4610  0745  2F48               	movf	(printf@c)^080h,w
  4611  0746  084B               	subwf	(printf@prec)^080h,w
  4612  0747  0249               u5565:
  4613  0748                     
  4614                           	skipnc
  4615  0748  1803               	goto	u5561
  4616  0749  2F4B               	goto	u5560
  4617  074A  2F4C               u5561:
  4618  074B                     	goto	l3281
  4619  074B  2F57               u5560:
  4620  074C                     	line	1361
  4621                           	
  4622                           l3279:	
  4623  074C                     ;/opt/microchip/xc8/v2.00/pic/sources/c90/common/doprnt.c: 1361:    prec = c;
  4624                           	bsf	status, 5	;RP0=1, select bank1
  4625  074C  1683               	bcf	status, 6	;RP1=0, select bank1
  4626  074D  1303               	movf	(printf@c)^080h,w
  4627  074E  084B               	movwf	(??_printf+0)^080h+0
  4628  074F  00A8               	clrf	(??_printf+0)^080h+0+1
  4629  0750  01A9               	movf	0+(??_printf+0)^080h+0,w
  4630  0751  0828               	movwf	(printf@prec)^080h
  4631  0752  00C9               	movf	1+(??_printf+0)^080h+0,w
  4632  0753  0829               	movwf	(printf@prec+1)^080h
  4633  0754  00CA               	goto	l3281
  4634  0755  2F57               	
  4635                           l250:	
  4636  0756                     	goto	l3281
  4637  0756  2F57               	
  4638                           l249:	
  4639  0757                     	line	1364
  4640                           	
  4641                           l3281:	
  4642  0757                     ;/opt/microchip/xc8/v2.00/pic/sources/c90/common/doprnt.c: 1364:   if(width && flag & 0x
                                 03)
  4643                           	bsf	status, 5	;RP0=1, select bank1
  4644  0757  1683               	bcf	status, 6	;RP1=0, select bank1
  4645  0758  1303               	movf	((printf@width)^080h),w
  4646  0759  0843               iorwf	((printf@width+1)^080h),w
  4647  075A  0444               	btfsc	status,2
  4648  075B  1903               	goto	u5571
  4649  075C  2F5E               	goto	u5570
  4650  075D  2F5F               u5571:
  4651  075E                     	goto	l3287
  4652  075E  2F72               u5570:
  4653  075F                     	
  4654                           l3283:	
  4655  075F                     	movlw	03h
  4656  075F  3003               	andwf	(printf@flag)^080h,w
  4657  0760  053A               	movwf	(??_printf+0)^080h+0
  4658  0761  00A8               	movlw	0
  4659  0762  3000               	andwf	(printf@flag+1)^080h,w
  4660  0763  053B               	movwf	1+(??_printf+0)^080h+0
  4661  0764  00A9               	movf	((??_printf+0)^080h+0),w
  4662  0765  0828               iorwf	((??_printf+0)^080h+1),w
  4663  0766  0429               	btfsc	status,2
  4664  0767  1903               	goto	u5581
  4665  0768  2F6A               	goto	u5580
  4666  0769  2F6B               u5581:
  4667  076A                     	goto	l3287
  4668  076A  2F72               u5580:
  4669  076B                     	line	1365
  4670                           	
  4671                           l3285:	
  4672  076B                     ;/opt/microchip/xc8/v2.00/pic/sources/c90/common/doprnt.c: 1365:    width--;
  4673                           	movlw	0FFh
  4674  076B  30FF               	addwf	(printf@width)^080h,f
  4675  076C  07C3               	skipnc
  4676  076D  1803               	incf	(printf@width+1)^080h,f
  4677  076E  0AC4               	movlw	0FFh
  4678  076F  30FF               	addwf	(printf@width+1)^080h,f
  4679  0770  07C4               	goto	l3287
  4680  0771  2F72               	
  4681                           l251:	
  4682  0772                     	line	1367
  4683                           	
  4684                           l3287:	
  4685  0772                     ;/opt/microchip/xc8/v2.00/pic/sources/c90/common/doprnt.c: 1367:   if(flag & 0x4000) {
  4686                           	btfss	(printf@flag+1)^080h,(14)&7
  4687  0772  1F3B               	goto	u5591
  4688  0773  2F75               	goto	u5590
  4689  0774  2F76               u5591:
  4690  0775                     	goto	l3295
  4691  0775  2F93               u5590:
  4692  0776                     	line	1368
  4693                           	
  4694                           l3289:	
  4695  0776                     ;/opt/microchip/xc8/v2.00/pic/sources/c90/common/doprnt.c: 1368:    if(width > prec)
  4696                           	movf	(printf@prec+1)^080h,w
  4697  0776  084A               	xorlw	80h
  4698  0777  3A80               	movwf	(??_printf+0)^080h+0
  4699  0778  00A8               	movf	(printf@width+1)^080h,w
  4700  0779  0844               	xorlw	80h
  4701  077A  3A80               	subwf	(??_printf+0)^080h+0,w
  4702  077B  0228               	skipz
  4703  077C  1D03               	goto	u5605
  4704  077D  2F80               	movf	(printf@width)^080h,w
  4705  077E  0843               	subwf	(printf@prec)^080h,w
  4706  077F  0249               u5605:
  4707  0780                     
  4708                           	skipnc
  4709  0780  1803               	goto	u5601
  4710  0781  2F83               	goto	u5600
  4711  0782  2F84               u5601:
  4712  0783                     	goto	l3293
  4713  0783  2F8D               u5600:
  4714  0784                     	line	1369
  4715                           	
  4716                           l3291:	
  4717  0784                     ;/opt/microchip/xc8/v2.00/pic/sources/c90/common/doprnt.c: 1369:     width -= prec;
  4718                           	bsf	status, 5	;RP0=1, select bank1
  4719  0784  1683               	bcf	status, 6	;RP1=0, select bank1
  4720  0785  1303               	movf	(printf@prec)^080h,w
  4721  0786  0849               	subwf	(printf@width)^080h,f
  4722  0787  02C3               	movf	(printf@prec+1)^080h,w
  4723  0788  084A               	skipc
  4724  0789  1C03               	decf	(printf@width+1)^080h,f
  4725  078A  03C4               	subwf	(printf@width+1)^080h,f
  4726  078B  02C4               	goto	l3295
  4727  078C  2F93               	line	1370
  4728                           ;/opt/microchip/xc8/v2.00/pic/sources/c90/common/doprnt.c: 1370:    else
  4729                           	
  4730                           l253:	
  4731  078D                     	line	1371
  4732                           	
  4733                           l3293:	
  4734  078D                     ;/opt/microchip/xc8/v2.00/pic/sources/c90/common/doprnt.c: 1371:     width = 0;
  4735                           	bsf	status, 5	;RP0=1, select bank1
  4736  078D  1683               	bcf	status, 6	;RP1=0, select bank1
  4737  078E  1303               	clrf	(printf@width)^080h
  4738  078F  01C3               	clrf	(printf@width+1)^080h
  4739  0790  01C4               	goto	l3295
  4740  0791  2F93               	
  4741                           l254:	
  4742  0792                     	goto	l3295
  4743  0792  2F93               	line	1372
  4744                           ;/opt/microchip/xc8/v2.00/pic/sources/c90/common/doprnt.c: 1372:   }
  4745                           	
  4746                           l252:	
  4747  0793                     	line	1400
  4748                           	
  4749                           l3295:	
  4750  0793                     ;/opt/microchip/xc8/v2.00/pic/sources/c90/common/doprnt.c: 1400:   if(width > c)
  4751                           	movf	(printf@width+1)^080h,w
  4752  0793  0844               	xorlw	80h
  4753  0794  3A80               	sublw	080h
  4754  0795  3C80               	skipz
  4755  0796  1D03               	goto	u5615
  4756  0797  2F9A               	movf	(printf@width)^080h,w
  4757  0798  0843               	subwf	(printf@c)^080h,w
  4758  0799  024B               u5615:
  4759  079A                     
  4760                           	skipnc
  4761  079A  1803               	goto	u5611
  4762  079B  2F9D               	goto	u5610
  4763  079C  2F9E               u5611:
  4764  079D                     	goto	l3299
  4765  079D  2FAA               u5610:
  4766  079E                     	line	1401
  4767                           	
  4768                           l3297:	
  4769  079E                     ;/opt/microchip/xc8/v2.00/pic/sources/c90/common/doprnt.c: 1401:    width -= c;
  4770                           	bsf	status, 5	;RP0=1, select bank1
  4771  079E  1683               	bcf	status, 6	;RP1=0, select bank1
  4772  079F  1303               	movf	(printf@c)^080h,w
  4773  07A0  084B               	movwf	(??_printf+0)^080h+0
  4774  07A1  00A8               	clrf	(??_printf+0)^080h+0+1
  4775  07A2  01A9               	movf	0+(??_printf+0)^080h+0,w
  4776  07A3  0828               	subwf	(printf@width)^080h,f
  4777  07A4  02C3               	movf	1+(??_printf+0)^080h+0,w
  4778  07A5  0829               	skipc
  4779  07A6  1C03               	decf	(printf@width+1)^080h,f
  4780  07A7  03C4               	subwf	(printf@width+1)^080h,f
  4781  07A8  02C4               	goto	l3301
  4782  07A9  2FAF               	line	1402
  4783                           ;/opt/microchip/xc8/v2.00/pic/sources/c90/common/doprnt.c: 1402:   else
  4784                           	
  4785                           l255:	
  4786  07AA                     	line	1403
  4787                           	
  4788                           l3299:	
  4789  07AA                     ;/opt/microchip/xc8/v2.00/pic/sources/c90/common/doprnt.c: 1403:    width = 0;
  4790                           	bsf	status, 5	;RP0=1, select bank1
  4791  07AA  1683               	bcf	status, 6	;RP1=0, select bank1
  4792  07AB  1303               	clrf	(printf@width)^080h
  4793  07AC  01C3               	clrf	(printf@width+1)^080h
  4794  07AD  01C4               	goto	l3301
  4795  07AE  2FAF               	
  4796                           l256:	
  4797  07AF                     	line	1443
  4798                           	
  4799                           l3301:	
  4800  07AF                     ;/opt/microchip/xc8/v2.00/pic/sources/c90/common/doprnt.c: 1441:   {;/opt/microchip/xc8/
                                 v2.00/pic/sources/c90/common/doprnt.c: 1443:    if(width
  4801                           	movf	((printf@width)^080h),w
  4802  07AF  0843               iorwf	((printf@width+1)^080h),w
  4803  07B0  0444               	btfsc	status,2
  4804  07B1  1903               	goto	u5621
  4805  07B2  2FB4               	goto	u5620
  4806  07B3  2FB5               u5621:
  4807  07B4                     	goto	l3307
  4808  07B4  2FCC               u5620:
  4809  07B5                     	goto	l3303
  4810  07B5  2FB6               	line	1448
  4811                           ;/opt/microchip/xc8/v2.00/pic/sources/c90/common/doprnt.c: 1448:     do
  4812                           	
  4813                           l258:	
  4814  07B6                     	line	1449
  4815                           	
  4816                           l3303:	
  4817  07B6                     ;/opt/microchip/xc8/v2.00/pic/sources/c90/common/doprnt.c: 1449:      (putch(' ') );
  4818                           	movlw	low(020h)
  4819  07B6  3020               	fcall	_putch
  4820  07B7  120A  158A  200D  120A  118A  	
  4821                           l3305:	
  4822  07BC                     	movlw	0FFh
  4823  07BC  30FF               	bsf	status, 5	;RP0=1, select bank1
  4824  07BD  1683               	bcf	status, 6	;RP1=0, select bank1
  4825  07BE  1303               	addwf	(printf@width)^080h,f
  4826  07BF  07C3               	skipnc
  4827  07C0  1803               	incf	(printf@width+1)^080h,f
  4828  07C1  0AC4               	movlw	0FFh
  4829  07C2  30FF               	addwf	(printf@width+1)^080h,f
  4830  07C3  07C4               	movf	(((printf@width)^080h)),w
  4831  07C4  0843               iorwf	(((printf@width+1)^080h)),w
  4832  07C5  0444               	btfss	status,2
  4833  07C6  1D03               	goto	u5631
  4834  07C7  2FC9               	goto	u5630
  4835  07C8  2FCA               u5631:
  4836  07C9                     	goto	l3303
  4837  07C9  2FB6               u5630:
  4838  07CA                     	goto	l3307
  4839  07CA  2FCC               	
  4840                           l259:	
  4841  07CB                     	goto	l3307
  4842  07CB  2FCC               	
  4843                           l257:	
  4844  07CC                     	line	1457
  4845                           	
  4846                           l3307:	
  4847  07CC                     ;/opt/microchip/xc8/v2.00/pic/sources/c90/common/doprnt.c: 1457:    if(flag & 0x03)
  4848                           	movlw	03h
  4849  07CC  3003               	andwf	(printf@flag)^080h,w
  4850  07CD  053A               	movwf	(??_printf+0)^080h+0
  4851  07CE  00A8               	movlw	0
  4852  07CF  3000               	andwf	(printf@flag+1)^080h,w
  4853  07D0  053B               	movwf	1+(??_printf+0)^080h+0
  4854  07D1  00A9               	movf	((??_printf+0)^080h+0),w
  4855  07D2  0828               iorwf	((??_printf+0)^080h+1),w
  4856  07D3  0429               	btfsc	status,2
  4857  07D4  1903               	goto	u5641
  4858  07D5  2FD7               	goto	u5640
  4859  07D6  2FD8               u5641:
  4860  07D7                     	goto	l3311
  4861  07D7  2FE0               u5640:
  4862  07D8                     	line	1458
  4863                           	
  4864                           l3309:	
  4865  07D8                     ;/opt/microchip/xc8/v2.00/pic/sources/c90/common/doprnt.c: 1458:     (putch('-') );
  4866                           	movlw	low(02Dh)
  4867  07D8  302D               	fcall	_putch
  4868  07D9  120A  158A  200D  120A  118A  	goto	l3311
  4869  07DE  2FE0               	
  4870                           l260:	
  4871  07DF                     	goto	l3311
  4872  07DF  2FE0               	line	1552
  4873                           ;/opt/microchip/xc8/v2.00/pic/sources/c90/common/doprnt.c: 1488:   };/opt/microchip/xc8/
                                 v2.00/pic/sources/c90/common/doprnt.c: 1552:  }
  4874                           	
  4875                           l173:	
  4876  07E0                     	line	548
  4877                           	
  4878                           l3311:	
  4879  07E0                     ;/opt/microchip/xc8/v2.00/pic/sources/c90/common/doprnt.c: 548:  while((c = *f++)) {
  4880                           	movlw	01h
  4881  07E0  3001               	bsf	status, 5	;RP0=1, select bank1
  4882  07E1  1683               	bcf	status, 6	;RP1=0, select bank1
  4883  07E2  1303               	addwf	(printf@f)^080h,f
  4884  07E3  07BC               	movlw	-01h
  4885  07E4  30FF               	addwf	(printf@f)^080h,w
  4886  07E5  073C               	movwf	fsr0
  4887  07E6  0084               	fcall	stringdir
  4888  07E7  160A  158A  200A  120A  118A  	movwf	(??_printf+0)^080h+0
  4889  07EC  00A8               	movf	(??_printf+0)^080h+0,w
  4890  07ED  0828               	movwf	(printf@c)^080h
  4891  07EE  00CB               	movf	(((printf@c)^080h)),w
  4892  07EF  084B               	btfss	status,2
  4893  07F0  1D03               	goto	u5651
  4894  07F1  2FF3               	goto	u5650
  4895  07F2  2FF6               u5651:
  4896  07F3                     	goto	l3047
  4897  07F3  120A  158A  2818   u5650:
  4898  07F6                     	goto	l262
  4899  07F6  2FF8               	
  4900                           l261:	
  4901  07F7                     	goto	l262
  4902  07F7  2FF8               	line	1554
  4903                           ;/opt/microchip/xc8/v2.00/pic/sources/c90/common/doprnt.c: 1554: alldone:
  4904                           	
  4905                           l186:	
  4906  07F8                     	line	1560
  4907                           ;/opt/microchip/xc8/v2.00/pic/sources/c90/common/doprnt.c: 1559:  return 0;;	Return valu
                                 e of _printf is never used
  4908                           	
  4909                           l262:	
  4910  07F8                     	return
  4911  07F8  0008               	opt stack 0
      + 07F9                     L2:	
  4912                           GLOBAL	__end_of_printf
  4913                           	__end_of_printf:
  4914  07F9                     	signat	_printf,602
      + 07F9  120A  158A  28E2   	ljmp	l3083
  4915                           	global	_scale
  4916                           
  4917 ;; *************** function _scale *****************
  4918 ;; Defined at:
  4919 ;;		line 433 in file "/opt/microchip/xc8/v2.00/pic/sources/c90/common/doprnt.c"
  4920 ;; Parameters:    Size  Location     Type
  4921 ;;  scl             1    wreg     char 
  4922 ;; Auto vars:     Size  Location     Type
  4923 ;;  scl             1   48[BANK0 ] char 
  4924 ;; Return value:  Size  Location     Type
  4925 ;;                  4   30[BANK0 ] char 
  4926 ;; Registers used:
  4927 ;;		wreg, fsr0l, fsr0h, status,2, status,0, btemp+1, pclath, cstack
  4928 ;; Tracked objects:
  4929 ;;		On entry : 0/0
  4930 ;;		On exit  : 0/0
  4931 ;;		Unchanged: 0/0
  4932 ;; Data sizes:     COMMON   BANK0   BANK1   BANK3   BANK2
  4933 ;;      Params:         0       4       0       0       0
  4934 ;;      Locals:         0       5       0       0       0
  4935 ;;      Temps:          0      10       0       0       0
  4936 ;;      Totals:         0      19       0       0       0
  4937 ;;Total ram usage:       19 bytes
  4938 ;; Hardware stack levels used:    1
  4939 ;; Hardware stack levels required when called:    2
  4940 ;; This function calls:
  4941 ;;		___awdiv
  4942 ;;		___awmod
  4943 ;;		___flmul
  4944 ;; This function is called by:
  4945 ;;		_printf
  4946 ;; This function uses a non-reentrant model
  4947 ;;
  4948                           psect	text2,local,class=CODE,delta=2,merge=1,group=0
  4949                           	line	433
  4950                           global __ptext2
  4951                           __ptext2:	;psect for function _scale
  4952  091C                     psect	text2
  4953                           	file	"/opt/microchip/xc8/v2.00/pic/sources/c90/common/doprnt.c"
  4954                           	line	433
  4955                           	global	__size_of_scale
  4956                           	__size_of_scale	equ	__end_of_scale-_scale
  4957  036F                     	
  4958                           _scale:	
  4959  091C                     ;incstack = 0
  4960                           	opt	stack 4
  4961                           ; Regs used in _scale: [wreg-fsr0h+status,2+status,0+btemp+1+pclath+cstack]
  4962                           ;scale@scl stored from wreg
  4963                           	bcf	status, 5	;RP0=0, select bank0
  4964  091C  1283               	bcf	status, 6	;RP1=0, select bank0
  4965  091D  1303               	movwf	(scale@scl)
  4966  091E  00D0               	line	436
  4967                           	
  4968                           l2627:	
  4969  091F                     ;/opt/microchip/xc8/v2.00/pic/sources/c90/common/doprnt.c: 433: scale(signed char scl);/
                                 opt/microchip/xc8/v2.00/pic/sources/c90/common/doprnt.c: 434: {;/opt/microchip/xc8/v2.00
                                 /pic/sources/c90/common/doprnt.c: 436:  if(scl < 0) {
  4970                           	btfss	(scale@scl),7
  4971  091F  1FD0               	goto	u4111
  4972  0920  2922               	goto	u4110
  4973  0921  2923               u4111:
  4974  0922                     	goto	l2649
  4975  0922  2AD8               u4110:
  4976  0923                     	line	437
  4977                           	
  4978                           l2629:	
  4979  0923                     ;/opt/microchip/xc8/v2.00/pic/sources/c90/common/doprnt.c: 437:   scl = -scl;
  4980                           	comf	(scale@scl),f
  4981  0923  09D0               	incf	(scale@scl),f
  4982  0924  0AD0               	line	438
  4983                           	
  4984                           l2631:	
  4985  0925                     ;/opt/microchip/xc8/v2.00/pic/sources/c90/common/doprnt.c: 438:   if(scl>=110)
  4986                           	movf	(scale@scl),w
  4987  0925  0850               	xorlw	80h
  4988  0926  3A80               	addlw	-((06Eh)^80h)
  4989  0927  3E12               	skipc
  4990  0928  1C03               	goto	u4121
  4991  0929  292B               	goto	u4120
  4992  092A  292C               u4121:
  4993  092B                     	goto	l2639
  4994  092B  2A18               u4120:
  4995  092C                     	line	439
  4996                           	
  4997                           l2633:	
  4998  092C                     ;/opt/microchip/xc8/v2.00/pic/sources/c90/common/doprnt.c: 439:    return _npowers_[(uns
                                 igned char)(scl/100+18)] * _npowers_[(unsigned char)((scl%100)/10+9)] * _npowers_[(unsig
                                 ned char)(scl%10)];
  4999                           	movlw	0Ah
  5000  092C  300A               	movwf	(___awdiv@divisor)
  5001  092D  00F7               	movlw	0
  5002  092E  3000               	movwf	((___awdiv@divisor))+1
  5003  092F  00F8               	movf	(scale@scl),w
  5004  0930  0850               	movwf	(___awmod@dividend)
  5005  0931  00F2               	clrf	(___awmod@dividend+1)
  5006  0932  01F3               	btfsc	(___awmod@dividend),7
  5007  0933  1BF2               	decf	(___awmod@dividend+1),f
  5008  0934  03F3               	movlw	064h
  5009  0935  3064               	movwf	(___awmod@divisor)
  5010  0936  00F0               	movlw	0
  5011  0937  3000               	movwf	((___awmod@divisor))+1
  5012  0938  00F1               	fcall	___awmod
  5013  0939  160A  158A  24CA  120A  158A  	movf	(1+(?___awmod)),w
  5014  093E  0871               	movwf	(___awdiv@dividend+1)
  5015  093F  00FA               	movf	(0+(?___awmod)),w
  5016  0940  0870               	movwf	(___awdiv@dividend)
  5017  0941  00F9               	fcall	___awdiv
  5018  0942  160A  118A  201E  120A  158A  	movf	(0+(?___awdiv)),w
  5019  0947  0877               	bcf	status, 5	;RP0=0, select bank0
  5020  0948  1283               	bcf	status, 6	;RP1=0, select bank0
  5021  0949  1303               	movwf	(??_scale+0)+0
  5022  094A  00C2               	movlw	(02h)-1
  5023  094B  3001               u4135:
  5024  094C                     	clrc
  5025  094C  1003               	rlf	(??_scale+0)+0,f
  5026  094D  0DC2               	addlw	-1
  5027  094E  3EFF               	skipz
  5028  094F  1D03               	goto	u4135
  5029  0950  294C               	clrc
  5030  0951  1003               	rlf	(??_scale+0)+0,w
  5031  0952  0D42               	addlw	024h
  5032  0953  3E24               	addlw	low((((__npowers_)-__stringbase)|8000h))
  5033  0954  3E35               	movwf	fsr0
  5034  0955  0084               	fcall	stringdir
  5035  0956  160A  158A  200A  120A  158A  	movwf	((??_scale+1)+0)
  5036  095B  00C3               	fcall	stringdir
  5037  095C  160A  158A  200A  120A  158A  	movwf	((??_scale+1)+0+1)
  5038  0961  00C4               	fcall	stringdir
  5039  0962  160A  158A  200A  120A  158A  	movwf	((??_scale+1)+0+2)
  5040  0967  00C5               	fcall	stringdir
  5041  0968  160A  158A  200A  120A  158A  	movwf	((??_scale+1)+0+3)
  5042  096D  00C6               	movf	3+(??_scale+1)+0,w
  5043  096E  0846               	movwf	(___flmul@b+3)
  5044  096F  00A7               	movf	2+(??_scale+1)+0,w
  5045  0970  0845               	movwf	(___flmul@b+2)
  5046  0971  00A6               	movf	1+(??_scale+1)+0,w
  5047  0972  0844               	movwf	(___flmul@b+1)
  5048  0973  00A5               	movf	0+(??_scale+1)+0,w
  5049  0974  0843               	movwf	(___flmul@b)
  5050  0975  00A4               
  5051                           	movlw	064h
  5052  0976  3064               	movwf	(___awdiv@divisor)
  5053  0977  00F7               	movlw	0
  5054  0978  3000               	movwf	((___awdiv@divisor))+1
  5055  0979  00F8               	movf	(scale@scl),w
  5056  097A  0850               	movwf	(___awdiv@dividend)
  5057  097B  00F9               	clrf	(___awdiv@dividend+1)
  5058  097C  01FA               	btfsc	(___awdiv@dividend),7
  5059  097D  1BF9               	decf	(___awdiv@dividend+1),f
  5060  097E  03FA               	fcall	___awdiv
  5061  097F  160A  118A  201E  120A  158A  	movf	(0+(?___awdiv)),w
  5062  0984  0877               	bcf	status, 5	;RP0=0, select bank0
  5063  0985  1283               	bcf	status, 6	;RP1=0, select bank0
  5064  0986  1303               	movwf	(??_scale+5)+0
  5065  0987  00C7               	movlw	(02h)-1
  5066  0988  3001               u4145:
  5067  0989                     	clrc
  5068  0989  1003               	rlf	(??_scale+5)+0,f
  5069  098A  0DC7               	addlw	-1
  5070  098B  3EFF               	skipz
  5071  098C  1D03               	goto	u4145
  5072  098D  2989               	clrc
  5073  098E  1003               	rlf	(??_scale+5)+0,w
  5074  098F  0D47               	addlw	048h
  5075  0990  3E48               	addlw	low((((__npowers_)-__stringbase)|8000h))
  5076  0991  3E35               	movwf	fsr0
  5077  0992  0084               	fcall	stringdir
  5078  0993  160A  158A  200A  120A  158A  	movwf	((??_scale+6)+0)
  5079  0998  00C8               	fcall	stringdir
  5080  0999  160A  158A  200A  120A  158A  	movwf	((??_scale+6)+0+1)
  5081  099E  00C9               	fcall	stringdir
  5082  099F  160A  158A  200A  120A  158A  	movwf	((??_scale+6)+0+2)
  5083  09A4  00CA               	fcall	stringdir
  5084  09A5  160A  158A  200A  120A  158A  	movwf	((??_scale+6)+0+3)
  5085  09AA  00CB               	movf	3+(??_scale+6)+0,w
  5086  09AB  084B               	movwf	(___flmul@a+3)
  5087  09AC  00AB               	movf	2+(??_scale+6)+0,w
  5088  09AD  084A               	movwf	(___flmul@a+2)
  5089  09AE  00AA               	movf	1+(??_scale+6)+0,w
  5090  09AF  0849               	movwf	(___flmul@a+1)
  5091  09B0  00A9               	movf	0+(??_scale+6)+0,w
  5092  09B1  0848               	movwf	(___flmul@a)
  5093  09B2  00A8               
  5094                           	fcall	___flmul
  5095  09B3  120A  158A  248B  120A  158A  	bcf	status, 5	;RP0=0, select bank0
  5096  09B8  1283               	bcf	status, 6	;RP1=0, select bank0
  5097  09B9  1303               	movf	(3+(?___flmul)),w
  5098  09BA  0827               	movwf	(_scale$878+3)
  5099  09BB  00CF               	movf	(2+(?___flmul)),w
  5100  09BC  0826               	movwf	(_scale$878+2)
  5101  09BD  00CE               	movf	(1+(?___flmul)),w
  5102  09BE  0825               	movwf	(_scale$878+1)
  5103  09BF  00CD               	movf	(0+(?___flmul)),w
  5104  09C0  0824               	movwf	(_scale$878)
  5105  09C1  00CC               
  5106                           ;/opt/microchip/xc8/v2.00/pic/sources/c90/common/doprnt.c: 439:    return _npowers_[(uns
                                 igned char)(scl/100+18)] * _npowers_[(unsigned char)((scl%100)/10+9)] * _npowers_[(unsig
                                 ned char)(scl%10)];
  5107                           	movlw	0Ah
  5108  09C2  300A               	movwf	(___awmod@divisor)
  5109  09C3  00F0               	movlw	0
  5110  09C4  3000               	movwf	((___awmod@divisor))+1
  5111  09C5  00F1               	movf	(scale@scl),w
  5112  09C6  0850               	movwf	(___awmod@dividend)
  5113  09C7  00F2               	clrf	(___awmod@dividend+1)
  5114  09C8  01F3               	btfsc	(___awmod@dividend),7
  5115  09C9  1BF2               	decf	(___awmod@dividend+1),f
  5116  09CA  03F3               	fcall	___awmod
  5117  09CB  160A  158A  24CA  120A  158A  	movf	(0+(?___awmod)),w
  5118  09D0  0870               	bcf	status, 5	;RP0=0, select bank0
  5119  09D1  1283               	bcf	status, 6	;RP1=0, select bank0
  5120  09D2  1303               	movwf	(??_scale+0)+0
  5121  09D3  00C2               	movlw	(02h)-1
  5122  09D4  3001               u4155:
  5123  09D5                     	clrc
  5124  09D5  1003               	rlf	(??_scale+0)+0,f
  5125  09D6  0DC2               	addlw	-1
  5126  09D7  3EFF               	skipz
  5127  09D8  1D03               	goto	u4155
  5128  09D9  29D5               	clrc
  5129  09DA  1003               	rlf	(??_scale+0)+0,w
  5130  09DB  0D42               	addlw	low((((__npowers_)-__stringbase)|8000h))
  5131  09DC  3E35               	movwf	fsr0
  5132  09DD  0084               	fcall	stringdir
  5133  09DE  160A  158A  200A  120A  158A  	movwf	((??_scale+1)+0)
  5134  09E3  00C3               	fcall	stringdir
  5135  09E4  160A  158A  200A  120A  158A  	movwf	((??_scale+1)+0+1)
  5136  09E9  00C4               	fcall	stringdir
  5137  09EA  160A  158A  200A  120A  158A  	movwf	((??_scale+1)+0+2)
  5138  09EF  00C5               	fcall	stringdir
  5139  09F0  160A  158A  200A  120A  158A  	movwf	((??_scale+1)+0+3)
  5140  09F5  00C6               	movf	3+(??_scale+1)+0,w
  5141  09F6  0846               	movwf	(___flmul@b+3)
  5142  09F7  00A7               	movf	2+(??_scale+1)+0,w
  5143  09F8  0845               	movwf	(___flmul@b+2)
  5144  09F9  00A6               	movf	1+(??_scale+1)+0,w
  5145  09FA  0844               	movwf	(___flmul@b+1)
  5146  09FB  00A5               	movf	0+(??_scale+1)+0,w
  5147  09FC  0843               	movwf	(___flmul@b)
  5148  09FD  00A4               
  5149                           	movf	(_scale$878+3),w
  5150  09FE  084F               	movwf	(___flmul@a+3)
  5151  09FF  00AB               	movf	(_scale$878+2),w
  5152  0A00  084E               	movwf	(___flmul@a+2)
  5153  0A01  00AA               	movf	(_scale$878+1),w
  5154  0A02  084D               	movwf	(___flmul@a+1)
  5155  0A03  00A9               	movf	(_scale$878),w
  5156  0A04  084C               	movwf	(___flmul@a)
  5157  0A05  00A8               
  5158                           	fcall	___flmul
  5159  0A06  120A  158A  248B  120A  158A  	bcf	status, 5	;RP0=0, select bank0
  5160  0A0B  1283               	bcf	status, 6	;RP1=0, select bank0
  5161  0A0C  1303               	movf	(3+(?___flmul)),w
  5162  0A0D  0827               	movwf	(?_scale+3)
  5163  0A0E  00C1               	movf	(2+(?___flmul)),w
  5164  0A0F  0826               	movwf	(?_scale+2)
  5165  0A10  00C0               	movf	(1+(?___flmul)),w
  5166  0A11  0825               	movwf	(?_scale+1)
  5167  0A12  00BF               	movf	(0+(?___flmul)),w
  5168  0A13  0824               	movwf	(?_scale)
  5169  0A14  00BE               
  5170                           	goto	l165
  5171  0A15  2C8A               	
  5172                           l2635:	
  5173  0A16                     	goto	l165
  5174  0A16  2C8A               	
  5175                           l2637:	
  5176  0A17                     	goto	l2645
  5177  0A17  2AAA               	line	440
  5178                           ;/opt/microchip/xc8/v2.00/pic/sources/c90/common/doprnt.c: 440:   else if(scl > 10)
  5179                           	
  5180                           l164:	
  5181  0A18                     	
  5182                           l2639:	
  5183  0A18                     	movf	(scale@scl),w
  5184  0A18  0850               	xorlw	80h
  5185  0A19  3A80               	addlw	-((0Bh)^80h)
  5186  0A1A  3E75               	skipc
  5187  0A1B  1C03               	goto	u4161
  5188  0A1C  2A1E               	goto	u4160
  5189  0A1D  2A1F               u4161:
  5190  0A1E                     	goto	l2645
  5191  0A1E  2AAA               u4160:
  5192  0A1F                     	line	441
  5193                           	
  5194                           l2641:	
  5195  0A1F                     ;/opt/microchip/xc8/v2.00/pic/sources/c90/common/doprnt.c: 441:    return _npowers_[(uns
                                 igned char)(scl/10+9)] * _npowers_[(unsigned char)(scl%10)];
  5196                           	movlw	0Ah
  5197  0A1F  300A               	movwf	(___awmod@divisor)
  5198  0A20  00F0               	movlw	0
  5199  0A21  3000               	movwf	((___awmod@divisor))+1
  5200  0A22  00F1               	movf	(scale@scl),w
  5201  0A23  0850               	movwf	(___awmod@dividend)
  5202  0A24  00F2               	clrf	(___awmod@dividend+1)
  5203  0A25  01F3               	btfsc	(___awmod@dividend),7
  5204  0A26  1BF2               	decf	(___awmod@dividend+1),f
  5205  0A27  03F3               	fcall	___awmod
  5206  0A28  160A  158A  24CA  120A  158A  	movf	(0+(?___awmod)),w
  5207  0A2D  0870               	bcf	status, 5	;RP0=0, select bank0
  5208  0A2E  1283               	bcf	status, 6	;RP1=0, select bank0
  5209  0A2F  1303               	movwf	(??_scale+0)+0
  5210  0A30  00C2               	movlw	(02h)-1
  5211  0A31  3001               u4175:
  5212  0A32                     	clrc
  5213  0A32  1003               	rlf	(??_scale+0)+0,f
  5214  0A33  0DC2               	addlw	-1
  5215  0A34  3EFF               	skipz
  5216  0A35  1D03               	goto	u4175
  5217  0A36  2A32               	clrc
  5218  0A37  1003               	rlf	(??_scale+0)+0,w
  5219  0A38  0D42               	addlw	low((((__npowers_)-__stringbase)|8000h))
  5220  0A39  3E35               	movwf	fsr0
  5221  0A3A  0084               	fcall	stringdir
  5222  0A3B  160A  158A  200A  120A  158A  	movwf	((??_scale+1)+0)
  5223  0A40  00C3               	fcall	stringdir
  5224  0A41  160A  158A  200A  120A  158A  	movwf	((??_scale+1)+0+1)
  5225  0A46  00C4               	fcall	stringdir
  5226  0A47  160A  158A  200A  120A  158A  	movwf	((??_scale+1)+0+2)
  5227  0A4C  00C5               	fcall	stringdir
  5228  0A4D  160A  158A  200A  120A  158A  	movwf	((??_scale+1)+0+3)
  5229  0A52  00C6               	movf	3+(??_scale+1)+0,w
  5230  0A53  0846               	movwf	(___flmul@b+3)
  5231  0A54  00A7               	movf	2+(??_scale+1)+0,w
  5232  0A55  0845               	movwf	(___flmul@b+2)
  5233  0A56  00A6               	movf	1+(??_scale+1)+0,w
  5234  0A57  0844               	movwf	(___flmul@b+1)
  5235  0A58  00A5               	movf	0+(??_scale+1)+0,w
  5236  0A59  0843               	movwf	(___flmul@b)
  5237  0A5A  00A4               
  5238                           	movlw	0Ah
  5239  0A5B  300A               	movwf	(___awdiv@divisor)
  5240  0A5C  00F7               	movlw	0
  5241  0A5D  3000               	movwf	((___awdiv@divisor))+1
  5242  0A5E  00F8               	movf	(scale@scl),w
  5243  0A5F  0850               	movwf	(___awdiv@dividend)
  5244  0A60  00F9               	clrf	(___awdiv@dividend+1)
  5245  0A61  01FA               	btfsc	(___awdiv@dividend),7
  5246  0A62  1BF9               	decf	(___awdiv@dividend+1),f
  5247  0A63  03FA               	fcall	___awdiv
  5248  0A64  160A  118A  201E  120A  158A  	movf	(0+(?___awdiv)),w
  5249  0A69  0877               	bcf	status, 5	;RP0=0, select bank0
  5250  0A6A  1283               	bcf	status, 6	;RP1=0, select bank0
  5251  0A6B  1303               	movwf	(??_scale+5)+0
  5252  0A6C  00C7               	movlw	(02h)-1
  5253  0A6D  3001               u4185:
  5254  0A6E                     	clrc
  5255  0A6E  1003               	rlf	(??_scale+5)+0,f
  5256  0A6F  0DC7               	addlw	-1
  5257  0A70  3EFF               	skipz
  5258  0A71  1D03               	goto	u4185
  5259  0A72  2A6E               	clrc
  5260  0A73  1003               	rlf	(??_scale+5)+0,w
  5261  0A74  0D47               	addlw	024h
  5262  0A75  3E24               	addlw	low((((__npowers_)-__stringbase)|8000h))
  5263  0A76  3E35               	movwf	fsr0
  5264  0A77  0084               	fcall	stringdir
  5265  0A78  160A  158A  200A  120A  158A  	movwf	((??_scale+6)+0)
  5266  0A7D  00C8               	fcall	stringdir
  5267  0A7E  160A  158A  200A  120A  158A  	movwf	((??_scale+6)+0+1)
  5268  0A83  00C9               	fcall	stringdir
  5269  0A84  160A  158A  200A  120A  158A  	movwf	((??_scale+6)+0+2)
  5270  0A89  00CA               	fcall	stringdir
  5271  0A8A  160A  158A  200A  120A  158A  	movwf	((??_scale+6)+0+3)
  5272  0A8F  00CB               	movf	3+(??_scale+6)+0,w
  5273  0A90  084B               	movwf	(___flmul@a+3)
  5274  0A91  00AB               	movf	2+(??_scale+6)+0,w
  5275  0A92  084A               	movwf	(___flmul@a+2)
  5276  0A93  00AA               	movf	1+(??_scale+6)+0,w
  5277  0A94  0849               	movwf	(___flmul@a+1)
  5278  0A95  00A9               	movf	0+(??_scale+6)+0,w
  5279  0A96  0848               	movwf	(___flmul@a)
  5280  0A97  00A8               
  5281                           	fcall	___flmul
  5282  0A98  120A  158A  248B  120A  158A  	bcf	status, 5	;RP0=0, select bank0
  5283  0A9D  1283               	bcf	status, 6	;RP1=0, select bank0
  5284  0A9E  1303               	movf	(3+(?___flmul)),w
  5285  0A9F  0827               	movwf	(?_scale+3)
  5286  0AA0  00C1               	movf	(2+(?___flmul)),w
  5287  0AA1  0826               	movwf	(?_scale+2)
  5288  0AA2  00C0               	movf	(1+(?___flmul)),w
  5289  0AA3  0825               	movwf	(?_scale+1)
  5290  0AA4  00BF               	movf	(0+(?___flmul)),w
  5291  0AA5  0824               	movwf	(?_scale)
  5292  0AA6  00BE               
  5293                           	goto	l165
  5294  0AA7  2C8A               	
  5295                           l2643:	
  5296  0AA8                     	goto	l165
  5297  0AA8  2C8A               	
  5298                           l167:	
  5299  0AA9                     	goto	l2645
  5300  0AA9  2AAA               	
  5301                           l166:	
  5302  0AAA                     	line	442
  5303                           	
  5304                           l2645:	
  5305  0AAA                     ;/opt/microchip/xc8/v2.00/pic/sources/c90/common/doprnt.c: 442:   return _npowers_[(unsi
                                 gned char)scl];
  5306                           	movf	(scale@scl),w
  5307  0AAA  0850               	movwf	(??_scale+0)+0
  5308  0AAB  00C2               	movlw	(02h)-1
  5309  0AAC  3001               u4195:
  5310  0AAD                     	clrc
  5311  0AAD  1003               	rlf	(??_scale+0)+0,f
  5312  0AAE  0DC2               	addlw	-1
  5313  0AAF  3EFF               	skipz
  5314  0AB0  1D03               	goto	u4195
  5315  0AB1  2AAD               	clrc
  5316  0AB2  1003               	rlf	(??_scale+0)+0,w
  5317  0AB3  0D42               	addlw	low((((__npowers_)-__stringbase)|8000h))
  5318  0AB4  3E35               	movwf	fsr0
  5319  0AB5  0084               	fcall	stringdir
  5320  0AB6  160A  158A  200A  120A  158A  	movwf	((??_scale+1)+0)
  5321  0ABB  00C3               	fcall	stringdir
  5322  0ABC  160A  158A  200A  120A  158A  	movwf	((??_scale+1)+0+1)
  5323  0AC1  00C4               	fcall	stringdir
  5324  0AC2  160A  158A  200A  120A  158A  	movwf	((??_scale+1)+0+2)
  5325  0AC7  00C5               	fcall	stringdir
  5326  0AC8  160A  158A  200A  120A  158A  	movwf	((??_scale+1)+0+3)
  5327  0ACD  00C6               	movf	3+(??_scale+1)+0,w
  5328  0ACE  0846               	movwf	(?_scale+3)
  5329  0ACF  00C1               	movf	2+(??_scale+1)+0,w
  5330  0AD0  0845               	movwf	(?_scale+2)
  5331  0AD1  00C0               	movf	1+(??_scale+1)+0,w
  5332  0AD2  0844               	movwf	(?_scale+1)
  5333  0AD3  00BF               	movf	0+(??_scale+1)+0,w
  5334  0AD4  0843               	movwf	(?_scale)
  5335  0AD5  00BE               
  5336                           	goto	l165
  5337  0AD6  2C8A               	
  5338                           l2647:	
  5339  0AD7                     	goto	l165
  5340  0AD7  2C8A               	line	443
  5341                           ;/opt/microchip/xc8/v2.00/pic/sources/c90/common/doprnt.c: 443:  }
  5342                           	
  5343                           l163:	
  5344  0AD8                     	line	444
  5345                           	
  5346                           l2649:	
  5347  0AD8                     ;/opt/microchip/xc8/v2.00/pic/sources/c90/common/doprnt.c: 444:  if(scl>=110)
  5348                           	movf	(scale@scl),w
  5349  0AD8  0850               	xorlw	80h
  5350  0AD9  3A80               	addlw	-((06Eh)^80h)
  5351  0ADA  3E12               	skipc
  5352  0ADB  1C03               	goto	u4201
  5353  0ADC  2ADE               	goto	u4200
  5354  0ADD  2ADF               u4201:
  5355  0ADE                     	goto	l2657
  5356  0ADE  2BCB               u4200:
  5357  0ADF                     	line	445
  5358                           	
  5359                           l2651:	
  5360  0ADF                     ;/opt/microchip/xc8/v2.00/pic/sources/c90/common/doprnt.c: 445:   return _powers_[(unsig
                                 ned char)(scl/100+18)] * _powers_[(unsigned char)((scl%100)/10+9)] * _powers_[(unsigned 
                                 char)(scl%10)];
  5361                           	movlw	0Ah
  5362  0ADF  300A               	movwf	(___awdiv@divisor)
  5363  0AE0  00F7               	movlw	0
  5364  0AE1  3000               	movwf	((___awdiv@divisor))+1
  5365  0AE2  00F8               	movf	(scale@scl),w
  5366  0AE3  0850               	movwf	(___awmod@dividend)
  5367  0AE4  00F2               	clrf	(___awmod@dividend+1)
  5368  0AE5  01F3               	btfsc	(___awmod@dividend),7
  5369  0AE6  1BF2               	decf	(___awmod@dividend+1),f
  5370  0AE7  03F3               	movlw	064h
  5371  0AE8  3064               	movwf	(___awmod@divisor)
  5372  0AE9  00F0               	movlw	0
  5373  0AEA  3000               	movwf	((___awmod@divisor))+1
  5374  0AEB  00F1               	fcall	___awmod
  5375  0AEC  160A  158A  24CA  120A  158A  	movf	(1+(?___awmod)),w
  5376  0AF1  0871               	movwf	(___awdiv@dividend+1)
  5377  0AF2  00FA               	movf	(0+(?___awmod)),w
  5378  0AF3  0870               	movwf	(___awdiv@dividend)
  5379  0AF4  00F9               	fcall	___awdiv
  5380  0AF5  160A  118A  201E  120A  158A  	movf	(0+(?___awdiv)),w
  5381  0AFA  0877               	bcf	status, 5	;RP0=0, select bank0
  5382  0AFB  1283               	bcf	status, 6	;RP1=0, select bank0
  5383  0AFC  1303               	movwf	(??_scale+0)+0
  5384  0AFD  00C2               	movlw	(02h)-1
  5385  0AFE  3001               u4215:
  5386  0AFF                     	clrc
  5387  0AFF  1003               	rlf	(??_scale+0)+0,f
  5388  0B00  0DC2               	addlw	-1
  5389  0B01  3EFF               	skipz
  5390  0B02  1D03               	goto	u4215
  5391  0B03  2AFF               	clrc
  5392  0B04  1003               	rlf	(??_scale+0)+0,w
  5393  0B05  0D42               	addlw	024h
  5394  0B06  3E24               	addlw	low((((__powers_)-__stringbase)|8000h))
  5395  0B07  3E01               	movwf	fsr0
  5396  0B08  0084               	fcall	stringdir
  5397  0B09  160A  158A  200A  120A  158A  	movwf	((??_scale+1)+0)
  5398  0B0E  00C3               	fcall	stringdir
  5399  0B0F  160A  158A  200A  120A  158A  	movwf	((??_scale+1)+0+1)
  5400  0B14  00C4               	fcall	stringdir
  5401  0B15  160A  158A  200A  120A  158A  	movwf	((??_scale+1)+0+2)
  5402  0B1A  00C5               	fcall	stringdir
  5403  0B1B  160A  158A  200A  120A  158A  	movwf	((??_scale+1)+0+3)
  5404  0B20  00C6               	movf	3+(??_scale+1)+0,w
  5405  0B21  0846               	movwf	(___flmul@b+3)
  5406  0B22  00A7               	movf	2+(??_scale+1)+0,w
  5407  0B23  0845               	movwf	(___flmul@b+2)
  5408  0B24  00A6               	movf	1+(??_scale+1)+0,w
  5409  0B25  0844               	movwf	(___flmul@b+1)
  5410  0B26  00A5               	movf	0+(??_scale+1)+0,w
  5411  0B27  0843               	movwf	(___flmul@b)
  5412  0B28  00A4               
  5413                           	movlw	064h
  5414  0B29  3064               	movwf	(___awdiv@divisor)
  5415  0B2A  00F7               	movlw	0
  5416  0B2B  3000               	movwf	((___awdiv@divisor))+1
  5417  0B2C  00F8               	movf	(scale@scl),w
  5418  0B2D  0850               	movwf	(___awdiv@dividend)
  5419  0B2E  00F9               	clrf	(___awdiv@dividend+1)
  5420  0B2F  01FA               	btfsc	(___awdiv@dividend),7
  5421  0B30  1BF9               	decf	(___awdiv@dividend+1),f
  5422  0B31  03FA               	fcall	___awdiv
  5423  0B32  160A  118A  201E  120A  158A  	movf	(0+(?___awdiv)),w
  5424  0B37  0877               	bcf	status, 5	;RP0=0, select bank0
  5425  0B38  1283               	bcf	status, 6	;RP1=0, select bank0
  5426  0B39  1303               	movwf	(??_scale+5)+0
  5427  0B3A  00C7               	movlw	(02h)-1
  5428  0B3B  3001               u4225:
  5429  0B3C                     	clrc
  5430  0B3C  1003               	rlf	(??_scale+5)+0,f
  5431  0B3D  0DC7               	addlw	-1
  5432  0B3E  3EFF               	skipz
  5433  0B3F  1D03               	goto	u4225
  5434  0B40  2B3C               	clrc
  5435  0B41  1003               	rlf	(??_scale+5)+0,w
  5436  0B42  0D47               	addlw	048h
  5437  0B43  3E48               	addlw	low((((__powers_)-__stringbase)|8000h))
  5438  0B44  3E01               	movwf	fsr0
  5439  0B45  0084               	fcall	stringdir
  5440  0B46  160A  158A  200A  120A  158A  	movwf	((??_scale+6)+0)
  5441  0B4B  00C8               	fcall	stringdir
  5442  0B4C  160A  158A  200A  120A  158A  	movwf	((??_scale+6)+0+1)
  5443  0B51  00C9               	fcall	stringdir
  5444  0B52  160A  158A  200A  120A  158A  	movwf	((??_scale+6)+0+2)
  5445  0B57  00CA               	fcall	stringdir
  5446  0B58  160A  158A  200A  120A  158A  	movwf	((??_scale+6)+0+3)
  5447  0B5D  00CB               	movf	3+(??_scale+6)+0,w
  5448  0B5E  084B               	movwf	(___flmul@a+3)
  5449  0B5F  00AB               	movf	2+(??_scale+6)+0,w
  5450  0B60  084A               	movwf	(___flmul@a+2)
  5451  0B61  00AA               	movf	1+(??_scale+6)+0,w
  5452  0B62  0849               	movwf	(___flmul@a+1)
  5453  0B63  00A9               	movf	0+(??_scale+6)+0,w
  5454  0B64  0848               	movwf	(___flmul@a)
  5455  0B65  00A8               
  5456                           	fcall	___flmul
  5457  0B66  120A  158A  248B  120A  158A  	bcf	status, 5	;RP0=0, select bank0
  5458  0B6B  1283               	bcf	status, 6	;RP1=0, select bank0
  5459  0B6C  1303               	movf	(3+(?___flmul)),w
  5460  0B6D  0827               	movwf	(_scale$878+3)
  5461  0B6E  00CF               	movf	(2+(?___flmul)),w
  5462  0B6F  0826               	movwf	(_scale$878+2)
  5463  0B70  00CE               	movf	(1+(?___flmul)),w
  5464  0B71  0825               	movwf	(_scale$878+1)
  5465  0B72  00CD               	movf	(0+(?___flmul)),w
  5466  0B73  0824               	movwf	(_scale$878)
  5467  0B74  00CC               
  5468                           ;/opt/microchip/xc8/v2.00/pic/sources/c90/common/doprnt.c: 445:   return _powers_[(unsig
                                 ned char)(scl/100+18)] * _powers_[(unsigned char)((scl%100)/10+9)] * _powers_[(unsigned 
                                 char)(scl%10)];
  5469                           	movlw	0Ah
  5470  0B75  300A               	movwf	(___awmod@divisor)
  5471  0B76  00F0               	movlw	0
  5472  0B77  3000               	movwf	((___awmod@divisor))+1
  5473  0B78  00F1               	movf	(scale@scl),w
  5474  0B79  0850               	movwf	(___awmod@dividend)
  5475  0B7A  00F2               	clrf	(___awmod@dividend+1)
  5476  0B7B  01F3               	btfsc	(___awmod@dividend),7
  5477  0B7C  1BF2               	decf	(___awmod@dividend+1),f
  5478  0B7D  03F3               	fcall	___awmod
  5479  0B7E  160A  158A  24CA  120A  158A  	movf	(0+(?___awmod)),w
  5480  0B83  0870               	bcf	status, 5	;RP0=0, select bank0
  5481  0B84  1283               	bcf	status, 6	;RP1=0, select bank0
  5482  0B85  1303               	movwf	(??_scale+0)+0
  5483  0B86  00C2               	movlw	(02h)-1
  5484  0B87  3001               u4235:
  5485  0B88                     	clrc
  5486  0B88  1003               	rlf	(??_scale+0)+0,f
  5487  0B89  0DC2               	addlw	-1
  5488  0B8A  3EFF               	skipz
  5489  0B8B  1D03               	goto	u4235
  5490  0B8C  2B88               	clrc
  5491  0B8D  1003               	rlf	(??_scale+0)+0,w
  5492  0B8E  0D42               	addlw	low((((__powers_)-__stringbase)|8000h))
  5493  0B8F  3E01               	movwf	fsr0
  5494  0B90  0084               	fcall	stringdir
  5495  0B91  160A  158A  200A  120A  158A  	movwf	((??_scale+1)+0)
  5496  0B96  00C3               	fcall	stringdir
  5497  0B97  160A  158A  200A  120A  158A  	movwf	((??_scale+1)+0+1)
  5498  0B9C  00C4               	fcall	stringdir
  5499  0B9D  160A  158A  200A  120A  158A  	movwf	((??_scale+1)+0+2)
  5500  0BA2  00C5               	fcall	stringdir
  5501  0BA3  160A  158A  200A  120A  158A  	movwf	((??_scale+1)+0+3)
  5502  0BA8  00C6               	movf	3+(??_scale+1)+0,w
  5503  0BA9  0846               	movwf	(___flmul@b+3)
  5504  0BAA  00A7               	movf	2+(??_scale+1)+0,w
  5505  0BAB  0845               	movwf	(___flmul@b+2)
  5506  0BAC  00A6               	movf	1+(??_scale+1)+0,w
  5507  0BAD  0844               	movwf	(___flmul@b+1)
  5508  0BAE  00A5               	movf	0+(??_scale+1)+0,w
  5509  0BAF  0843               	movwf	(___flmul@b)
  5510  0BB0  00A4               
  5511                           	movf	(_scale$878+3),w
  5512  0BB1  084F               	movwf	(___flmul@a+3)
  5513  0BB2  00AB               	movf	(_scale$878+2),w
  5514  0BB3  084E               	movwf	(___flmul@a+2)
  5515  0BB4  00AA               	movf	(_scale$878+1),w
  5516  0BB5  084D               	movwf	(___flmul@a+1)
  5517  0BB6  00A9               	movf	(_scale$878),w
  5518  0BB7  084C               	movwf	(___flmul@a)
  5519  0BB8  00A8               
  5520                           	fcall	___flmul
  5521  0BB9  120A  158A  248B  120A  158A  	bcf	status, 5	;RP0=0, select bank0
  5522  0BBE  1283               	bcf	status, 6	;RP1=0, select bank0
  5523  0BBF  1303               	movf	(3+(?___flmul)),w
  5524  0BC0  0827               	movwf	(?_scale+3)
  5525  0BC1  00C1               	movf	(2+(?___flmul)),w
  5526  0BC2  0826               	movwf	(?_scale+2)
  5527  0BC3  00C0               	movf	(1+(?___flmul)),w
  5528  0BC4  0825               	movwf	(?_scale+1)
  5529  0BC5  00BF               	movf	(0+(?___flmul)),w
  5530  0BC6  0824               	movwf	(?_scale)
  5531  0BC7  00BE               
  5532                           	goto	l165
  5533  0BC8  2C8A               	
  5534                           l2653:	
  5535  0BC9                     	goto	l165
  5536  0BC9  2C8A               	
  5537                           l2655:	
  5538  0BCA                     	goto	l2663
  5539  0BCA  2C5D               	line	446
  5540                           ;/opt/microchip/xc8/v2.00/pic/sources/c90/common/doprnt.c: 446:  else if(scl > 10)
  5541                           	
  5542                           l168:	
  5543  0BCB                     	
  5544                           l2657:	
  5545  0BCB                     	movf	(scale@scl),w
  5546  0BCB  0850               	xorlw	80h
  5547  0BCC  3A80               	addlw	-((0Bh)^80h)
  5548  0BCD  3E75               	skipc
  5549  0BCE  1C03               	goto	u4241
  5550  0BCF  2BD1               	goto	u4240
  5551  0BD0  2BD2               u4241:
  5552  0BD1                     	goto	l2663
  5553  0BD1  2C5D               u4240:
  5554  0BD2                     	line	447
  5555                           	
  5556                           l2659:	
  5557  0BD2                     ;/opt/microchip/xc8/v2.00/pic/sources/c90/common/doprnt.c: 447:   return _powers_[(unsig
                                 ned char)(scl/10+9)] * _powers_[(unsigned char)(scl%10)];
  5558                           	movlw	0Ah
  5559  0BD2  300A               	movwf	(___awmod@divisor)
  5560  0BD3  00F0               	movlw	0
  5561  0BD4  3000               	movwf	((___awmod@divisor))+1
  5562  0BD5  00F1               	movf	(scale@scl),w
  5563  0BD6  0850               	movwf	(___awmod@dividend)
  5564  0BD7  00F2               	clrf	(___awmod@dividend+1)
  5565  0BD8  01F3               	btfsc	(___awmod@dividend),7
  5566  0BD9  1BF2               	decf	(___awmod@dividend+1),f
  5567  0BDA  03F3               	fcall	___awmod
  5568  0BDB  160A  158A  24CA  120A  158A  	movf	(0+(?___awmod)),w
  5569  0BE0  0870               	bcf	status, 5	;RP0=0, select bank0
  5570  0BE1  1283               	bcf	status, 6	;RP1=0, select bank0
  5571  0BE2  1303               	movwf	(??_scale+0)+0
  5572  0BE3  00C2               	movlw	(02h)-1
  5573  0BE4  3001               u4255:
  5574  0BE5                     	clrc
  5575  0BE5  1003               	rlf	(??_scale+0)+0,f
  5576  0BE6  0DC2               	addlw	-1
  5577  0BE7  3EFF               	skipz
  5578  0BE8  1D03               	goto	u4255
  5579  0BE9  2BE5               	clrc
  5580  0BEA  1003               	rlf	(??_scale+0)+0,w
  5581  0BEB  0D42               	addlw	low((((__powers_)-__stringbase)|8000h))
  5582  0BEC  3E01               	movwf	fsr0
  5583  0BED  0084               	fcall	stringdir
  5584  0BEE  160A  158A  200A  120A  158A  	movwf	((??_scale+1)+0)
  5585  0BF3  00C3               	fcall	stringdir
  5586  0BF4  160A  158A  200A  120A  158A  	movwf	((??_scale+1)+0+1)
  5587  0BF9  00C4               	fcall	stringdir
  5588  0BFA  160A  158A  200A  120A  158A  	movwf	((??_scale+1)+0+2)
  5589  0BFF  00C5               	fcall	stringdir
  5590  0C00  160A  158A  200A  120A  158A  	movwf	((??_scale+1)+0+3)
  5591  0C05  00C6               	movf	3+(??_scale+1)+0,w
  5592  0C06  0846               	movwf	(___flmul@b+3)
  5593  0C07  00A7               	movf	2+(??_scale+1)+0,w
  5594  0C08  0845               	movwf	(___flmul@b+2)
  5595  0C09  00A6               	movf	1+(??_scale+1)+0,w
  5596  0C0A  0844               	movwf	(___flmul@b+1)
  5597  0C0B  00A5               	movf	0+(??_scale+1)+0,w
  5598  0C0C  0843               	movwf	(___flmul@b)
  5599  0C0D  00A4               
  5600                           	movlw	0Ah
  5601  0C0E  300A               	movwf	(___awdiv@divisor)
  5602  0C0F  00F7               	movlw	0
  5603  0C10  3000               	movwf	((___awdiv@divisor))+1
  5604  0C11  00F8               	movf	(scale@scl),w
  5605  0C12  0850               	movwf	(___awdiv@dividend)
  5606  0C13  00F9               	clrf	(___awdiv@dividend+1)
  5607  0C14  01FA               	btfsc	(___awdiv@dividend),7
  5608  0C15  1BF9               	decf	(___awdiv@dividend+1),f
  5609  0C16  03FA               	fcall	___awdiv
  5610  0C17  160A  118A  201E  120A  158A  	movf	(0+(?___awdiv)),w
  5611  0C1C  0877               	bcf	status, 5	;RP0=0, select bank0
  5612  0C1D  1283               	bcf	status, 6	;RP1=0, select bank0
  5613  0C1E  1303               	movwf	(??_scale+5)+0
  5614  0C1F  00C7               	movlw	(02h)-1
  5615  0C20  3001               u4265:
  5616  0C21                     	clrc
  5617  0C21  1003               	rlf	(??_scale+5)+0,f
  5618  0C22  0DC7               	addlw	-1
  5619  0C23  3EFF               	skipz
  5620  0C24  1D03               	goto	u4265
  5621  0C25  2C21               	clrc
  5622  0C26  1003               	rlf	(??_scale+5)+0,w
  5623  0C27  0D47               	addlw	024h
  5624  0C28  3E24               	addlw	low((((__powers_)-__stringbase)|8000h))
  5625  0C29  3E01               	movwf	fsr0
  5626  0C2A  0084               	fcall	stringdir
  5627  0C2B  160A  158A  200A  120A  158A  	movwf	((??_scale+6)+0)
  5628  0C30  00C8               	fcall	stringdir
  5629  0C31  160A  158A  200A  120A  158A  	movwf	((??_scale+6)+0+1)
  5630  0C36  00C9               	fcall	stringdir
  5631  0C37  160A  158A  200A  120A  158A  	movwf	((??_scale+6)+0+2)
  5632  0C3C  00CA               	fcall	stringdir
  5633  0C3D  160A  158A  200A  120A  158A  	movwf	((??_scale+6)+0+3)
  5634  0C42  00CB               	movf	3+(??_scale+6)+0,w
  5635  0C43  084B               	movwf	(___flmul@a+3)
  5636  0C44  00AB               	movf	2+(??_scale+6)+0,w
  5637  0C45  084A               	movwf	(___flmul@a+2)
  5638  0C46  00AA               	movf	1+(??_scale+6)+0,w
  5639  0C47  0849               	movwf	(___flmul@a+1)
  5640  0C48  00A9               	movf	0+(??_scale+6)+0,w
  5641  0C49  0848               	movwf	(___flmul@a)
  5642  0C4A  00A8               
  5643                           	fcall	___flmul
  5644  0C4B  120A  158A  248B  120A  158A  	bcf	status, 5	;RP0=0, select bank0
  5645  0C50  1283               	bcf	status, 6	;RP1=0, select bank0
  5646  0C51  1303               	movf	(3+(?___flmul)),w
  5647  0C52  0827               	movwf	(?_scale+3)
  5648  0C53  00C1               	movf	(2+(?___flmul)),w
  5649  0C54  0826               	movwf	(?_scale+2)
  5650  0C55  00C0               	movf	(1+(?___flmul)),w
  5651  0C56  0825               	movwf	(?_scale+1)
  5652  0C57  00BF               	movf	(0+(?___flmul)),w
  5653  0C58  0824               	movwf	(?_scale)
  5654  0C59  00BE               
  5655                           	goto	l165
  5656  0C5A  2C8A               	
  5657                           l2661:	
  5658  0C5B                     	goto	l165
  5659  0C5B  2C8A               	
  5660                           l170:	
  5661  0C5C                     	goto	l2663
  5662  0C5C  2C5D               	
  5663                           l169:	
  5664  0C5D                     	line	448
  5665                           	
  5666                           l2663:	
  5667  0C5D                     ;/opt/microchip/xc8/v2.00/pic/sources/c90/common/doprnt.c: 448:  return _powers_[(unsign
                                 ed char)scl];
  5668                           	movf	(scale@scl),w
  5669  0C5D  0850               	movwf	(??_scale+0)+0
  5670  0C5E  00C2               	movlw	(02h)-1
  5671  0C5F  3001               u4275:
  5672  0C60                     	clrc
  5673  0C60  1003               	rlf	(??_scale+0)+0,f
  5674  0C61  0DC2               	addlw	-1
  5675  0C62  3EFF               	skipz
  5676  0C63  1D03               	goto	u4275
  5677  0C64  2C60               	clrc
  5678  0C65  1003               	rlf	(??_scale+0)+0,w
  5679  0C66  0D42               	addlw	low((((__powers_)-__stringbase)|8000h))
  5680  0C67  3E01               	movwf	fsr0
  5681  0C68  0084               	fcall	stringdir
  5682  0C69  160A  158A  200A  120A  158A  	movwf	((??_scale+1)+0)
  5683  0C6E  00C3               	fcall	stringdir
  5684  0C6F  160A  158A  200A  120A  158A  	movwf	((??_scale+1)+0+1)
  5685  0C74  00C4               	fcall	stringdir
  5686  0C75  160A  158A  200A  120A  158A  	movwf	((??_scale+1)+0+2)
  5687  0C7A  00C5               	fcall	stringdir
  5688  0C7B  160A  158A  200A  120A  158A  	movwf	((??_scale+1)+0+3)
  5689  0C80  00C6               	movf	3+(??_scale+1)+0,w
  5690  0C81  0846               	movwf	(?_scale+3)
  5691  0C82  00C1               	movf	2+(??_scale+1)+0,w
  5692  0C83  0845               	movwf	(?_scale+2)
  5693  0C84  00C0               	movf	1+(??_scale+1)+0,w
  5694  0C85  0844               	movwf	(?_scale+1)
  5695  0C86  00BF               	movf	0+(??_scale+1)+0,w
  5696  0C87  0843               	movwf	(?_scale)
  5697  0C88  00BE               
  5698                           	goto	l165
  5699  0C89  2C8A               	
  5700                           l2665:	
  5701  0C8A                     	line	449
  5702                           	
  5703                           l165:	
  5704  0C8A                     	return
  5705  0C8A  0008               	opt stack 0
  5706                           GLOBAL	__end_of_scale
  5707                           	__end_of_scale:
  5708  0C8B                     	signat	_scale,4220
  5709                           	global	___awmod
  5710                           
  5711 ;; *************** function ___awmod *****************
  5712 ;; Defined at:
  5713 ;;		line 5 in file "/opt/microchip/xc8/v2.00/pic/sources/c90/common/awmod.c"
  5714 ;; Parameters:    Size  Location     Type
  5715 ;;  divisor         2    0[COMMON] int 
  5716 ;;  dividend        2    2[COMMON] int 
  5717 ;; Auto vars:     Size  Location     Type
  5718 ;;  sign            1    6[COMMON] unsigned char 
  5719 ;;  counter         1    5[COMMON] unsigned char 
  5720 ;; Return value:  Size  Location     Type
  5721 ;;                  2    0[COMMON] int 
  5722 ;; Registers used:
  5723 ;;		wreg, status,2, status,0
  5724 ;; Tracked objects:
  5725 ;;		On entry : 0/0
  5726 ;;		On exit  : 0/0
  5727 ;;		Unchanged: 0/0
  5728 ;; Data sizes:     COMMON   BANK0   BANK1   BANK3   BANK2
  5729 ;;      Params:         4       0       0       0       0
  5730 ;;      Locals:         2       0       0       0       0
  5731 ;;      Temps:          1       0       0       0       0
  5732 ;;      Totals:         7       0       0       0       0
  5733 ;;Total ram usage:        7 bytes
  5734 ;; Hardware stack levels used:    1
  5735 ;; This function calls:
  5736 ;;		Nothing
  5737 ;; This function is called by:
  5738 ;;		_scale
  5739 ;; This function uses a non-reentrant model
  5740 ;;
  5741                           psect	text3,local,class=CODE,delta=2,merge=1,group=1
  5742                           	file	"/opt/microchip/xc8/v2.00/pic/sources/c90/common/awmod.c"
  5743                           	line	5
  5744                           global __ptext3
  5745                           __ptext3:	;psect for function ___awmod
  5746  1CCA                     psect	text3
  5747                           	file	"/opt/microchip/xc8/v2.00/pic/sources/c90/common/awmod.c"
  5748                           	line	5
  5749                           	global	__size_of___awmod
  5750                           	__size_of___awmod	equ	__end_of___awmod-___awmod
  5751  0063                     	
  5752                           ___awmod:	
  5753  1CCA                     ;incstack = 0
  5754                           	opt	stack 5
  5755                           ; Regs used in ___awmod: [wreg+status,2+status,0]
  5756                           	line	12
  5757                           	
  5758                           l2189:	
  5759  1CCA                     	clrf	(___awmod@sign)
  5760  1CCA  01F6               	line	13
  5761                           	
  5762                           l2191:	
  5763  1CCB                     	btfss	(___awmod@dividend+1),7
  5764  1CCB  1FF3               	goto	u2981
  5765  1CCC  2CCE               	goto	u2980
  5766  1CCD  2CCF               u2981:
  5767  1CCE                     	goto	l2197
  5768  1CCE  2CD7               u2980:
  5769  1CCF                     	line	14
  5770                           	
  5771                           l2193:	
  5772  1CCF                     	comf	(___awmod@dividend),f
  5773  1CCF  09F2               	comf	(___awmod@dividend+1),f
  5774  1CD0  09F3               	incf	(___awmod@dividend),f
  5775  1CD1  0AF2               	skipnz
  5776  1CD2  1903               	incf	(___awmod@dividend+1),f
  5777  1CD3  0AF3               	line	15
  5778                           	
  5779                           l2195:	
  5780  1CD4                     	clrf	(___awmod@sign)
  5781  1CD4  01F6               	incf	(___awmod@sign),f
  5782  1CD5  0AF6               	goto	l2197
  5783  1CD6  2CD7               	line	16
  5784                           	
  5785                           l422:	
  5786  1CD7                     	line	17
  5787                           	
  5788                           l2197:	
  5789  1CD7                     	btfss	(___awmod@divisor+1),7
  5790  1CD7  1FF1               	goto	u2991
  5791  1CD8  2CDA               	goto	u2990
  5792  1CD9  2CDB               u2991:
  5793  1CDA                     	goto	l2201
  5794  1CDA  2CE1               u2990:
  5795  1CDB                     	line	18
  5796                           	
  5797                           l2199:	
  5798  1CDB                     	comf	(___awmod@divisor),f
  5799  1CDB  09F0               	comf	(___awmod@divisor+1),f
  5800  1CDC  09F1               	incf	(___awmod@divisor),f
  5801  1CDD  0AF0               	skipnz
  5802  1CDE  1903               	incf	(___awmod@divisor+1),f
  5803  1CDF  0AF1               	goto	l2201
  5804  1CE0  2CE1               	
  5805                           l423:	
  5806  1CE1                     	line	19
  5807                           	
  5808                           l2201:	
  5809  1CE1                     	movf	((___awmod@divisor)),w
  5810  1CE1  0870               iorwf	((___awmod@divisor+1)),w
  5811  1CE2  0471               	btfsc	status,2
  5812  1CE3  1903               	goto	u3001
  5813  1CE4  2CE6               	goto	u3000
  5814  1CE5  2CE7               u3001:
  5815  1CE6                     	goto	l2219
  5816  1CE6  2D1C               u3000:
  5817  1CE7                     	line	20
  5818                           	
  5819                           l2203:	
  5820  1CE7                     	clrf	(___awmod@counter)
  5821  1CE7  01F5               	incf	(___awmod@counter),f
  5822  1CE8  0AF5               	line	21
  5823                           	goto	l2209
  5824  1CE9  2CF6               	
  5825                           l426:	
  5826  1CEA                     	line	22
  5827                           	
  5828                           l2205:	
  5829  1CEA                     	movlw	01h
  5830  1CEA  3001               	
  5831                           u3015:
  5832  1CEB                     	clrc
  5833  1CEB  1003               	rlf	(___awmod@divisor),f
  5834  1CEC  0DF0               	rlf	(___awmod@divisor+1),f
  5835  1CED  0DF1               	addlw	-1
  5836  1CEE  3EFF               	skipz
  5837  1CEF  1D03               	goto	u3015
  5838  1CF0  2CEB               	line	23
  5839                           	
  5840                           l2207:	
  5841  1CF1                     	movlw	low(01h)
  5842  1CF1  3001               	movwf	(??___awmod+0)+0
  5843  1CF2  00F4               	movf	(??___awmod+0)+0,w
  5844  1CF3  0874               	addwf	(___awmod@counter),f
  5845  1CF4  07F5               	goto	l2209
  5846  1CF5  2CF6               	line	24
  5847                           	
  5848                           l425:	
  5849  1CF6                     	line	21
  5850                           	
  5851                           l2209:	
  5852  1CF6                     	btfss	(___awmod@divisor+1),(15)&7
  5853  1CF6  1FF1               	goto	u3021
  5854  1CF7  2CF9               	goto	u3020
  5855  1CF8  2CFA               u3021:
  5856  1CF9                     	goto	l2205
  5857  1CF9  2CEA               u3020:
  5858  1CFA                     	goto	l2211
  5859  1CFA  2CFC               	
  5860                           l427:	
  5861  1CFB                     	goto	l2211
  5862  1CFB  2CFC               	line	25
  5863                           	
  5864                           l428:	
  5865  1CFC                     	line	26
  5866                           	
  5867                           l2211:	
  5868  1CFC                     	movf	(___awmod@divisor+1),w
  5869  1CFC  0871               	subwf	(___awmod@dividend+1),w
  5870  1CFD  0273               	skipz
  5871  1CFE  1D03               	goto	u3035
  5872  1CFF  2D02               	movf	(___awmod@divisor),w
  5873  1D00  0870               	subwf	(___awmod@dividend),w
  5874  1D01  0272               u3035:
  5875  1D02                     	skipc
  5876  1D02  1C03               	goto	u3031
  5877  1D03  2D05               	goto	u3030
  5878  1D04  2D06               u3031:
  5879  1D05                     	goto	l2215
  5880  1D05  2D0D               u3030:
  5881  1D06                     	line	27
  5882                           	
  5883                           l2213:	
  5884  1D06                     	movf	(___awmod@divisor),w
  5885  1D06  0870               	subwf	(___awmod@dividend),f
  5886  1D07  02F2               	movf	(___awmod@divisor+1),w
  5887  1D08  0871               	skipc
  5888  1D09  1C03               	decf	(___awmod@dividend+1),f
  5889  1D0A  03F3               	subwf	(___awmod@dividend+1),f
  5890  1D0B  02F3               	goto	l2215
  5891  1D0C  2D0D               	
  5892                           l429:	
  5893  1D0D                     	line	28
  5894                           	
  5895                           l2215:	
  5896  1D0D                     	movlw	01h
  5897  1D0D  3001               	
  5898                           u3045:
  5899  1D0E                     	clrc
  5900  1D0E  1003               	rrf	(___awmod@divisor+1),f
  5901  1D0F  0CF1               	rrf	(___awmod@divisor),f
  5902  1D10  0CF0               	addlw	-1
  5903  1D11  3EFF               	skipz
  5904  1D12  1D03               	goto	u3045
  5905  1D13  2D0E               	line	29
  5906                           	
  5907                           l2217:	
  5908  1D14                     	movlw	01h
  5909  1D14  3001               	subwf	(___awmod@counter),f
  5910  1D15  02F5               	btfss	status,2
  5911  1D16  1D03               	goto	u3051
  5912  1D17  2D19               	goto	u3050
  5913  1D18  2D1A               u3051:
  5914  1D19                     	goto	l2211
  5915  1D19  2CFC               u3050:
  5916  1D1A                     	goto	l2219
  5917  1D1A  2D1C               	
  5918                           l430:	
  5919  1D1B                     	goto	l2219
  5920  1D1B  2D1C               	line	30
  5921                           	
  5922                           l424:	
  5923  1D1C                     	line	31
  5924                           	
  5925                           l2219:	
  5926  1D1C                     	movf	((___awmod@sign)),w
  5927  1D1C  0876               	btfsc	status,2
  5928  1D1D  1903               	goto	u3061
  5929  1D1E  2D20               	goto	u3060
  5930  1D1F  2D21               u3061:
  5931  1D20                     	goto	l2223
  5932  1D20  2D27               u3060:
  5933  1D21                     	line	32
  5934                           	
  5935                           l2221:	
  5936  1D21                     	comf	(___awmod@dividend),f
  5937  1D21  09F2               	comf	(___awmod@dividend+1),f
  5938  1D22  09F3               	incf	(___awmod@dividend),f
  5939  1D23  0AF2               	skipnz
  5940  1D24  1903               	incf	(___awmod@dividend+1),f
  5941  1D25  0AF3               	goto	l2223
  5942  1D26  2D27               	
  5943                           l431:	
  5944  1D27                     	line	33
  5945                           	
  5946                           l2223:	
  5947  1D27                     	movf	(___awmod@dividend+1),w
  5948  1D27  0873               	movwf	(?___awmod+1)
  5949  1D28  00F1               	movf	(___awmod@dividend),w
  5950  1D29  0872               	movwf	(?___awmod)
  5951  1D2A  00F0               	goto	l432
  5952  1D2B  2D2C               	
  5953                           l2225:	
  5954  1D2C                     	line	34
  5955                           	
  5956                           l432:	
  5957  1D2C                     	return
  5958  1D2C  0008               	opt stack 0
  5959                           GLOBAL	__end_of___awmod
  5960                           	__end_of___awmod:
  5961  1D2D                     	signat	___awmod,8314
  5962                           	global	___awdiv
  5963                           
  5964 ;; *************** function ___awdiv *****************
  5965 ;; Defined at:
  5966 ;;		line 5 in file "/opt/microchip/xc8/v2.00/pic/sources/c90/common/awdiv.c"
  5967 ;; Parameters:    Size  Location     Type
  5968 ;;  divisor         2    7[COMMON] int 
  5969 ;;  dividend        2    9[COMMON] int 
  5970 ;; Auto vars:     Size  Location     Type
  5971 ;;  quotient        2    2[BANK0 ] int 
  5972 ;;  sign            1    1[BANK0 ] unsigned char 
  5973 ;;  counter         1    0[BANK0 ] unsigned char 
  5974 ;; Return value:  Size  Location     Type
  5975 ;;                  2    7[COMMON] int 
  5976 ;; Registers used:
  5977 ;;		wreg, status,2, status,0
  5978 ;; Tracked objects:
  5979 ;;		On entry : 0/0
  5980 ;;		On exit  : 0/0
  5981 ;;		Unchanged: 0/0
  5982 ;; Data sizes:     COMMON   BANK0   BANK1   BANK3   BANK2
  5983 ;;      Params:         4       0       0       0       0
  5984 ;;      Locals:         0       4       0       0       0
  5985 ;;      Temps:          1       0       0       0       0
  5986 ;;      Totals:         5       4       0       0       0
  5987 ;;Total ram usage:        9 bytes
  5988 ;; Hardware stack levels used:    1
  5989 ;; This function calls:
  5990 ;;		Nothing
  5991 ;; This function is called by:
  5992 ;;		_scale
  5993 ;;		_printf
  5994 ;; This function uses a non-reentrant model
  5995 ;;
  5996                           psect	text4,local,class=CODE,delta=2,merge=1,group=1
  5997                           	file	"/opt/microchip/xc8/v2.00/pic/sources/c90/common/awdiv.c"
  5998                           	line	5
  5999                           global __ptext4
  6000                           __ptext4:	;psect for function ___awdiv
  6001  101E                     psect	text4
  6002                           	file	"/opt/microchip/xc8/v2.00/pic/sources/c90/common/awdiv.c"
  6003                           	line	5
  6004                           	global	__size_of___awdiv
  6005                           	__size_of___awdiv	equ	__end_of___awdiv-___awdiv
  6006  0073                     	
  6007                           ___awdiv:	
  6008  101E                     ;incstack = 0
  6009                           	opt	stack 5
  6010                           ; Regs used in ___awdiv: [wreg+status,2+status,0]
  6011                           	line	13
  6012                           	
  6013                           l2145:	
  6014  101E                     	bcf	status, 5	;RP0=0, select bank0
  6015  101E  1283               	bcf	status, 6	;RP1=0, select bank0
  6016  101F  1303               	clrf	(___awdiv@sign)
  6017  1020  01A1               	line	14
  6018                           	
  6019                           l2147:	
  6020  1021                     	btfss	(___awdiv@divisor+1),7
  6021  1021  1FF8               	goto	u2881
  6022  1022  2824               	goto	u2880
  6023  1023  2825               u2881:
  6024  1024                     	goto	l2153
  6025  1024  282D               u2880:
  6026  1025                     	line	15
  6027                           	
  6028                           l2149:	
  6029  1025                     	comf	(___awdiv@divisor),f
  6030  1025  09F7               	comf	(___awdiv@divisor+1),f
  6031  1026  09F8               	incf	(___awdiv@divisor),f
  6032  1027  0AF7               	skipnz
  6033  1028  1903               	incf	(___awdiv@divisor+1),f
  6034  1029  0AF8               	line	16
  6035                           	
  6036                           l2151:	
  6037  102A                     	clrf	(___awdiv@sign)
  6038  102A  01A1               	incf	(___awdiv@sign),f
  6039  102B  0AA1               	goto	l2153
  6040  102C  282D               	line	17
  6041                           	
  6042                           l409:	
  6043  102D                     	line	18
  6044                           	
  6045                           l2153:	
  6046  102D                     	btfss	(___awdiv@dividend+1),7
  6047  102D  1FFA               	goto	u2891
  6048  102E  2830               	goto	u2890
  6049  102F  2831               u2891:
  6050  1030                     	goto	l2159
  6051  1030  283B               u2890:
  6052  1031                     	line	19
  6053                           	
  6054                           l2155:	
  6055  1031                     	comf	(___awdiv@dividend),f
  6056  1031  09F9               	comf	(___awdiv@dividend+1),f
  6057  1032  09FA               	incf	(___awdiv@dividend),f
  6058  1033  0AF9               	skipnz
  6059  1034  1903               	incf	(___awdiv@dividend+1),f
  6060  1035  0AFA               	line	20
  6061                           	
  6062                           l2157:	
  6063  1036                     	movlw	low(01h)
  6064  1036  3001               	movwf	(??___awdiv+0)+0
  6065  1037  00FB               	movf	(??___awdiv+0)+0,w
  6066  1038  087B               	xorwf	(___awdiv@sign),f
  6067  1039  06A1               	goto	l2159
  6068  103A  283B               	line	21
  6069                           	
  6070                           l410:	
  6071  103B                     	line	22
  6072                           	
  6073                           l2159:	
  6074  103B                     	clrf	(___awdiv@quotient)
  6075  103B  01A2               	clrf	(___awdiv@quotient+1)
  6076  103C  01A3               	line	23
  6077                           	
  6078                           l2161:	
  6079  103D                     	movf	((___awdiv@divisor)),w
  6080  103D  0877               iorwf	((___awdiv@divisor+1)),w
  6081  103E  0478               	btfsc	status,2
  6082  103F  1903               	goto	u2901
  6083  1040  2842               	goto	u2900
  6084  1041  2843               u2901:
  6085  1042                     	goto	l2181
  6086  1042  2880               u2900:
  6087  1043                     	line	24
  6088                           	
  6089                           l2163:	
  6090  1043                     	clrf	(___awdiv@counter)
  6091  1043  01A0               	incf	(___awdiv@counter),f
  6092  1044  0AA0               	line	25
  6093                           	goto	l2169
  6094  1045  2852               	
  6095                           l413:	
  6096  1046                     	line	26
  6097                           	
  6098                           l2165:	
  6099  1046                     	movlw	01h
  6100  1046  3001               	
  6101                           u2915:
  6102  1047                     	clrc
  6103  1047  1003               	rlf	(___awdiv@divisor),f
  6104  1048  0DF7               	rlf	(___awdiv@divisor+1),f
  6105  1049  0DF8               	addlw	-1
  6106  104A  3EFF               	skipz
  6107  104B  1D03               	goto	u2915
  6108  104C  2847               	line	27
  6109                           	
  6110                           l2167:	
  6111  104D                     	movlw	low(01h)
  6112  104D  3001               	movwf	(??___awdiv+0)+0
  6113  104E  00FB               	movf	(??___awdiv+0)+0,w
  6114  104F  087B               	addwf	(___awdiv@counter),f
  6115  1050  07A0               	goto	l2169
  6116  1051  2852               	line	28
  6117                           	
  6118                           l412:	
  6119  1052                     	line	25
  6120                           	
  6121                           l2169:	
  6122  1052                     	btfss	(___awdiv@divisor+1),(15)&7
  6123  1052  1FF8               	goto	u2921
  6124  1053  2855               	goto	u2920
  6125  1054  2856               u2921:
  6126  1055                     	goto	l2165
  6127  1055  2846               u2920:
  6128  1056                     	goto	l2171
  6129  1056  2858               	
  6130                           l414:	
  6131  1057                     	goto	l2171
  6132  1057  2858               	line	29
  6133                           	
  6134                           l415:	
  6135  1058                     	line	30
  6136                           	
  6137                           l2171:	
  6138  1058                     	movlw	01h
  6139  1058  3001               	
  6140                           u2935:
  6141  1059                     	clrc
  6142  1059  1003               	rlf	(___awdiv@quotient),f
  6143  105A  0DA2               	rlf	(___awdiv@quotient+1),f
  6144  105B  0DA3               	addlw	-1
  6145  105C  3EFF               	skipz
  6146  105D  1D03               	goto	u2935
  6147  105E  2859               	line	31
  6148                           	movf	(___awdiv@divisor+1),w
  6149  105F  0878               	subwf	(___awdiv@dividend+1),w
  6150  1060  027A               	skipz
  6151  1061  1D03               	goto	u2945
  6152  1062  2865               	movf	(___awdiv@divisor),w
  6153  1063  0877               	subwf	(___awdiv@dividend),w
  6154  1064  0279               u2945:
  6155  1065                     	skipc
  6156  1065  1C03               	goto	u2941
  6157  1066  2868               	goto	u2940
  6158  1067  2869               u2941:
  6159  1068                     	goto	l2177
  6160  1068  2871               u2940:
  6161  1069                     	line	32
  6162                           	
  6163                           l2173:	
  6164  1069                     	movf	(___awdiv@divisor),w
  6165  1069  0877               	subwf	(___awdiv@dividend),f
  6166  106A  02F9               	movf	(___awdiv@divisor+1),w
  6167  106B  0878               	skipc
  6168  106C  1C03               	decf	(___awdiv@dividend+1),f
  6169  106D  03FA               	subwf	(___awdiv@dividend+1),f
  6170  106E  02FA               	line	33
  6171                           	
  6172                           l2175:	
  6173  106F                     	bsf	(___awdiv@quotient)+(0/8),(0)&7
  6174  106F  1422               	goto	l2177
  6175  1070  2871               	line	34
  6176                           	
  6177                           l416:	
  6178  1071                     	line	35
  6179                           	
  6180                           l2177:	
  6181  1071                     	movlw	01h
  6182  1071  3001               	
  6183                           u2955:
  6184  1072                     	clrc
  6185  1072  1003               	rrf	(___awdiv@divisor+1),f
  6186  1073  0CF8               	rrf	(___awdiv@divisor),f
  6187  1074  0CF7               	addlw	-1
  6188  1075  3EFF               	skipz
  6189  1076  1D03               	goto	u2955
  6190  1077  2872               	line	36
  6191                           	
  6192                           l2179:	
  6193  1078                     	movlw	01h
  6194  1078  3001               	subwf	(___awdiv@counter),f
  6195  1079  02A0               	btfss	status,2
  6196  107A  1D03               	goto	u2961
  6197  107B  287D               	goto	u2960
  6198  107C  287E               u2961:
  6199  107D                     	goto	l2171
  6200  107D  2858               u2960:
  6201  107E                     	goto	l2181
  6202  107E  2880               	
  6203                           l417:	
  6204  107F                     	goto	l2181
  6205  107F  2880               	line	37
  6206                           	
  6207                           l411:	
  6208  1080                     	line	38
  6209                           	
  6210                           l2181:	
  6211  1080                     	movf	((___awdiv@sign)),w
  6212  1080  0821               	btfsc	status,2
  6213  1081  1903               	goto	u2971
  6214  1082  2884               	goto	u2970
  6215  1083  2885               u2971:
  6216  1084                     	goto	l2185
  6217  1084  288B               u2970:
  6218  1085                     	line	39
  6219                           	
  6220                           l2183:	
  6221  1085                     	comf	(___awdiv@quotient),f
  6222  1085  09A2               	comf	(___awdiv@quotient+1),f
  6223  1086  09A3               	incf	(___awdiv@quotient),f
  6224  1087  0AA2               	skipnz
  6225  1088  1903               	incf	(___awdiv@quotient+1),f
  6226  1089  0AA3               	goto	l2185
  6227  108A  288B               	
  6228                           l418:	
  6229  108B                     	line	40
  6230                           	
  6231                           l2185:	
  6232  108B                     	movf	(___awdiv@quotient+1),w
  6233  108B  0823               	movwf	(?___awdiv+1)
  6234  108C  00F8               	movf	(___awdiv@quotient),w
  6235  108D  0822               	movwf	(?___awdiv)
  6236  108E  00F7               	goto	l419
  6237  108F  2890               	
  6238                           l2187:	
  6239  1090                     	line	41
  6240                           	
  6241                           l419:	
  6242  1090                     	return
  6243  1090  0008               	opt stack 0
  6244                           GLOBAL	__end_of___awdiv
  6245                           	__end_of___awdiv:
  6246  1091                     	signat	___awdiv,8314
  6247                           	global	_putch
  6248                           
  6249 ;; *************** function _putch *****************
  6250 ;; Defined at:
  6251 ;;		line 7 in file "/opt/microchip/xc8/v2.00/pic/sources/c90/common/putch.c"
  6252 ;; Parameters:    Size  Location     Type
  6253 ;;  c               1    wreg     unsigned char 
  6254 ;; Auto vars:     Size  Location     Type
  6255 ;;  c               1    0[COMMON] unsigned char 
  6256 ;; Return value:  Size  Location     Type
  6257 ;;                  1    wreg      void 
  6258 ;; Registers used:
  6259 ;;		wreg
  6260 ;; Tracked objects:
  6261 ;;		On entry : 0/0
  6262 ;;		On exit  : 0/0
  6263 ;;		Unchanged: 0/0
  6264 ;; Data sizes:     COMMON   BANK0   BANK1   BANK3   BANK2
  6265 ;;      Params:         0       0       0       0       0
  6266 ;;      Locals:         0       0       0       0       0
  6267 ;;      Temps:          0       0       0       0       0
  6268 ;;      Totals:         0       0       0       0       0
  6269 ;;Total ram usage:        0 bytes
  6270 ;; Hardware stack levels used:    1
  6271 ;; This function calls:
  6272 ;;		Nothing
  6273 ;; This function is called by:
  6274 ;;		_printf
  6275 ;; This function uses a non-reentrant model
  6276 ;;
  6277                           psect	text5,local,class=CODE,delta=2,merge=1,group=2
  6278                           	file	"/opt/microchip/xc8/v2.00/pic/sources/c90/common/putch.c"
  6279                           	line	7
  6280                           global __ptext5
  6281                           __ptext5:	;psect for function _putch
  6282  080D                     psect	text5
  6283                           	file	"/opt/microchip/xc8/v2.00/pic/sources/c90/common/putch.c"
  6284                           	line	7
  6285                           	global	__size_of_putch
  6286                           	__size_of_putch	equ	__end_of_putch-_putch
  6287  0001                     	
  6288                           _putch:	
  6289  080D                     ;incstack = 0
  6290                           	opt	stack 6
  6291                           ; Regs used in _putch: [wreg]
  6292                           	line	9
  6293                           	
  6294                           l735:	
  6295  080D                     	return
  6296  080D  0008               	opt stack 0
  6297                           GLOBAL	__end_of_putch
  6298                           	__end_of_putch:
  6299  080E                     	signat	_putch,4217
  6300                           	global	_isdigit
  6301                           
  6302 ;; *************** function _isdigit *****************
  6303 ;; Defined at:
  6304 ;;		line 8 in file "/opt/microchip/xc8/v2.00/pic/sources/c90/common/isdigit.c"
  6305 ;; Parameters:    Size  Location     Type
  6306 ;;  c               1    wreg     unsigned char 
  6307 ;; Auto vars:     Size  Location     Type
  6308 ;;  c               1    1[COMMON] unsigned char 
  6309 ;; Return value:  Size  Location     Type
  6310 ;;		None               void
  6311 ;; Registers used:
  6312 ;;		wreg, status,2, status,0
  6313 ;; Tracked objects:
  6314 ;;		On entry : 0/0
  6315 ;;		On exit  : 0/0
  6316 ;;		Unchanged: 0/0
  6317 ;; Data sizes:     COMMON   BANK0   BANK1   BANK3   BANK2
  6318 ;;      Params:         0       0       0       0       0
  6319 ;;      Locals:         2       0       0       0       0
  6320 ;;      Temps:          0       0       0       0       0
  6321 ;;      Totals:         2       0       0       0       0
  6322 ;;Total ram usage:        2 bytes
  6323 ;; Hardware stack levels used:    1
  6324 ;; This function calls:
  6325 ;;		Nothing
  6326 ;; This function is called by:
  6327 ;;		_printf
  6328 ;; This function uses a non-reentrant model
  6329 ;;
  6330                           psect	text6,local,class=CODE,delta=2,merge=1,group=2
  6331                           	file	"/opt/microchip/xc8/v2.00/pic/sources/c90/common/isdigit.c"
  6332                           	line	8
  6333                           global __ptext6
  6334                           __ptext6:	;psect for function _isdigit
  6335  100A                     psect	text6
  6336                           	file	"/opt/microchip/xc8/v2.00/pic/sources/c90/common/isdigit.c"
  6337                           	line	8
  6338                           	global	__size_of_isdigit
  6339                           	__size_of_isdigit	equ	__end_of_isdigit-_isdigit
  6340  0014                     	
  6341                           _isdigit:	
  6342  100A                     ;incstack = 0
  6343                           	opt	stack 6
  6344                           ; Regs used in _isdigit: [wreg+status,2+status,0]
  6345                           ;isdigit@c stored from wreg
  6346                           	movwf	(isdigit@c)
  6347  100A  00F1               	line	14
  6348                           	
  6349                           l2667:	
  6350  100B                     	clrf	(_isdigit$703)
  6351  100B  01F0               	
  6352                           l2669:	
  6353  100C                     	movlw	low(03Ah)
  6354  100C  303A               	subwf	(isdigit@c),w
  6355  100D  0271               	skipnc
  6356  100E  1803               	goto	u4281
  6357  100F  2811               	goto	u4280
  6358  1010  2812               u4281:
  6359  1011                     	goto	l2675
  6360  1011  281B               u4280:
  6361  1012                     	
  6362                           l2671:	
  6363  1012                     	movlw	low(030h)
  6364  1012  3030               	subwf	(isdigit@c),w
  6365  1013  0271               	skipc
  6366  1014  1C03               	goto	u4291
  6367  1015  2817               	goto	u4290
  6368  1016  2818               u4291:
  6369  1017                     	goto	l2675
  6370  1017  281B               u4290:
  6371  1018                     	
  6372                           l2673:	
  6373  1018                     	clrf	(_isdigit$703)
  6374  1018  01F0               	incf	(_isdigit$703),f
  6375  1019  0AF0               	goto	l2675
  6376  101A  281B               	
  6377                           l727:	
  6378  101B                     	
  6379                           l2675:	
  6380  101B                     	rrf	(_isdigit$703),w
  6381  101B  0C70               	
  6382                           	goto	l728
  6383  101C  281D               	
  6384                           l2677:	
  6385  101D                     	line	15
  6386                           	
  6387                           l728:	
  6388  101D                     	return
  6389  101D  0008               	opt stack 0
  6390                           GLOBAL	__end_of_isdigit
  6391                           	__end_of_isdigit:
  6392  101E                     	signat	_isdigit,4216
  6393                           	global	_fround
  6394                           
  6395 ;; *************** function _fround *****************
  6396 ;; Defined at:
  6397 ;;		line 417 in file "/opt/microchip/xc8/v2.00/pic/sources/c90/common/doprnt.c"
  6398 ;; Parameters:    Size  Location     Type
  6399 ;;  prec            1    wreg     unsigned char 
  6400 ;; Auto vars:     Size  Location     Type
  6401 ;;  prec            1   49[BANK0 ] unsigned char 
  6402 ;; Return value:  Size  Location     Type
  6403 ;;                  4   30[BANK0 ] unsigned char 
  6404 ;; Registers used:
  6405 ;;		wreg, fsr0l, fsr0h, status,2, status,0, btemp+1, pclath, cstack
  6406 ;; Tracked objects:
  6407 ;;		On entry : 0/0
  6408 ;;		On exit  : 0/0
  6409 ;;		Unchanged: 0/0
  6410 ;; Data sizes:     COMMON   BANK0   BANK1   BANK3   BANK2
  6411 ;;      Params:         0       4       0       0       0
  6412 ;;      Locals:         0       9       0       0       0
  6413 ;;      Temps:          0       7       0       0       0
  6414 ;;      Totals:         0      20       0       0       0
  6415 ;;Total ram usage:       20 bytes
  6416 ;; Hardware stack levels used:    1
  6417 ;; Hardware stack levels required when called:    2
  6418 ;; This function calls:
  6419 ;;		___flmul
  6420 ;;		___lwdiv
  6421 ;;		___lwmod
  6422 ;; This function is called by:
  6423 ;;		_printf
  6424 ;; This function uses a non-reentrant model
  6425 ;;
  6426                           psect	text7,local,class=CODE,delta=2,merge=1,group=0
  6427                           	file	"/opt/microchip/xc8/v2.00/pic/sources/c90/common/doprnt.c"
  6428                           	line	417
  6429                           global __ptext7
  6430                           __ptext7:	;psect for function _fround
  6431  1331                     psect	text7
  6432                           	file	"/opt/microchip/xc8/v2.00/pic/sources/c90/common/doprnt.c"
  6433                           	line	417
  6434                           	global	__size_of_fround
  6435                           	__size_of_fround	equ	__end_of_fround-_fround
  6436  0213                     	
  6437                           _fround:	
  6438  1331                     ;incstack = 0
  6439                           	opt	stack 4
  6440                           ; Regs used in _fround: [wreg-fsr0h+status,2+status,0+btemp+1+pclath+cstack]
  6441                           ;fround@prec stored from wreg
  6442                           	bcf	status, 5	;RP0=0, select bank0
  6443  1331  1283               	bcf	status, 6	;RP1=0, select bank0
  6444  1332  1303               	movwf	(fround@prec)
  6445  1333  00D1               	line	421
  6446                           	
  6447                           l2609:	
  6448  1334                     ;/opt/microchip/xc8/v2.00/pic/sources/c90/common/doprnt.c: 417: fround(unsigned char pre
                                 c);/opt/microchip/xc8/v2.00/pic/sources/c90/common/doprnt.c: 418: {;/opt/microchip/xc8/v
                                 2.00/pic/sources/c90/common/doprnt.c: 421:  if(prec>=110)
  6449                           	movlw	low(06Eh)
  6450  1334  306E               	subwf	(fround@prec),w
  6451  1335  0251               	skipc
  6452  1336  1C03               	goto	u4031
  6453  1337  2B39               	goto	u4030
  6454  1338  2B3A               u4031:
  6455  1339                     	goto	l2617
  6456  1339  2C4B               u4030:
  6457  133A                     	line	422
  6458                           	
  6459                           l2611:	
  6460  133A                     ;/opt/microchip/xc8/v2.00/pic/sources/c90/common/doprnt.c: 422:   return 0.5 * _npowers_
                                 [prec/100U+18U] * _npowers_[(prec%100U)/10U+9U] * _npowers_[prec%10U];
  6461                           	movlw	0x3f
  6462  133A  303F               	movwf	(___flmul@b+3)
  6463  133B  00A7               	movlw	0x0
  6464  133C  3000               	movwf	(___flmul@b+2)
  6465  133D  00A6               	movlw	0x0
  6466  133E  3000               	movwf	(___flmul@b+1)
  6467  133F  00A5               	movlw	0x0
  6468  1340  3000               	movwf	(___flmul@b)
  6469  1341  00A4               
  6470                           	movlw	064h
  6471  1342  3064               	movwf	(___lwdiv@divisor)
  6472  1343  00F6               	movlw	0
  6473  1344  3000               	movwf	((___lwdiv@divisor))+1
  6474  1345  00F7               	movf	(fround@prec),w
  6475  1346  0851               	movwf	(??_fround+0)+0
  6476  1347  00C2               	clrf	(??_fround+0)+0+1
  6477  1348  01C3               	movf	0+(??_fround+0)+0,w
  6478  1349  0842               	movwf	(___lwdiv@dividend)
  6479  134A  00F8               	movf	1+(??_fround+0)+0,w
  6480  134B  0843               	movwf	(___lwdiv@dividend+1)
  6481  134C  00F9               	fcall	___lwdiv
  6482  134D  160A  158A  2383  160A  118A  	movf	(0+(?___lwdiv)),w
  6483  1352  0876               	bcf	status, 5	;RP0=0, select bank0
  6484  1353  1283               	bcf	status, 6	;RP1=0, select bank0
  6485  1354  1303               	movwf	(??_fround+2)+0
  6486  1355  00C4               	movlw	(02h)-1
  6487  1356  3001               u4045:
  6488  1357                     	clrc
  6489  1357  1003               	rlf	(??_fround+2)+0,f
  6490  1358  0DC4               	addlw	-1
  6491  1359  3EFF               	skipz
  6492  135A  1D03               	goto	u4045
  6493  135B  2B57               	clrc
  6494  135C  1003               	rlf	(??_fround+2)+0,w
  6495  135D  0D44               	addlw	048h
  6496  135E  3E48               	addlw	low((((__npowers_)-__stringbase)|8000h))
  6497  135F  3E35               	movwf	fsr0
  6498  1360  0084               	fcall	stringdir
  6499  1361  160A  158A  200A  160A  118A  	movwf	((??_fround+3)+0)
  6500  1366  00C5               	fcall	stringdir
  6501  1367  160A  158A  200A  160A  118A  	movwf	((??_fround+3)+0+1)
  6502  136C  00C6               	fcall	stringdir
  6503  136D  160A  158A  200A  160A  118A  	movwf	((??_fround+3)+0+2)
  6504  1372  00C7               	fcall	stringdir
  6505  1373  160A  158A  200A  160A  118A  	movwf	((??_fround+3)+0+3)
  6506  1378  00C8               	movf	3+(??_fround+3)+0,w
  6507  1379  0848               	movwf	(___flmul@a+3)
  6508  137A  00AB               	movf	2+(??_fround+3)+0,w
  6509  137B  0847               	movwf	(___flmul@a+2)
  6510  137C  00AA               	movf	1+(??_fround+3)+0,w
  6511  137D  0846               	movwf	(___flmul@a+1)
  6512  137E  00A9               	movf	0+(??_fround+3)+0,w
  6513  137F  0845               	movwf	(___flmul@a)
  6514  1380  00A8               
  6515                           	fcall	___flmul
  6516  1381  120A  158A  248B  160A  118A  	bcf	status, 5	;RP0=0, select bank0
  6517  1386  1283               	bcf	status, 6	;RP1=0, select bank0
  6518  1387  1303               	movf	(3+(?___flmul)),w
  6519  1388  0827               	movwf	(_fround$876+3)
  6520  1389  00D0               	movf	(2+(?___flmul)),w
  6521  138A  0826               	movwf	(_fround$876+2)
  6522  138B  00CF               	movf	(1+(?___flmul)),w
  6523  138C  0825               	movwf	(_fround$876+1)
  6524  138D  00CE               	movf	(0+(?___flmul)),w
  6525  138E  0824               	movwf	(_fround$876)
  6526  138F  00CD               
  6527                           ;/opt/microchip/xc8/v2.00/pic/sources/c90/common/doprnt.c: 422:   return 0.5 * _npowers_
                                 [prec/100U+18U] * _npowers_[(prec%100U)/10U+9U] * _npowers_[prec%10U];
  6528                           	movlw	0Ah
  6529  1390  300A               	movwf	(___lwdiv@divisor)
  6530  1391  00F6               	movlw	0
  6531  1392  3000               	movwf	((___lwdiv@divisor))+1
  6532  1393  00F7               	movf	(fround@prec),w
  6533  1394  0851               	movwf	(??_fround+0)+0
  6534  1395  00C2               	clrf	(??_fround+0)+0+1
  6535  1396  01C3               	movf	0+(??_fround+0)+0,w
  6536  1397  0842               	movwf	(___lwmod@dividend)
  6537  1398  00F2               	movf	1+(??_fround+0)+0,w
  6538  1399  0843               	movwf	(___lwmod@dividend+1)
  6539  139A  00F3               	movlw	064h
  6540  139B  3064               	movwf	(___lwmod@divisor)
  6541  139C  00F0               	movlw	0
  6542  139D  3000               	movwf	((___lwmod@divisor))+1
  6543  139E  00F1               	fcall	___lwmod
  6544  139F  160A  158A  22FA  160A  118A  	movf	(1+(?___lwmod)),w
  6545  13A4  0871               	movwf	(___lwdiv@dividend+1)
  6546  13A5  00F9               	movf	(0+(?___lwmod)),w
  6547  13A6  0870               	movwf	(___lwdiv@dividend)
  6548  13A7  00F8               	fcall	___lwdiv
  6549  13A8  160A  158A  2383  160A  118A  	movf	(0+(?___lwdiv)),w
  6550  13AD  0876               	bcf	status, 5	;RP0=0, select bank0
  6551  13AE  1283               	bcf	status, 6	;RP1=0, select bank0
  6552  13AF  1303               	movwf	(??_fround+2)+0
  6553  13B0  00C4               	movlw	(02h)-1
  6554  13B1  3001               u4055:
  6555  13B2                     	clrc
  6556  13B2  1003               	rlf	(??_fround+2)+0,f
  6557  13B3  0DC4               	addlw	-1
  6558  13B4  3EFF               	skipz
  6559  13B5  1D03               	goto	u4055
  6560  13B6  2BB2               	clrc
  6561  13B7  1003               	rlf	(??_fround+2)+0,w
  6562  13B8  0D44               	addlw	024h
  6563  13B9  3E24               	addlw	low((((__npowers_)-__stringbase)|8000h))
  6564  13BA  3E35               	movwf	fsr0
  6565  13BB  0084               	fcall	stringdir
  6566  13BC  160A  158A  200A  160A  118A  	movwf	((??_fround+3)+0)
  6567  13C1  00C5               	fcall	stringdir
  6568  13C2  160A  158A  200A  160A  118A  	movwf	((??_fround+3)+0+1)
  6569  13C7  00C6               	fcall	stringdir
  6570  13C8  160A  158A  200A  160A  118A  	movwf	((??_fround+3)+0+2)
  6571  13CD  00C7               	fcall	stringdir
  6572  13CE  160A  158A  200A  160A  118A  	movwf	((??_fround+3)+0+3)
  6573  13D3  00C8               	movf	3+(??_fround+3)+0,w
  6574  13D4  0848               	movwf	(___flmul@b+3)
  6575  13D5  00A7               	movf	2+(??_fround+3)+0,w
  6576  13D6  0847               	movwf	(___flmul@b+2)
  6577  13D7  00A6               	movf	1+(??_fround+3)+0,w
  6578  13D8  0846               	movwf	(___flmul@b+1)
  6579  13D9  00A5               	movf	0+(??_fround+3)+0,w
  6580  13DA  0845               	movwf	(___flmul@b)
  6581  13DB  00A4               
  6582                           	movf	(_fround$876+3),w
  6583  13DC  0850               	movwf	(___flmul@a+3)
  6584  13DD  00AB               	movf	(_fround$876+2),w
  6585  13DE  084F               	movwf	(___flmul@a+2)
  6586  13DF  00AA               	movf	(_fround$876+1),w
  6587  13E0  084E               	movwf	(___flmul@a+1)
  6588  13E1  00A9               	movf	(_fround$876),w
  6589  13E2  084D               	movwf	(___flmul@a)
  6590  13E3  00A8               
  6591                           	fcall	___flmul
  6592  13E4  120A  158A  248B  160A  118A  	bcf	status, 5	;RP0=0, select bank0
  6593  13E9  1283               	bcf	status, 6	;RP1=0, select bank0
  6594  13EA  1303               	movf	(3+(?___flmul)),w
  6595  13EB  0827               	movwf	(_fround$877+3)
  6596  13EC  00CC               	movf	(2+(?___flmul)),w
  6597  13ED  0826               	movwf	(_fround$877+2)
  6598  13EE  00CB               	movf	(1+(?___flmul)),w
  6599  13EF  0825               	movwf	(_fround$877+1)
  6600  13F0  00CA               	movf	(0+(?___flmul)),w
  6601  13F1  0824               	movwf	(_fround$877)
  6602  13F2  00C9               
  6603                           ;/opt/microchip/xc8/v2.00/pic/sources/c90/common/doprnt.c: 422:   return 0.5 * _npowers_
                                 [prec/100U+18U] * _npowers_[(prec%100U)/10U+9U] * _npowers_[prec%10U];
  6604                           	movlw	0Ah
  6605  13F3  300A               	movwf	(___lwmod@divisor)
  6606  13F4  00F0               	movlw	0
  6607  13F5  3000               	movwf	((___lwmod@divisor))+1
  6608  13F6  00F1               	movf	(fround@prec),w
  6609  13F7  0851               	movwf	(??_fround+0)+0
  6610  13F8  00C2               	clrf	(??_fround+0)+0+1
  6611  13F9  01C3               	movf	0+(??_fround+0)+0,w
  6612  13FA  0842               	movwf	(___lwmod@dividend)
  6613  13FB  00F2               	movf	1+(??_fround+0)+0,w
  6614  13FC  0843               	movwf	(___lwmod@dividend+1)
  6615  13FD  00F3               	fcall	___lwmod
  6616  13FE  160A  158A  22FA  160A  118A  	movf	(0+(?___lwmod)),w
  6617  1403  0870               	bcf	status, 5	;RP0=0, select bank0
  6618  1404  1283               	bcf	status, 6	;RP1=0, select bank0
  6619  1405  1303               	movwf	(??_fround+2)+0
  6620  1406  00C4               	movlw	(02h)-1
  6621  1407  3001               u4065:
  6622  1408                     	clrc
  6623  1408  1003               	rlf	(??_fround+2)+0,f
  6624  1409  0DC4               	addlw	-1
  6625  140A  3EFF               	skipz
  6626  140B  1D03               	goto	u4065
  6627  140C  2C08               	clrc
  6628  140D  1003               	rlf	(??_fround+2)+0,w
  6629  140E  0D44               	addlw	low((((__npowers_)-__stringbase)|8000h))
  6630  140F  3E35               	movwf	fsr0
  6631  1410  0084               	fcall	stringdir
  6632  1411  160A  158A  200A  160A  118A  	movwf	((??_fround+3)+0)
  6633  1416  00C5               	fcall	stringdir
  6634  1417  160A  158A  200A  160A  118A  	movwf	((??_fround+3)+0+1)
  6635  141C  00C6               	fcall	stringdir
  6636  141D  160A  158A  200A  160A  118A  	movwf	((??_fround+3)+0+2)
  6637  1422  00C7               	fcall	stringdir
  6638  1423  160A  158A  200A  160A  118A  	movwf	((??_fround+3)+0+3)
  6639  1428  00C8               	movf	3+(??_fround+3)+0,w
  6640  1429  0848               	movwf	(___flmul@b+3)
  6641  142A  00A7               	movf	2+(??_fround+3)+0,w
  6642  142B  0847               	movwf	(___flmul@b+2)
  6643  142C  00A6               	movf	1+(??_fround+3)+0,w
  6644  142D  0846               	movwf	(___flmul@b+1)
  6645  142E  00A5               	movf	0+(??_fround+3)+0,w
  6646  142F  0845               	movwf	(___flmul@b)
  6647  1430  00A4               
  6648                           	movf	(_fround$877+3),w
  6649  1431  084C               	movwf	(___flmul@a+3)
  6650  1432  00AB               	movf	(_fround$877+2),w
  6651  1433  084B               	movwf	(___flmul@a+2)
  6652  1434  00AA               	movf	(_fround$877+1),w
  6653  1435  084A               	movwf	(___flmul@a+1)
  6654  1436  00A9               	movf	(_fround$877),w
  6655  1437  0849               	movwf	(___flmul@a)
  6656  1438  00A8               
  6657                           	fcall	___flmul
  6658  1439  120A  158A  248B  160A  118A  	bcf	status, 5	;RP0=0, select bank0
  6659  143E  1283               	bcf	status, 6	;RP1=0, select bank0
  6660  143F  1303               	movf	(3+(?___flmul)),w
  6661  1440  0827               	movwf	(?_fround+3)
  6662  1441  00C1               	movf	(2+(?___flmul)),w
  6663  1442  0826               	movwf	(?_fround+2)
  6664  1443  00C0               	movf	(1+(?___flmul)),w
  6665  1444  0825               	movwf	(?_fround+1)
  6666  1445  00BF               	movf	(0+(?___flmul)),w
  6667  1446  0824               	movwf	(?_fround)
  6668  1447  00BE               
  6669                           	goto	l158
  6670  1448  2D43               	
  6671                           l2613:	
  6672  1449                     	goto	l158
  6673  1449  2D43               	
  6674                           l2615:	
  6675  144A                     	goto	l2623
  6676  144A  2CFF               	line	423
  6677                           ;/opt/microchip/xc8/v2.00/pic/sources/c90/common/doprnt.c: 423:  else if(prec > 10)
  6678                           	
  6679                           l157:	
  6680  144B                     	
  6681                           l2617:	
  6682  144B                     	movlw	low(0Bh)
  6683  144B  300B               	subwf	(fround@prec),w
  6684  144C  0251               	skipc
  6685  144D  1C03               	goto	u4071
  6686  144E  2C50               	goto	u4070
  6687  144F  2C51               u4071:
  6688  1450                     	goto	l2623
  6689  1450  2CFF               u4070:
  6690  1451                     	line	424
  6691                           	
  6692                           l2619:	
  6693  1451                     ;/opt/microchip/xc8/v2.00/pic/sources/c90/common/doprnt.c: 424:   return 0.5 * _npowers_
                                 [prec/10U+9U] * _npowers_[prec%10U];
  6694                           	movlw	0x3f
  6695  1451  303F               	movwf	(___flmul@b+3)
  6696  1452  00A7               	movlw	0x0
  6697  1453  3000               	movwf	(___flmul@b+2)
  6698  1454  00A6               	movlw	0x0
  6699  1455  3000               	movwf	(___flmul@b+1)
  6700  1456  00A5               	movlw	0x0
  6701  1457  3000               	movwf	(___flmul@b)
  6702  1458  00A4               
  6703                           	movlw	0Ah
  6704  1459  300A               	movwf	(___lwdiv@divisor)
  6705  145A  00F6               	movlw	0
  6706  145B  3000               	movwf	((___lwdiv@divisor))+1
  6707  145C  00F7               	movf	(fround@prec),w
  6708  145D  0851               	movwf	(??_fround+0)+0
  6709  145E  00C2               	clrf	(??_fround+0)+0+1
  6710  145F  01C3               	movf	0+(??_fround+0)+0,w
  6711  1460  0842               	movwf	(___lwdiv@dividend)
  6712  1461  00F8               	movf	1+(??_fround+0)+0,w
  6713  1462  0843               	movwf	(___lwdiv@dividend+1)
  6714  1463  00F9               	fcall	___lwdiv
  6715  1464  160A  158A  2383  160A  118A  	movf	(0+(?___lwdiv)),w
  6716  1469  0876               	bcf	status, 5	;RP0=0, select bank0
  6717  146A  1283               	bcf	status, 6	;RP1=0, select bank0
  6718  146B  1303               	movwf	(??_fround+2)+0
  6719  146C  00C4               	movlw	(02h)-1
  6720  146D  3001               u4085:
  6721  146E                     	clrc
  6722  146E  1003               	rlf	(??_fround+2)+0,f
  6723  146F  0DC4               	addlw	-1
  6724  1470  3EFF               	skipz
  6725  1471  1D03               	goto	u4085
  6726  1472  2C6E               	clrc
  6727  1473  1003               	rlf	(??_fround+2)+0,w
  6728  1474  0D44               	addlw	024h
  6729  1475  3E24               	addlw	low((((__npowers_)-__stringbase)|8000h))
  6730  1476  3E35               	movwf	fsr0
  6731  1477  0084               	fcall	stringdir
  6732  1478  160A  158A  200A  160A  118A  	movwf	((??_fround+3)+0)
  6733  147D  00C5               	fcall	stringdir
  6734  147E  160A  158A  200A  160A  118A  	movwf	((??_fround+3)+0+1)
  6735  1483  00C6               	fcall	stringdir
  6736  1484  160A  158A  200A  160A  118A  	movwf	((??_fround+3)+0+2)
  6737  1489  00C7               	fcall	stringdir
  6738  148A  160A  158A  200A  160A  118A  	movwf	((??_fround+3)+0+3)
  6739  148F  00C8               	movf	3+(??_fround+3)+0,w
  6740  1490  0848               	movwf	(___flmul@a+3)
  6741  1491  00AB               	movf	2+(??_fround+3)+0,w
  6742  1492  0847               	movwf	(___flmul@a+2)
  6743  1493  00AA               	movf	1+(??_fround+3)+0,w
  6744  1494  0846               	movwf	(___flmul@a+1)
  6745  1495  00A9               	movf	0+(??_fround+3)+0,w
  6746  1496  0845               	movwf	(___flmul@a)
  6747  1497  00A8               
  6748                           	fcall	___flmul
  6749  1498  120A  158A  248B  160A  118A  	bcf	status, 5	;RP0=0, select bank0
  6750  149D  1283               	bcf	status, 6	;RP1=0, select bank0
  6751  149E  1303               	movf	(3+(?___flmul)),w
  6752  149F  0827               	movwf	(_fround$876+3)
  6753  14A0  00D0               	movf	(2+(?___flmul)),w
  6754  14A1  0826               	movwf	(_fround$876+2)
  6755  14A2  00CF               	movf	(1+(?___flmul)),w
  6756  14A3  0825               	movwf	(_fround$876+1)
  6757  14A4  00CE               	movf	(0+(?___flmul)),w
  6758  14A5  0824               	movwf	(_fround$876)
  6759  14A6  00CD               
  6760                           ;/opt/microchip/xc8/v2.00/pic/sources/c90/common/doprnt.c: 424:   return 0.5 * _npowers_
                                 [prec/10U+9U] * _npowers_[prec%10U];
  6761                           	movlw	0Ah
  6762  14A7  300A               	movwf	(___lwmod@divisor)
  6763  14A8  00F0               	movlw	0
  6764  14A9  3000               	movwf	((___lwmod@divisor))+1
  6765  14AA  00F1               	movf	(fround@prec),w
  6766  14AB  0851               	movwf	(??_fround+0)+0
  6767  14AC  00C2               	clrf	(??_fround+0)+0+1
  6768  14AD  01C3               	movf	0+(??_fround+0)+0,w
  6769  14AE  0842               	movwf	(___lwmod@dividend)
  6770  14AF  00F2               	movf	1+(??_fround+0)+0,w
  6771  14B0  0843               	movwf	(___lwmod@dividend+1)
  6772  14B1  00F3               	fcall	___lwmod
  6773  14B2  160A  158A  22FA  160A  118A  	movf	(0+(?___lwmod)),w
  6774  14B7  0870               	bcf	status, 5	;RP0=0, select bank0
  6775  14B8  1283               	bcf	status, 6	;RP1=0, select bank0
  6776  14B9  1303               	movwf	(??_fround+2)+0
  6777  14BA  00C4               	movlw	(02h)-1
  6778  14BB  3001               u4095:
  6779  14BC                     	clrc
  6780  14BC  1003               	rlf	(??_fround+2)+0,f
  6781  14BD  0DC4               	addlw	-1
  6782  14BE  3EFF               	skipz
  6783  14BF  1D03               	goto	u4095
  6784  14C0  2CBC               	clrc
  6785  14C1  1003               	rlf	(??_fround+2)+0,w
  6786  14C2  0D44               	addlw	low((((__npowers_)-__stringbase)|8000h))
  6787  14C3  3E35               	movwf	fsr0
  6788  14C4  0084               	fcall	stringdir
  6789  14C5  160A  158A  200A  160A  118A  	movwf	((??_fround+3)+0)
  6790  14CA  00C5               	fcall	stringdir
  6791  14CB  160A  158A  200A  160A  118A  	movwf	((??_fround+3)+0+1)
  6792  14D0  00C6               	fcall	stringdir
  6793  14D1  160A  158A  200A  160A  118A  	movwf	((??_fround+3)+0+2)
  6794  14D6  00C7               	fcall	stringdir
  6795  14D7  160A  158A  200A  160A  118A  	movwf	((??_fround+3)+0+3)
  6796  14DC  00C8               	movf	3+(??_fround+3)+0,w
  6797  14DD  0848               	movwf	(___flmul@b+3)
  6798  14DE  00A7               	movf	2+(??_fround+3)+0,w
  6799  14DF  0847               	movwf	(___flmul@b+2)
  6800  14E0  00A6               	movf	1+(??_fround+3)+0,w
  6801  14E1  0846               	movwf	(___flmul@b+1)
  6802  14E2  00A5               	movf	0+(??_fround+3)+0,w
  6803  14E3  0845               	movwf	(___flmul@b)
  6804  14E4  00A4               
  6805                           	movf	(_fround$876+3),w
  6806  14E5  0850               	movwf	(___flmul@a+3)
  6807  14E6  00AB               	movf	(_fround$876+2),w
  6808  14E7  084F               	movwf	(___flmul@a+2)
  6809  14E8  00AA               	movf	(_fround$876+1),w
  6810  14E9  084E               	movwf	(___flmul@a+1)
  6811  14EA  00A9               	movf	(_fround$876),w
  6812  14EB  084D               	movwf	(___flmul@a)
  6813  14EC  00A8               
  6814                           	fcall	___flmul
  6815  14ED  120A  158A  248B  160A  118A  	bcf	status, 5	;RP0=0, select bank0
  6816  14F2  1283               	bcf	status, 6	;RP1=0, select bank0
  6817  14F3  1303               	movf	(3+(?___flmul)),w
  6818  14F4  0827               	movwf	(?_fround+3)
  6819  14F5  00C1               	movf	(2+(?___flmul)),w
  6820  14F6  0826               	movwf	(?_fround+2)
  6821  14F7  00C0               	movf	(1+(?___flmul)),w
  6822  14F8  0825               	movwf	(?_fround+1)
  6823  14F9  00BF               	movf	(0+(?___flmul)),w
  6824  14FA  0824               	movwf	(?_fround)
  6825  14FB  00BE               
  6826                           	goto	l158
  6827  14FC  2D43               	
  6828                           l2621:	
  6829  14FD                     	goto	l158
  6830  14FD  2D43               	
  6831                           l160:	
  6832  14FE                     	goto	l2623
  6833  14FE  2CFF               	
  6834                           l159:	
  6835  14FF                     	line	425
  6836                           	
  6837                           l2623:	
  6838  14FF                     ;/opt/microchip/xc8/v2.00/pic/sources/c90/common/doprnt.c: 425:  return 0.5 * _npowers_[
                                 prec];
  6839                           	movlw	0x3f
  6840  14FF  303F               	movwf	(___flmul@b+3)
  6841  1500  00A7               	movlw	0x0
  6842  1501  3000               	movwf	(___flmul@b+2)
  6843  1502  00A6               	movlw	0x0
  6844  1503  3000               	movwf	(___flmul@b+1)
  6845  1504  00A5               	movlw	0x0
  6846  1505  3000               	movwf	(___flmul@b)
  6847  1506  00A4               
  6848                           	movf	(fround@prec),w
  6849  1507  0851               	movwf	(??_fround+0)+0
  6850  1508  00C2               	movlw	(02h)-1
  6851  1509  3001               u4105:
  6852  150A                     	clrc
  6853  150A  1003               	rlf	(??_fround+0)+0,f
  6854  150B  0DC2               	addlw	-1
  6855  150C  3EFF               	skipz
  6856  150D  1D03               	goto	u4105
  6857  150E  2D0A               	clrc
  6858  150F  1003               	rlf	(??_fround+0)+0,w
  6859  1510  0D42               	addlw	low((((__npowers_)-__stringbase)|8000h))
  6860  1511  3E35               	movwf	fsr0
  6861  1512  0084               	fcall	stringdir
  6862  1513  160A  158A  200A  160A  118A  	movwf	((??_fround+1)+0)
  6863  1518  00C3               	fcall	stringdir
  6864  1519  160A  158A  200A  160A  118A  	movwf	((??_fround+1)+0+1)
  6865  151E  00C4               	fcall	stringdir
  6866  151F  160A  158A  200A  160A  118A  	movwf	((??_fround+1)+0+2)
  6867  1524  00C5               	fcall	stringdir
  6868  1525  160A  158A  200A  160A  118A  	movwf	((??_fround+1)+0+3)
  6869  152A  00C6               	movf	3+(??_fround+1)+0,w
  6870  152B  0846               	movwf	(___flmul@a+3)
  6871  152C  00AB               	movf	2+(??_fround+1)+0,w
  6872  152D  0845               	movwf	(___flmul@a+2)
  6873  152E  00AA               	movf	1+(??_fround+1)+0,w
  6874  152F  0844               	movwf	(___flmul@a+1)
  6875  1530  00A9               	movf	0+(??_fround+1)+0,w
  6876  1531  0843               	movwf	(___flmul@a)
  6877  1532  00A8               
  6878                           	fcall	___flmul
  6879  1533  120A  158A  248B  160A  118A  	bcf	status, 5	;RP0=0, select bank0
  6880  1538  1283               	bcf	status, 6	;RP1=0, select bank0
  6881  1539  1303               	movf	(3+(?___flmul)),w
  6882  153A  0827               	movwf	(?_fround+3)
  6883  153B  00C1               	movf	(2+(?___flmul)),w
  6884  153C  0826               	movwf	(?_fround+2)
  6885  153D  00C0               	movf	(1+(?___flmul)),w
  6886  153E  0825               	movwf	(?_fround+1)
  6887  153F  00BF               	movf	(0+(?___flmul)),w
  6888  1540  0824               	movwf	(?_fround)
  6889  1541  00BE               
  6890                           	goto	l158
  6891  1542  2D43               	
  6892                           l2625:	
  6893  1543                     	line	426
  6894                           	
  6895                           l158:	
  6896  1543                     	return
  6897  1543  0008               	opt stack 0
  6898                           GLOBAL	__end_of_fround
  6899                           	__end_of_fround:
  6900  1544                     	signat	_fround,4220
  6901                           	global	___lwmod
  6902                           
  6903 ;; *************** function ___lwmod *****************
  6904 ;; Defined at:
  6905 ;;		line 5 in file "/opt/microchip/xc8/v2.00/pic/sources/c90/common/lwmod.c"
  6906 ;; Parameters:    Size  Location     Type
  6907 ;;  divisor         2    0[COMMON] unsigned int 
  6908 ;;  dividend        2    2[COMMON] unsigned int 
  6909 ;; Auto vars:     Size  Location     Type
  6910 ;;  counter         1    5[COMMON] unsigned char 
  6911 ;; Return value:  Size  Location     Type
  6912 ;;                  2    0[COMMON] unsigned int 
  6913 ;; Registers used:
  6914 ;;		wreg, status,2, status,0
  6915 ;; Tracked objects:
  6916 ;;		On entry : 0/0
  6917 ;;		On exit  : 0/0
  6918 ;;		Unchanged: 0/0
  6919 ;; Data sizes:     COMMON   BANK0   BANK1   BANK3   BANK2
  6920 ;;      Params:         4       0       0       0       0
  6921 ;;      Locals:         1       0       0       0       0
  6922 ;;      Temps:          1       0       0       0       0
  6923 ;;      Totals:         6       0       0       0       0
  6924 ;;Total ram usage:        6 bytes
  6925 ;; Hardware stack levels used:    1
  6926 ;; This function calls:
  6927 ;;		Nothing
  6928 ;; This function is called by:
  6929 ;;		_fround
  6930 ;; This function uses a non-reentrant model
  6931 ;;
  6932                           psect	text8,local,class=CODE,delta=2,merge=1,group=1
  6933                           	file	"/opt/microchip/xc8/v2.00/pic/sources/c90/common/lwmod.c"
  6934                           	line	5
  6935                           global __ptext8
  6936                           __ptext8:	;psect for function ___lwmod
  6937  1AFA                     psect	text8
  6938                           	file	"/opt/microchip/xc8/v2.00/pic/sources/c90/common/lwmod.c"
  6939                           	line	5
  6940                           	global	__size_of___lwmod
  6941                           	__size_of___lwmod	equ	__end_of___lwmod-___lwmod
  6942  0041                     	
  6943                           ___lwmod:	
  6944  1AFA                     ;incstack = 0
  6945                           	opt	stack 5
  6946                           ; Regs used in ___lwmod: [wreg+status,2+status,0]
  6947                           	line	12
  6948                           	
  6949                           l2253:	
  6950  1AFA                     	movf	((___lwmod@divisor)),w
  6951  1AFA  0870               iorwf	((___lwmod@divisor+1)),w
  6952  1AFB  0471               	btfsc	status,2
  6953  1AFC  1903               	goto	u3141
  6954  1AFD  2AFF               	goto	u3140
  6955  1AFE  2B00               u3141:
  6956  1AFF                     	goto	l2271
  6957  1AFF  2B35               u3140:
  6958  1B00                     	line	13
  6959                           	
  6960                           l2255:	
  6961  1B00                     	clrf	(___lwmod@counter)
  6962  1B00  01F5               	incf	(___lwmod@counter),f
  6963  1B01  0AF5               	line	14
  6964                           	goto	l2261
  6965  1B02  2B0F               	
  6966                           l577:	
  6967  1B03                     	line	15
  6968                           	
  6969                           l2257:	
  6970  1B03                     	movlw	01h
  6971  1B03  3001               	
  6972                           u3155:
  6973  1B04                     	clrc
  6974  1B04  1003               	rlf	(___lwmod@divisor),f
  6975  1B05  0DF0               	rlf	(___lwmod@divisor+1),f
  6976  1B06  0DF1               	addlw	-1
  6977  1B07  3EFF               	skipz
  6978  1B08  1D03               	goto	u3155
  6979  1B09  2B04               	line	16
  6980                           	
  6981                           l2259:	
  6982  1B0A                     	movlw	low(01h)
  6983  1B0A  3001               	movwf	(??___lwmod+0)+0
  6984  1B0B  00F4               	movf	(??___lwmod+0)+0,w
  6985  1B0C  0874               	addwf	(___lwmod@counter),f
  6986  1B0D  07F5               	goto	l2261
  6987  1B0E  2B0F               	line	17
  6988                           	
  6989                           l576:	
  6990  1B0F                     	line	14
  6991                           	
  6992                           l2261:	
  6993  1B0F                     	btfss	(___lwmod@divisor+1),(15)&7
  6994  1B0F  1FF1               	goto	u3161
  6995  1B10  2B12               	goto	u3160
  6996  1B11  2B13               u3161:
  6997  1B12                     	goto	l2257
  6998  1B12  2B03               u3160:
  6999  1B13                     	goto	l2263
  7000  1B13  2B15               	
  7001                           l578:	
  7002  1B14                     	goto	l2263
  7003  1B14  2B15               	line	18
  7004                           	
  7005                           l579:	
  7006  1B15                     	line	19
  7007                           	
  7008                           l2263:	
  7009  1B15                     	movf	(___lwmod@divisor+1),w
  7010  1B15  0871               	subwf	(___lwmod@dividend+1),w
  7011  1B16  0273               	skipz
  7012  1B17  1D03               	goto	u3175
  7013  1B18  2B1B               	movf	(___lwmod@divisor),w
  7014  1B19  0870               	subwf	(___lwmod@dividend),w
  7015  1B1A  0272               u3175:
  7016  1B1B                     	skipc
  7017  1B1B  1C03               	goto	u3171
  7018  1B1C  2B1E               	goto	u3170
  7019  1B1D  2B1F               u3171:
  7020  1B1E                     	goto	l2267
  7021  1B1E  2B26               u3170:
  7022  1B1F                     	line	20
  7023                           	
  7024                           l2265:	
  7025  1B1F                     	movf	(___lwmod@divisor),w
  7026  1B1F  0870               	subwf	(___lwmod@dividend),f
  7027  1B20  02F2               	movf	(___lwmod@divisor+1),w
  7028  1B21  0871               	skipc
  7029  1B22  1C03               	decf	(___lwmod@dividend+1),f
  7030  1B23  03F3               	subwf	(___lwmod@dividend+1),f
  7031  1B24  02F3               	goto	l2267
  7032  1B25  2B26               	
  7033                           l580:	
  7034  1B26                     	line	21
  7035                           	
  7036                           l2267:	
  7037  1B26                     	movlw	01h
  7038  1B26  3001               	
  7039                           u3185:
  7040  1B27                     	clrc
  7041  1B27  1003               	rrf	(___lwmod@divisor+1),f
  7042  1B28  0CF1               	rrf	(___lwmod@divisor),f
  7043  1B29  0CF0               	addlw	-1
  7044  1B2A  3EFF               	skipz
  7045  1B2B  1D03               	goto	u3185
  7046  1B2C  2B27               	line	22
  7047                           	
  7048                           l2269:	
  7049  1B2D                     	movlw	01h
  7050  1B2D  3001               	subwf	(___lwmod@counter),f
  7051  1B2E  02F5               	btfss	status,2
  7052  1B2F  1D03               	goto	u3191
  7053  1B30  2B32               	goto	u3190
  7054  1B31  2B33               u3191:
  7055  1B32                     	goto	l2263
  7056  1B32  2B15               u3190:
  7057  1B33                     	goto	l2271
  7058  1B33  2B35               	
  7059                           l581:	
  7060  1B34                     	goto	l2271
  7061  1B34  2B35               	line	23
  7062                           	
  7063                           l575:	
  7064  1B35                     	line	24
  7065                           	
  7066                           l2271:	
  7067  1B35                     	movf	(___lwmod@dividend+1),w
  7068  1B35  0873               	movwf	(?___lwmod+1)
  7069  1B36  00F1               	movf	(___lwmod@dividend),w
  7070  1B37  0872               	movwf	(?___lwmod)
  7071  1B38  00F0               	goto	l582
  7072  1B39  2B3A               	
  7073                           l2273:	
  7074  1B3A                     	line	25
  7075                           	
  7076                           l582:	
  7077  1B3A                     	return
  7078  1B3A  0008               	opt stack 0
  7079                           GLOBAL	__end_of___lwmod
  7080                           	__end_of___lwmod:
  7081  1B3B                     	signat	___lwmod,8314
  7082                           	global	___lwdiv
  7083                           
  7084 ;; *************** function ___lwdiv *****************
  7085 ;; Defined at:
  7086 ;;		line 5 in file "/opt/microchip/xc8/v2.00/pic/sources/c90/common/lwdiv.c"
  7087 ;; Parameters:    Size  Location     Type
  7088 ;;  divisor         2    6[COMMON] unsigned int 
  7089 ;;  dividend        2    8[COMMON] unsigned int 
  7090 ;; Auto vars:     Size  Location     Type
  7091 ;;  quotient        2   11[COMMON] unsigned int 
  7092 ;;  counter         1   13[COMMON] unsigned char 
  7093 ;; Return value:  Size  Location     Type
  7094 ;;                  2    6[COMMON] unsigned int 
  7095 ;; Registers used:
  7096 ;;		wreg, status,2, status,0
  7097 ;; Tracked objects:
  7098 ;;		On entry : 0/0
  7099 ;;		On exit  : 0/0
  7100 ;;		Unchanged: 0/0
  7101 ;; Data sizes:     COMMON   BANK0   BANK1   BANK3   BANK2
  7102 ;;      Params:         4       0       0       0       0
  7103 ;;      Locals:         3       0       0       0       0
  7104 ;;      Temps:          1       0       0       0       0
  7105 ;;      Totals:         8       0       0       0       0
  7106 ;;Total ram usage:        8 bytes
  7107 ;; Hardware stack levels used:    1
  7108 ;; This function calls:
  7109 ;;		Nothing
  7110 ;; This function is called by:
  7111 ;;		_fround
  7112 ;; This function uses a non-reentrant model
  7113 ;;
  7114                           psect	text9,local,class=CODE,delta=2,merge=1,group=1
  7115                           	file	"/opt/microchip/xc8/v2.00/pic/sources/c90/common/lwdiv.c"
  7116                           	line	5
  7117                           global __ptext9
  7118                           __ptext9:	;psect for function ___lwdiv
  7119  1B83                     psect	text9
  7120                           	file	"/opt/microchip/xc8/v2.00/pic/sources/c90/common/lwdiv.c"
  7121                           	line	5
  7122                           	global	__size_of___lwdiv
  7123                           	__size_of___lwdiv	equ	__end_of___lwdiv-___lwdiv
  7124  004B                     	
  7125                           ___lwdiv:	
  7126  1B83                     ;incstack = 0
  7127                           	opt	stack 5
  7128                           ; Regs used in ___lwdiv: [wreg+status,2+status,0]
  7129                           	line	13
  7130                           	
  7131                           l2227:	
  7132  1B83                     	clrf	(___lwdiv@quotient)
  7133  1B83  01FB               	clrf	(___lwdiv@quotient+1)
  7134  1B84  01FC               	line	14
  7135                           	
  7136                           l2229:	
  7137  1B85                     	movf	((___lwdiv@divisor)),w
  7138  1B85  0876               iorwf	((___lwdiv@divisor+1)),w
  7139  1B86  0477               	btfsc	status,2
  7140  1B87  1903               	goto	u3071
  7141  1B88  2B8A               	goto	u3070
  7142  1B89  2B8B               u3071:
  7143  1B8A                     	goto	l2249
  7144  1B8A  2BC8               u3070:
  7145  1B8B                     	line	15
  7146                           	
  7147                           l2231:	
  7148  1B8B                     	clrf	(___lwdiv@counter)
  7149  1B8B  01FD               	incf	(___lwdiv@counter),f
  7150  1B8C  0AFD               	line	16
  7151                           	goto	l2237
  7152  1B8D  2B9A               	
  7153                           l567:	
  7154  1B8E                     	line	17
  7155                           	
  7156                           l2233:	
  7157  1B8E                     	movlw	01h
  7158  1B8E  3001               	
  7159                           u3085:
  7160  1B8F                     	clrc
  7161  1B8F  1003               	rlf	(___lwdiv@divisor),f
  7162  1B90  0DF6               	rlf	(___lwdiv@divisor+1),f
  7163  1B91  0DF7               	addlw	-1
  7164  1B92  3EFF               	skipz
  7165  1B93  1D03               	goto	u3085
  7166  1B94  2B8F               	line	18
  7167                           	
  7168                           l2235:	
  7169  1B95                     	movlw	low(01h)
  7170  1B95  3001               	movwf	(??___lwdiv+0)+0
  7171  1B96  00FA               	movf	(??___lwdiv+0)+0,w
  7172  1B97  087A               	addwf	(___lwdiv@counter),f
  7173  1B98  07FD               	goto	l2237
  7174  1B99  2B9A               	line	19
  7175                           	
  7176                           l566:	
  7177  1B9A                     	line	16
  7178                           	
  7179                           l2237:	
  7180  1B9A                     	btfss	(___lwdiv@divisor+1),(15)&7
  7181  1B9A  1FF7               	goto	u3091
  7182  1B9B  2B9D               	goto	u3090
  7183  1B9C  2B9E               u3091:
  7184  1B9D                     	goto	l2233
  7185  1B9D  2B8E               u3090:
  7186  1B9E                     	goto	l2239
  7187  1B9E  2BA0               	
  7188                           l568:	
  7189  1B9F                     	goto	l2239
  7190  1B9F  2BA0               	line	20
  7191                           	
  7192                           l569:	
  7193  1BA0                     	line	21
  7194                           	
  7195                           l2239:	
  7196  1BA0                     	movlw	01h
  7197  1BA0  3001               	
  7198                           u3105:
  7199  1BA1                     	clrc
  7200  1BA1  1003               	rlf	(___lwdiv@quotient),f
  7201  1BA2  0DFB               	rlf	(___lwdiv@quotient+1),f
  7202  1BA3  0DFC               	addlw	-1
  7203  1BA4  3EFF               	skipz
  7204  1BA5  1D03               	goto	u3105
  7205  1BA6  2BA1               	line	22
  7206                           	movf	(___lwdiv@divisor+1),w
  7207  1BA7  0877               	subwf	(___lwdiv@dividend+1),w
  7208  1BA8  0279               	skipz
  7209  1BA9  1D03               	goto	u3115
  7210  1BAA  2BAD               	movf	(___lwdiv@divisor),w
  7211  1BAB  0876               	subwf	(___lwdiv@dividend),w
  7212  1BAC  0278               u3115:
  7213  1BAD                     	skipc
  7214  1BAD  1C03               	goto	u3111
  7215  1BAE  2BB0               	goto	u3110
  7216  1BAF  2BB1               u3111:
  7217  1BB0                     	goto	l2245
  7218  1BB0  2BB9               u3110:
  7219  1BB1                     	line	23
  7220                           	
  7221                           l2241:	
  7222  1BB1                     	movf	(___lwdiv@divisor),w
  7223  1BB1  0876               	subwf	(___lwdiv@dividend),f
  7224  1BB2  02F8               	movf	(___lwdiv@divisor+1),w
  7225  1BB3  0877               	skipc
  7226  1BB4  1C03               	decf	(___lwdiv@dividend+1),f
  7227  1BB5  03F9               	subwf	(___lwdiv@dividend+1),f
  7228  1BB6  02F9               	line	24
  7229                           	
  7230                           l2243:	
  7231  1BB7                     	bsf	(___lwdiv@quotient)+(0/8),(0)&7
  7232  1BB7  147B               	goto	l2245
  7233  1BB8  2BB9               	line	25
  7234                           	
  7235                           l570:	
  7236  1BB9                     	line	26
  7237                           	
  7238                           l2245:	
  7239  1BB9                     	movlw	01h
  7240  1BB9  3001               	
  7241                           u3125:
  7242  1BBA                     	clrc
  7243  1BBA  1003               	rrf	(___lwdiv@divisor+1),f
  7244  1BBB  0CF7               	rrf	(___lwdiv@divisor),f
  7245  1BBC  0CF6               	addlw	-1
  7246  1BBD  3EFF               	skipz
  7247  1BBE  1D03               	goto	u3125
  7248  1BBF  2BBA               	line	27
  7249                           	
  7250                           l2247:	
  7251  1BC0                     	movlw	01h
  7252  1BC0  3001               	subwf	(___lwdiv@counter),f
  7253  1BC1  02FD               	btfss	status,2
  7254  1BC2  1D03               	goto	u3131
  7255  1BC3  2BC5               	goto	u3130
  7256  1BC4  2BC6               u3131:
  7257  1BC5                     	goto	l2239
  7258  1BC5  2BA0               u3130:
  7259  1BC6                     	goto	l2249
  7260  1BC6  2BC8               	
  7261                           l571:	
  7262  1BC7                     	goto	l2249
  7263  1BC7  2BC8               	line	28
  7264                           	
  7265                           l565:	
  7266  1BC8                     	line	29
  7267                           	
  7268                           l2249:	
  7269  1BC8                     	movf	(___lwdiv@quotient+1),w
  7270  1BC8  087C               	movwf	(?___lwdiv+1)
  7271  1BC9  00F7               	movf	(___lwdiv@quotient),w
  7272  1BCA  087B               	movwf	(?___lwdiv)
  7273  1BCB  00F6               	goto	l572
  7274  1BCC  2BCD               	
  7275                           l2251:	
  7276  1BCD                     	line	30
  7277                           	
  7278                           l572:	
  7279  1BCD                     	return
  7280  1BCD  0008               	opt stack 0
  7281                           GLOBAL	__end_of___lwdiv
  7282                           	__end_of___lwdiv:
  7283  1BCE                     	signat	___lwdiv,8314
  7284                           	global	___flmul
  7285                           
  7286 ;; *************** function ___flmul *****************
  7287 ;; Defined at:
  7288 ;;		line 8 in file "/opt/microchip/xc8/v2.00/pic/sources/c90/common/sprcmul.c"
  7289 ;; Parameters:    Size  Location     Type
  7290 ;;  b               4    4[BANK0 ] unsigned int 
  7291 ;;  a               4    8[BANK0 ] unsigned int 
  7292 ;; Auto vars:     Size  Location     Type
  7293 ;;  prod            4   24[BANK0 ] struct .
  7294 ;;  grs             4   18[BANK0 ] unsigned long 
  7295 ;;  temp            2   28[BANK0 ] struct .
  7296 ;;  bexp            1   23[BANK0 ] unsigned char 
  7297 ;;  aexp            1   22[BANK0 ] unsigned char 
  7298 ;;  sign            1   17[BANK0 ] unsigned char 
  7299 ;; Return value:  Size  Location     Type
  7300 ;;                  4    4[BANK0 ] unsigned char 
  7301 ;; Registers used:
  7302 ;;		wreg, status,2, status,0, btemp+1, pclath, cstack
  7303 ;; Tracked objects:
  7304 ;;		On entry : 0/0
  7305 ;;		On exit  : 0/0
  7306 ;;		Unchanged: 0/0
  7307 ;; Data sizes:     COMMON   BANK0   BANK1   BANK3   BANK2
  7308 ;;      Params:         0       8       0       0       0
  7309 ;;      Locals:         0      13       0       0       0
  7310 ;;      Temps:          0       5       0       0       0
  7311 ;;      Totals:         0      26       0       0       0
  7312 ;;Total ram usage:       26 bytes
  7313 ;; Hardware stack levels used:    1
  7314 ;; Hardware stack levels required when called:    1
  7315 ;; This function calls:
  7316 ;;		__Umul8_16
  7317 ;; This function is called by:
  7318 ;;		_main
  7319 ;;		_fround
  7320 ;;		_scale
  7321 ;;		_printf
  7322 ;; This function uses a non-reentrant model
  7323 ;;
  7324                           psect	text10,local,class=CODE,delta=2,merge=1,group=1
  7325                           	file	"/opt/microchip/xc8/v2.00/pic/sources/c90/common/sprcmul.c"
  7326                           	line	8
  7327                           global __ptext10
  7328                           __ptext10:	;psect for function ___flmul
  7329  0C8B                     psect	text10
  7330                           	file	"/opt/microchip/xc8/v2.00/pic/sources/c90/common/sprcmul.c"
  7331                           	line	8
  7332                           	global	__size_of___flmul
  7333                           	__size_of___flmul	equ	__end_of___flmul-___flmul
  7334  0375                     	
  7335                           ___flmul:	
  7336  0C8B                     ;incstack = 0
  7337                           	opt	stack 4
  7338                           ; Regs used in ___flmul: [wreg+status,2+status,0+btemp+1+pclath+cstack]
  7339                           	line	17
  7340                           	
  7341                           l2469:	
  7342  0C8B                     	bcf	status, 5	;RP0=0, select bank0
  7343  0C8B  1283               	bcf	status, 6	;RP1=0, select bank0
  7344  0C8C  1303               	movf	0+(___flmul@b)+03h,w
  7345  0C8D  0827               	andlw	080h
  7346  0C8E  3980               	movwf	(??___flmul+0)+0
  7347  0C8F  00AC               	movf	(??___flmul+0)+0,w
  7348  0C90  082C               	movwf	(___flmul@sign)
  7349  0C91  00B1               	line	18
  7350                           	
  7351                           l2471:	
  7352  0C92                     	movf	0+(___flmul@b)+03h,w
  7353  0C92  0827               	movwf	(??___flmul+0)+0
  7354  0C93  00AC               	addwf	(??___flmul+0)+0,w
  7355  0C94  072C               	movwf	(??___flmul+1)+0
  7356  0C95  00AD               	movf	(??___flmul+1)+0,w
  7357  0C96  082D               	movwf	(___flmul@bexp)
  7358  0C97  00B7               	line	19
  7359                           	
  7360                           l2473:	
  7361  0C98                     	btfss	0+(___flmul@b)+02h,(7)&7
  7362  0C98  1FA6               	goto	u3661
  7363  0C99  2C9B               	goto	u3660
  7364  0C9A  2C9C               u3661:
  7365  0C9B                     	goto	l2477
  7366  0C9B  2C9E               u3660:
  7367  0C9C                     	line	20
  7368                           	
  7369                           l2475:	
  7370  0C9C                     	bsf	(___flmul@bexp)+(0/8),(0)&7
  7371  0C9C  1437               	goto	l2477
  7372  0C9D  2C9E               	line	21
  7373                           	
  7374                           l678:	
  7375  0C9E                     	line	24
  7376                           	
  7377                           l2477:	
  7378  0C9E                     	movf	((___flmul@bexp)),w
  7379  0C9E  0837               	btfsc	status,2
  7380  0C9F  1903               	goto	u3671
  7381  0CA0  2CA2               	goto	u3670
  7382  0CA1  2CA3               u3671:
  7383  0CA2                     	goto	l2485
  7384  0CA2  2CB3               u3670:
  7385  0CA3                     	line	26
  7386                           	
  7387                           l2479:	
  7388  0CA3                     		incf	((___flmul@bexp)),w
  7389  0CA3  0A37               	btfss	status,2
  7390  0CA4  1D03               	goto	u3681
  7391  0CA5  2CA7               	goto	u3680
  7392  0CA6  2CA8               u3681:
  7393  0CA7                     	goto	l2483
  7394  0CA7  2CB1               u3680:
  7395  0CA8                     	line	28
  7396                           	
  7397                           l2481:	
  7398  0CA8                     	movlw	0x0
  7399  0CA8  3000               	movwf	(___flmul@b+3)
  7400  0CA9  00A7               	movlw	0x0
  7401  0CAA  3000               	movwf	(___flmul@b+2)
  7402  0CAB  00A6               	movlw	0x0
  7403  0CAC  3000               	movwf	(___flmul@b+1)
  7404  0CAD  00A5               	movlw	0x0
  7405  0CAE  3000               	movwf	(___flmul@b)
  7406  0CAF  00A4               
  7407                           	goto	l2483
  7408  0CB0  2CB1               	line	29
  7409                           	
  7410                           l680:	
  7411  0CB1                     	line	31
  7412                           	
  7413                           l2483:	
  7414  0CB1                     	bsf	(___flmul@b)+(23/8),(23)&7
  7415  0CB1  17A6               	line	33
  7416                           	goto	l2487
  7417  0CB2  2CBC               	line	34
  7418                           	
  7419                           l679:	
  7420  0CB3                     	line	36
  7421                           	
  7422                           l2485:	
  7423  0CB3                     	movlw	0x0
  7424  0CB3  3000               	movwf	(___flmul@b+3)
  7425  0CB4  00A7               	movlw	0x0
  7426  0CB5  3000               	movwf	(___flmul@b+2)
  7427  0CB6  00A6               	movlw	0x0
  7428  0CB7  3000               	movwf	(___flmul@b+1)
  7429  0CB8  00A5               	movlw	0x0
  7430  0CB9  3000               	movwf	(___flmul@b)
  7431  0CBA  00A4               
  7432                           	goto	l2487
  7433  0CBB  2CBC               	line	37
  7434                           	
  7435                           l681:	
  7436  0CBC                     	line	39
  7437                           	
  7438                           l2487:	
  7439  0CBC                     	movf	0+(___flmul@a)+03h,w
  7440  0CBC  082B               	andlw	080h
  7441  0CBD  3980               	movwf	(??___flmul+0)+0
  7442  0CBE  00AC               	movf	(??___flmul+0)+0,w
  7443  0CBF  082C               	xorwf	(___flmul@sign),f
  7444  0CC0  06B1               	line	40
  7445                           	
  7446                           l2489:	
  7447  0CC1                     	movf	0+(___flmul@a)+03h,w
  7448  0CC1  082B               	movwf	(??___flmul+0)+0
  7449  0CC2  00AC               	addwf	(??___flmul+0)+0,w
  7450  0CC3  072C               	movwf	(??___flmul+1)+0
  7451  0CC4  00AD               	movf	(??___flmul+1)+0,w
  7452  0CC5  082D               	movwf	(___flmul@aexp)
  7453  0CC6  00B6               	line	41
  7454                           	
  7455                           l2491:	
  7456  0CC7                     	btfss	0+(___flmul@a)+02h,(7)&7
  7457  0CC7  1FAA               	goto	u3691
  7458  0CC8  2CCA               	goto	u3690
  7459  0CC9  2CCB               u3691:
  7460  0CCA                     	goto	l2495
  7461  0CCA  2CCD               u3690:
  7462  0CCB                     	line	42
  7463                           	
  7464                           l2493:	
  7465  0CCB                     	bsf	(___flmul@aexp)+(0/8),(0)&7
  7466  0CCB  1436               	goto	l2495
  7467  0CCC  2CCD               	line	43
  7468                           	
  7469                           l682:	
  7470  0CCD                     	line	45
  7471                           	
  7472                           l2495:	
  7473  0CCD                     	movf	((___flmul@aexp)),w
  7474  0CCD  0836               	btfsc	status,2
  7475  0CCE  1903               	goto	u3701
  7476  0CCF  2CD1               	goto	u3700
  7477  0CD0  2CD2               u3701:
  7478  0CD1                     	goto	l2503
  7479  0CD1  2CE2               u3700:
  7480  0CD2                     	line	48
  7481                           	
  7482                           l2497:	
  7483  0CD2                     		incf	((___flmul@aexp)),w
  7484  0CD2  0A36               	btfss	status,2
  7485  0CD3  1D03               	goto	u3711
  7486  0CD4  2CD6               	goto	u3710
  7487  0CD5  2CD7               u3711:
  7488  0CD6                     	goto	l2501
  7489  0CD6  2CE0               u3710:
  7490  0CD7                     	line	50
  7491                           	
  7492                           l2499:	
  7493  0CD7                     	movlw	0x0
  7494  0CD7  3000               	movwf	(___flmul@a+3)
  7495  0CD8  00AB               	movlw	0x0
  7496  0CD9  3000               	movwf	(___flmul@a+2)
  7497  0CDA  00AA               	movlw	0x0
  7498  0CDB  3000               	movwf	(___flmul@a+1)
  7499  0CDC  00A9               	movlw	0x0
  7500  0CDD  3000               	movwf	(___flmul@a)
  7501  0CDE  00A8               
  7502                           	goto	l2501
  7503  0CDF  2CE0               	line	51
  7504                           	
  7505                           l684:	
  7506  0CE0                     	line	53
  7507                           	
  7508                           l2501:	
  7509  0CE0                     	bsf	(___flmul@a)+(23/8),(23)&7
  7510  0CE0  17AA               	line	54
  7511                           	goto	l2505
  7512  0CE1  2CEB               	line	55
  7513                           	
  7514                           l683:	
  7515  0CE2                     	line	57
  7516                           	
  7517                           l2503:	
  7518  0CE2                     	movlw	0x0
  7519  0CE2  3000               	movwf	(___flmul@a+3)
  7520  0CE3  00AB               	movlw	0x0
  7521  0CE4  3000               	movwf	(___flmul@a+2)
  7522  0CE5  00AA               	movlw	0x0
  7523  0CE6  3000               	movwf	(___flmul@a+1)
  7524  0CE7  00A9               	movlw	0x0
  7525  0CE8  3000               	movwf	(___flmul@a)
  7526  0CE9  00A8               
  7527                           	goto	l2505
  7528  0CEA  2CEB               	line	58
  7529                           	
  7530                           l685:	
  7531  0CEB                     	line	65
  7532                           	
  7533                           l2505:	
  7534  0CEB                     	movf	((___flmul@aexp)),w
  7535  0CEB  0836               	btfsc	status,2
  7536  0CEC  1903               	goto	u3721
  7537  0CED  2CEF               	goto	u3720
  7538  0CEE  2CF0               u3721:
  7539  0CEF                     	goto	l2509
  7540  0CEF  2CF6               u3720:
  7541  0CF0                     	
  7542                           l2507:	
  7543  0CF0                     	movf	((___flmul@bexp)),w
  7544  0CF0  0837               	btfss	status,2
  7545  0CF1  1D03               	goto	u3731
  7546  0CF2  2CF4               	goto	u3730
  7547  0CF3  2CF5               u3731:
  7548  0CF4                     	goto	l2513
  7549  0CF4  2D00               u3730:
  7550  0CF5                     	goto	l2509
  7551  0CF5  2CF6               	
  7552                           l688:	
  7553  0CF6                     	line	66
  7554                           	
  7555                           l2509:	
  7556  0CF6                     	movlw	0x0
  7557  0CF6  3000               	movwf	(?___flmul+3)
  7558  0CF7  00A7               	movlw	0x0
  7559  0CF8  3000               	movwf	(?___flmul+2)
  7560  0CF9  00A6               	movlw	0x0
  7561  0CFA  3000               	movwf	(?___flmul+1)
  7562  0CFB  00A5               	movlw	0x0
  7563  0CFC  3000               	movwf	(?___flmul)
  7564  0CFD  00A4               
  7565                           	goto	l689
  7566  0CFE  2FFF               	
  7567                           l2511:	
  7568  0CFF                     	goto	l689
  7569  0CFF  2FFF               	line	67
  7570                           	
  7571                           l686:	
  7572  0D00                     	line	119
  7573                           	
  7574                           l2513:	
  7575  0D00                     	movf	(___flmul@b),w
  7576  0D00  0824               	movwf	(??___flmul+0)+0
  7577  0D01  00AC               	movf	(??___flmul+0)+0,w
  7578  0D02  082C               	movwf	(__Umul8_16@multiplicand)
  7579  0D03  00F0               	movf	0+(___flmul@a)+02h,w
  7580  0D04  082A               	fcall	__Umul8_16
  7581  0D05  160A  158A  229F  120A  158A  	movf	(1+(?__Umul8_16)),w
  7582  0D0A  0871               	bcf	status, 5	;RP0=0, select bank0
  7583  0D0B  1283               	bcf	status, 6	;RP1=0, select bank0
  7584  0D0C  1303               	movwf	(___flmul@temp+1)
  7585  0D0D  00BD               	movf	(0+(?__Umul8_16)),w
  7586  0D0E  0870               	movwf	(___flmul@temp)
  7587  0D0F  00BC               	line	120
  7588                           	
  7589                           l2515:	
  7590  0D10                     	movf	(___flmul@temp),w
  7591  0D10  083C               	movwf	(??___flmul+0)+0
  7592  0D11  00AC               	clrf	(??___flmul+0)+0+1
  7593  0D12  01AD               	clrf	(??___flmul+0)+0+2
  7594  0D13  01AE               	clrf	(??___flmul+0)+0+3
  7595  0D14  01AF               	movf	3+(??___flmul+0)+0,w
  7596  0D15  082F               	movwf	(___flmul@grs+3)
  7597  0D16  00B5               	movf	2+(??___flmul+0)+0,w
  7598  0D17  082E               	movwf	(___flmul@grs+2)
  7599  0D18  00B4               	movf	1+(??___flmul+0)+0,w
  7600  0D19  082D               	movwf	(___flmul@grs+1)
  7601  0D1A  00B3               	movf	0+(??___flmul+0)+0,w
  7602  0D1B  082C               	movwf	(___flmul@grs)
  7603  0D1C  00B2               
  7604                           	line	121
  7605                           	
  7606                           l2517:	
  7607  0D1D                     	movf	0+(___flmul@temp)+01h,w
  7608  0D1D  083D               	movwf	(??___flmul+0)+0
  7609  0D1E  00AC               	clrf	(??___flmul+0)+0+1
  7610  0D1F  01AD               	clrf	(??___flmul+0)+0+2
  7611  0D20  01AE               	clrf	(??___flmul+0)+0+3
  7612  0D21  01AF               	movf	3+(??___flmul+0)+0,w
  7613  0D22  082F               	movwf	(___flmul@prod+3)
  7614  0D23  00BB               	movf	2+(??___flmul+0)+0,w
  7615  0D24  082E               	movwf	(___flmul@prod+2)
  7616  0D25  00BA               	movf	1+(??___flmul+0)+0,w
  7617  0D26  082D               	movwf	(___flmul@prod+1)
  7618  0D27  00B9               	movf	0+(??___flmul+0)+0,w
  7619  0D28  082C               	movwf	(___flmul@prod)
  7620  0D29  00B8               
  7621                           	line	122
  7622                           	movf	0+(___flmul@b)+01h,w
  7623  0D2A  0825               	movwf	(??___flmul+0)+0
  7624  0D2B  00AC               	movf	(??___flmul+0)+0,w
  7625  0D2C  082C               	movwf	(__Umul8_16@multiplicand)
  7626  0D2D  00F0               	movf	0+(___flmul@a)+01h,w
  7627  0D2E  0829               	fcall	__Umul8_16
  7628  0D2F  160A  158A  229F  120A  158A  	movf	(1+(?__Umul8_16)),w
  7629  0D34  0871               	bcf	status, 5	;RP0=0, select bank0
  7630  0D35  1283               	bcf	status, 6	;RP1=0, select bank0
  7631  0D36  1303               	movwf	(___flmul@temp+1)
  7632  0D37  00BD               	movf	(0+(?__Umul8_16)),w
  7633  0D38  0870               	movwf	(___flmul@temp)
  7634  0D39  00BC               	line	123
  7635                           	
  7636                           l2519:	
  7637  0D3A                     	movf	(___flmul@temp),w
  7638  0D3A  083C               	movwf	(??___flmul+0)+0
  7639  0D3B  00AC               	clrf	(??___flmul+0)+0+1
  7640  0D3C  01AD               	clrf	(??___flmul+0)+0+2
  7641  0D3D  01AE               	clrf	(??___flmul+0)+0+3
  7642  0D3E  01AF               	movf	0+(??___flmul+0)+0,w
  7643  0D3F  082C               	addwf	(___flmul@grs),f
  7644  0D40  07B2               	movf	1+(??___flmul+0)+0,w
  7645  0D41  082D               	clrz
  7646  0D42  1103               	skipnc
  7647  0D43  1803               	addlw	1
  7648  0D44  3E01               	skipnz
  7649  0D45  1903               	goto	u3741
  7650  0D46  2D48               	addwf	(___flmul@grs+1),f
  7651  0D47  07B3               u3741:
  7652  0D48                     	movf	2+(??___flmul+0)+0,w
  7653  0D48  082E               	clrz
  7654  0D49  1103               	skipnc
  7655  0D4A  1803               	addlw	1
  7656  0D4B  3E01               	skipnz
  7657  0D4C  1903               	goto	u3742
  7658  0D4D  2D4F               	addwf	(___flmul@grs+2),f
  7659  0D4E  07B4               u3742:
  7660  0D4F                     	movf	3+(??___flmul+0)+0,w
  7661  0D4F  082F               	clrz
  7662  0D50  1103               	skipnc
  7663  0D51  1803               	addlw	1
  7664  0D52  3E01               	skipnz
  7665  0D53  1903               	goto	u3743
  7666  0D54  2D56               	addwf	(___flmul@grs+3),f
  7667  0D55  07B5               u3743:
  7668  0D56                     
  7669                           	line	124
  7670                           	
  7671                           l2521:	
  7672  0D56                     	movf	0+(___flmul@temp)+01h,w
  7673  0D56  083D               	movwf	(??___flmul+0)+0
  7674  0D57  00AC               	clrf	(??___flmul+0)+0+1
  7675  0D58  01AD               	clrf	(??___flmul+0)+0+2
  7676  0D59  01AE               	clrf	(??___flmul+0)+0+3
  7677  0D5A  01AF               	movf	0+(??___flmul+0)+0,w
  7678  0D5B  082C               	addwf	(___flmul@prod),f
  7679  0D5C  07B8               	movf	1+(??___flmul+0)+0,w
  7680  0D5D  082D               	clrz
  7681  0D5E  1103               	skipnc
  7682  0D5F  1803               	addlw	1
  7683  0D60  3E01               	skipnz
  7684  0D61  1903               	goto	u3751
  7685  0D62  2D64               	addwf	(___flmul@prod+1),f
  7686  0D63  07B9               u3751:
  7687  0D64                     	movf	2+(??___flmul+0)+0,w
  7688  0D64  082E               	clrz
  7689  0D65  1103               	skipnc
  7690  0D66  1803               	addlw	1
  7691  0D67  3E01               	skipnz
  7692  0D68  1903               	goto	u3752
  7693  0D69  2D6B               	addwf	(___flmul@prod+2),f
  7694  0D6A  07BA               u3752:
  7695  0D6B                     	movf	3+(??___flmul+0)+0,w
  7696  0D6B  082F               	clrz
  7697  0D6C  1103               	skipnc
  7698  0D6D  1803               	addlw	1
  7699  0D6E  3E01               	skipnz
  7700  0D6F  1903               	goto	u3753
  7701  0D70  2D72               	addwf	(___flmul@prod+3),f
  7702  0D71  07BB               u3753:
  7703  0D72                     
  7704                           	line	125
  7705                           	movf	0+(___flmul@b)+02h,w
  7706  0D72  0826               	movwf	(??___flmul+0)+0
  7707  0D73  00AC               	movf	(??___flmul+0)+0,w
  7708  0D74  082C               	movwf	(__Umul8_16@multiplicand)
  7709  0D75  00F0               	movf	(___flmul@a),w
  7710  0D76  0828               	fcall	__Umul8_16
  7711  0D77  160A  158A  229F  120A  158A  	movf	(1+(?__Umul8_16)),w
  7712  0D7C  0871               	bcf	status, 5	;RP0=0, select bank0
  7713  0D7D  1283               	bcf	status, 6	;RP1=0, select bank0
  7714  0D7E  1303               	movwf	(___flmul@temp+1)
  7715  0D7F  00BD               	movf	(0+(?__Umul8_16)),w
  7716  0D80  0870               	movwf	(___flmul@temp)
  7717  0D81  00BC               	line	126
  7718                           	
  7719                           l2523:	
  7720  0D82                     	movf	(___flmul@temp),w
  7721  0D82  083C               	movwf	(??___flmul+0)+0
  7722  0D83  00AC               	clrf	(??___flmul+0)+0+1
  7723  0D84  01AD               	clrf	(??___flmul+0)+0+2
  7724  0D85  01AE               	clrf	(??___flmul+0)+0+3
  7725  0D86  01AF               	movf	0+(??___flmul+0)+0,w
  7726  0D87  082C               	addwf	(___flmul@grs),f
  7727  0D88  07B2               	movf	1+(??___flmul+0)+0,w
  7728  0D89  082D               	clrz
  7729  0D8A  1103               	skipnc
  7730  0D8B  1803               	addlw	1
  7731  0D8C  3E01               	skipnz
  7732  0D8D  1903               	goto	u3761
  7733  0D8E  2D90               	addwf	(___flmul@grs+1),f
  7734  0D8F  07B3               u3761:
  7735  0D90                     	movf	2+(??___flmul+0)+0,w
  7736  0D90  082E               	clrz
  7737  0D91  1103               	skipnc
  7738  0D92  1803               	addlw	1
  7739  0D93  3E01               	skipnz
  7740  0D94  1903               	goto	u3762
  7741  0D95  2D97               	addwf	(___flmul@grs+2),f
  7742  0D96  07B4               u3762:
  7743  0D97                     	movf	3+(??___flmul+0)+0,w
  7744  0D97  082F               	clrz
  7745  0D98  1103               	skipnc
  7746  0D99  1803               	addlw	1
  7747  0D9A  3E01               	skipnz
  7748  0D9B  1903               	goto	u3763
  7749  0D9C  2D9E               	addwf	(___flmul@grs+3),f
  7750  0D9D  07B5               u3763:
  7751  0D9E                     
  7752                           	line	127
  7753                           	
  7754                           l2525:	
  7755  0D9E                     	movf	0+(___flmul@temp)+01h,w
  7756  0D9E  083D               	movwf	(??___flmul+0)+0
  7757  0D9F  00AC               	clrf	(??___flmul+0)+0+1
  7758  0DA0  01AD               	clrf	(??___flmul+0)+0+2
  7759  0DA1  01AE               	clrf	(??___flmul+0)+0+3
  7760  0DA2  01AF               	movf	0+(??___flmul+0)+0,w
  7761  0DA3  082C               	addwf	(___flmul@prod),f
  7762  0DA4  07B8               	movf	1+(??___flmul+0)+0,w
  7763  0DA5  082D               	clrz
  7764  0DA6  1103               	skipnc
  7765  0DA7  1803               	addlw	1
  7766  0DA8  3E01               	skipnz
  7767  0DA9  1903               	goto	u3771
  7768  0DAA  2DAC               	addwf	(___flmul@prod+1),f
  7769  0DAB  07B9               u3771:
  7770  0DAC                     	movf	2+(??___flmul+0)+0,w
  7771  0DAC  082E               	clrz
  7772  0DAD  1103               	skipnc
  7773  0DAE  1803               	addlw	1
  7774  0DAF  3E01               	skipnz
  7775  0DB0  1903               	goto	u3772
  7776  0DB1  2DB3               	addwf	(___flmul@prod+2),f
  7777  0DB2  07BA               u3772:
  7778  0DB3                     	movf	3+(??___flmul+0)+0,w
  7779  0DB3  082F               	clrz
  7780  0DB4  1103               	skipnc
  7781  0DB5  1803               	addlw	1
  7782  0DB6  3E01               	skipnz
  7783  0DB7  1903               	goto	u3773
  7784  0DB8  2DBA               	addwf	(___flmul@prod+3),f
  7785  0DB9  07BB               u3773:
  7786  0DBA                     
  7787                           	line	128
  7788                           	
  7789                           l2527:	
  7790  0DBA                     	movlw	08h
  7791  0DBA  3008               	movwf	(??___flmul+0)+0
  7792  0DBB  00AC               u3785:
  7793  0DBC                     	clrc
  7794  0DBC  1003               	rlf	(___flmul@grs),f
  7795  0DBD  0DB2               	rlf	(___flmul@grs+1),f
  7796  0DBE  0DB3               	rlf	(___flmul@grs+2),f
  7797  0DBF  0DB4               	rlf	(___flmul@grs+3),f
  7798  0DC0  0DB5               	decfsz	(??___flmul+0)+0
  7799  0DC1  0BAC               	goto	u3785
  7800  0DC2  2DBC               	line	129
  7801                           	
  7802                           l2529:	
  7803  0DC3                     	movf	0+(___flmul@b)+01h,w
  7804  0DC3  0825               	movwf	(??___flmul+0)+0
  7805  0DC4  00AC               	movf	(??___flmul+0)+0,w
  7806  0DC5  082C               	movwf	(__Umul8_16@multiplicand)
  7807  0DC6  00F0               	movf	(___flmul@a),w
  7808  0DC7  0828               	fcall	__Umul8_16
  7809  0DC8  160A  158A  229F  120A  158A  	movf	(1+(?__Umul8_16)),w
  7810  0DCD  0871               	bcf	status, 5	;RP0=0, select bank0
  7811  0DCE  1283               	bcf	status, 6	;RP1=0, select bank0
  7812  0DCF  1303               	movwf	(___flmul@temp+1)
  7813  0DD0  00BD               	movf	(0+(?__Umul8_16)),w
  7814  0DD1  0870               	movwf	(___flmul@temp)
  7815  0DD2  00BC               	line	130
  7816                           	
  7817                           l2531:	
  7818  0DD3                     	movf	(___flmul@temp),w
  7819  0DD3  083C               	movwf	((??___flmul+0)+0)
  7820  0DD4  00AC               	movf	(___flmul@temp+1),w
  7821  0DD5  083D               	movwf	((??___flmul+0)+0+1)
  7822  0DD6  00AD               	clrf	((??___flmul+0)+0+2)
  7823  0DD7  01AE               	clrf	((??___flmul+0)+0+3)
  7824  0DD8  01AF               	movf	0+(??___flmul+0)+0,w
  7825  0DD9  082C               	addwf	(___flmul@grs),f
  7826  0DDA  07B2               	movf	1+(??___flmul+0)+0,w
  7827  0DDB  082D               	clrz
  7828  0DDC  1103               	skipnc
  7829  0DDD  1803               	addlw	1
  7830  0DDE  3E01               	skipnz
  7831  0DDF  1903               	goto	u3791
  7832  0DE0  2DE2               	addwf	(___flmul@grs+1),f
  7833  0DE1  07B3               u3791:
  7834  0DE2                     	movf	2+(??___flmul+0)+0,w
  7835  0DE2  082E               	clrz
  7836  0DE3  1103               	skipnc
  7837  0DE4  1803               	addlw	1
  7838  0DE5  3E01               	skipnz
  7839  0DE6  1903               	goto	u3792
  7840  0DE7  2DE9               	addwf	(___flmul@grs+2),f
  7841  0DE8  07B4               u3792:
  7842  0DE9                     	movf	3+(??___flmul+0)+0,w
  7843  0DE9  082F               	clrz
  7844  0DEA  1103               	skipnc
  7845  0DEB  1803               	addlw	1
  7846  0DEC  3E01               	skipnz
  7847  0DED  1903               	goto	u3793
  7848  0DEE  2DF0               	addwf	(___flmul@grs+3),f
  7849  0DEF  07B5               u3793:
  7850  0DF0                     
  7851                           	line	131
  7852                           	
  7853                           l2533:	
  7854  0DF0                     	movf	(___flmul@b),w
  7855  0DF0  0824               	movwf	(??___flmul+0)+0
  7856  0DF1  00AC               	movf	(??___flmul+0)+0,w
  7857  0DF2  082C               	movwf	(__Umul8_16@multiplicand)
  7858  0DF3  00F0               	movf	0+(___flmul@a)+01h,w
  7859  0DF4  0829               	fcall	__Umul8_16
  7860  0DF5  160A  158A  229F  120A  158A  	movf	(1+(?__Umul8_16)),w
  7861  0DFA  0871               	bcf	status, 5	;RP0=0, select bank0
  7862  0DFB  1283               	bcf	status, 6	;RP1=0, select bank0
  7863  0DFC  1303               	movwf	(___flmul@temp+1)
  7864  0DFD  00BD               	movf	(0+(?__Umul8_16)),w
  7865  0DFE  0870               	movwf	(___flmul@temp)
  7866  0DFF  00BC               	line	132
  7867                           	
  7868                           l2535:	
  7869  0E00                     	movf	(___flmul@temp),w
  7870  0E00  083C               	movwf	((??___flmul+0)+0)
  7871  0E01  00AC               	movf	(___flmul@temp+1),w
  7872  0E02  083D               	movwf	((??___flmul+0)+0+1)
  7873  0E03  00AD               	clrf	((??___flmul+0)+0+2)
  7874  0E04  01AE               	clrf	((??___flmul+0)+0+3)
  7875  0E05  01AF               	movf	0+(??___flmul+0)+0,w
  7876  0E06  082C               	addwf	(___flmul@grs),f
  7877  0E07  07B2               	movf	1+(??___flmul+0)+0,w
  7878  0E08  082D               	clrz
  7879  0E09  1103               	skipnc
  7880  0E0A  1803               	addlw	1
  7881  0E0B  3E01               	skipnz
  7882  0E0C  1903               	goto	u3801
  7883  0E0D  2E0F               	addwf	(___flmul@grs+1),f
  7884  0E0E  07B3               u3801:
  7885  0E0F                     	movf	2+(??___flmul+0)+0,w
  7886  0E0F  082E               	clrz
  7887  0E10  1103               	skipnc
  7888  0E11  1803               	addlw	1
  7889  0E12  3E01               	skipnz
  7890  0E13  1903               	goto	u3802
  7891  0E14  2E16               	addwf	(___flmul@grs+2),f
  7892  0E15  07B4               u3802:
  7893  0E16                     	movf	3+(??___flmul+0)+0,w
  7894  0E16  082F               	clrz
  7895  0E17  1103               	skipnc
  7896  0E18  1803               	addlw	1
  7897  0E19  3E01               	skipnz
  7898  0E1A  1903               	goto	u3803
  7899  0E1B  2E1D               	addwf	(___flmul@grs+3),f
  7900  0E1C  07B5               u3803:
  7901  0E1D                     
  7902                           	line	133
  7903                           	
  7904                           l2537:	
  7905  0E1D                     	movlw	08h
  7906  0E1D  3008               	movwf	(??___flmul+0)+0
  7907  0E1E  00AC               u3815:
  7908  0E1F                     	clrc
  7909  0E1F  1003               	rlf	(___flmul@grs),f
  7910  0E20  0DB2               	rlf	(___flmul@grs+1),f
  7911  0E21  0DB3               	rlf	(___flmul@grs+2),f
  7912  0E22  0DB4               	rlf	(___flmul@grs+3),f
  7913  0E23  0DB5               	decfsz	(??___flmul+0)+0
  7914  0E24  0BAC               	goto	u3815
  7915  0E25  2E1F               	line	134
  7916                           	movf	(___flmul@b),w
  7917  0E26  0824               	movwf	(??___flmul+0)+0
  7918  0E27  00AC               	movf	(??___flmul+0)+0,w
  7919  0E28  082C               	movwf	(__Umul8_16@multiplicand)
  7920  0E29  00F0               	movf	(___flmul@a),w
  7921  0E2A  0828               	fcall	__Umul8_16
  7922  0E2B  160A  158A  229F  120A  158A  	movf	(1+(?__Umul8_16)),w
  7923  0E30  0871               	bcf	status, 5	;RP0=0, select bank0
  7924  0E31  1283               	bcf	status, 6	;RP1=0, select bank0
  7925  0E32  1303               	movwf	(___flmul@temp+1)
  7926  0E33  00BD               	movf	(0+(?__Umul8_16)),w
  7927  0E34  0870               	movwf	(___flmul@temp)
  7928  0E35  00BC               	line	135
  7929                           	
  7930                           l2539:	
  7931  0E36                     	movf	(___flmul@temp),w
  7932  0E36  083C               	movwf	((??___flmul+0)+0)
  7933  0E37  00AC               	movf	(___flmul@temp+1),w
  7934  0E38  083D               	movwf	((??___flmul+0)+0+1)
  7935  0E39  00AD               	clrf	((??___flmul+0)+0+2)
  7936  0E3A  01AE               	clrf	((??___flmul+0)+0+3)
  7937  0E3B  01AF               	movf	0+(??___flmul+0)+0,w
  7938  0E3C  082C               	addwf	(___flmul@grs),f
  7939  0E3D  07B2               	movf	1+(??___flmul+0)+0,w
  7940  0E3E  082D               	clrz
  7941  0E3F  1103               	skipnc
  7942  0E40  1803               	addlw	1
  7943  0E41  3E01               	skipnz
  7944  0E42  1903               	goto	u3821
  7945  0E43  2E45               	addwf	(___flmul@grs+1),f
  7946  0E44  07B3               u3821:
  7947  0E45                     	movf	2+(??___flmul+0)+0,w
  7948  0E45  082E               	clrz
  7949  0E46  1103               	skipnc
  7950  0E47  1803               	addlw	1
  7951  0E48  3E01               	skipnz
  7952  0E49  1903               	goto	u3822
  7953  0E4A  2E4C               	addwf	(___flmul@grs+2),f
  7954  0E4B  07B4               u3822:
  7955  0E4C                     	movf	3+(??___flmul+0)+0,w
  7956  0E4C  082F               	clrz
  7957  0E4D  1103               	skipnc
  7958  0E4E  1803               	addlw	1
  7959  0E4F  3E01               	skipnz
  7960  0E50  1903               	goto	u3823
  7961  0E51  2E53               	addwf	(___flmul@grs+3),f
  7962  0E52  07B5               u3823:
  7963  0E53                     
  7964                           	line	136
  7965                           	
  7966                           l2541:	
  7967  0E53                     	movf	0+(___flmul@b)+01h,w
  7968  0E53  0825               	movwf	(??___flmul+0)+0
  7969  0E54  00AC               	movf	(??___flmul+0)+0,w
  7970  0E55  082C               	movwf	(__Umul8_16@multiplicand)
  7971  0E56  00F0               	movf	0+(___flmul@a)+02h,w
  7972  0E57  082A               	fcall	__Umul8_16
  7973  0E58  160A  158A  229F  120A  158A  	movf	(1+(?__Umul8_16)),w
  7974  0E5D  0871               	bcf	status, 5	;RP0=0, select bank0
  7975  0E5E  1283               	bcf	status, 6	;RP1=0, select bank0
  7976  0E5F  1303               	movwf	(___flmul@temp+1)
  7977  0E60  00BD               	movf	(0+(?__Umul8_16)),w
  7978  0E61  0870               	movwf	(___flmul@temp)
  7979  0E62  00BC               	line	137
  7980                           	movf	(___flmul@temp),w
  7981  0E63  083C               	movwf	((??___flmul+0)+0)
  7982  0E64  00AC               	movf	(___flmul@temp+1),w
  7983  0E65  083D               	movwf	((??___flmul+0)+0+1)
  7984  0E66  00AD               	clrf	((??___flmul+0)+0+2)
  7985  0E67  01AE               	clrf	((??___flmul+0)+0+3)
  7986  0E68  01AF               	movf	0+(??___flmul+0)+0,w
  7987  0E69  082C               	addwf	(___flmul@prod),f
  7988  0E6A  07B8               	movf	1+(??___flmul+0)+0,w
  7989  0E6B  082D               	clrz
  7990  0E6C  1103               	skipnc
  7991  0E6D  1803               	addlw	1
  7992  0E6E  3E01               	skipnz
  7993  0E6F  1903               	goto	u3831
  7994  0E70  2E72               	addwf	(___flmul@prod+1),f
  7995  0E71  07B9               u3831:
  7996  0E72                     	movf	2+(??___flmul+0)+0,w
  7997  0E72  082E               	clrz
  7998  0E73  1103               	skipnc
  7999  0E74  1803               	addlw	1
  8000  0E75  3E01               	skipnz
  8001  0E76  1903               	goto	u3832
  8002  0E77  2E79               	addwf	(___flmul@prod+2),f
  8003  0E78  07BA               u3832:
  8004  0E79                     	movf	3+(??___flmul+0)+0,w
  8005  0E79  082F               	clrz
  8006  0E7A  1103               	skipnc
  8007  0E7B  1803               	addlw	1
  8008  0E7C  3E01               	skipnz
  8009  0E7D  1903               	goto	u3833
  8010  0E7E  2E80               	addwf	(___flmul@prod+3),f
  8011  0E7F  07BB               u3833:
  8012  0E80                     
  8013                           	line	138
  8014                           	
  8015                           l2543:	
  8016  0E80                     	movf	0+(___flmul@b)+02h,w
  8017  0E80  0826               	movwf	(??___flmul+0)+0
  8018  0E81  00AC               	movf	(??___flmul+0)+0,w
  8019  0E82  082C               	movwf	(__Umul8_16@multiplicand)
  8020  0E83  00F0               	movf	0+(___flmul@a)+01h,w
  8021  0E84  0829               	fcall	__Umul8_16
  8022  0E85  160A  158A  229F  120A  158A  	movf	(1+(?__Umul8_16)),w
  8023  0E8A  0871               	bcf	status, 5	;RP0=0, select bank0
  8024  0E8B  1283               	bcf	status, 6	;RP1=0, select bank0
  8025  0E8C  1303               	movwf	(___flmul@temp+1)
  8026  0E8D  00BD               	movf	(0+(?__Umul8_16)),w
  8027  0E8E  0870               	movwf	(___flmul@temp)
  8028  0E8F  00BC               	line	139
  8029                           	
  8030                           l2545:	
  8031  0E90                     	movf	(___flmul@temp),w
  8032  0E90  083C               	movwf	((??___flmul+0)+0)
  8033  0E91  00AC               	movf	(___flmul@temp+1),w
  8034  0E92  083D               	movwf	((??___flmul+0)+0+1)
  8035  0E93  00AD               	clrf	((??___flmul+0)+0+2)
  8036  0E94  01AE               	clrf	((??___flmul+0)+0+3)
  8037  0E95  01AF               	movf	0+(??___flmul+0)+0,w
  8038  0E96  082C               	addwf	(___flmul@prod),f
  8039  0E97  07B8               	movf	1+(??___flmul+0)+0,w
  8040  0E98  082D               	clrz
  8041  0E99  1103               	skipnc
  8042  0E9A  1803               	addlw	1
  8043  0E9B  3E01               	skipnz
  8044  0E9C  1903               	goto	u3841
  8045  0E9D  2E9F               	addwf	(___flmul@prod+1),f
  8046  0E9E  07B9               u3841:
  8047  0E9F                     	movf	2+(??___flmul+0)+0,w
  8048  0E9F  082E               	clrz
  8049  0EA0  1103               	skipnc
  8050  0EA1  1803               	addlw	1
  8051  0EA2  3E01               	skipnz
  8052  0EA3  1903               	goto	u3842
  8053  0EA4  2EA6               	addwf	(___flmul@prod+2),f
  8054  0EA5  07BA               u3842:
  8055  0EA6                     	movf	3+(??___flmul+0)+0,w
  8056  0EA6  082F               	clrz
  8057  0EA7  1103               	skipnc
  8058  0EA8  1803               	addlw	1
  8059  0EA9  3E01               	skipnz
  8060  0EAA  1903               	goto	u3843
  8061  0EAB  2EAD               	addwf	(___flmul@prod+3),f
  8062  0EAC  07BB               u3843:
  8063  0EAD                     
  8064                           	line	140
  8065                           	movf	0+(___flmul@b)+02h,w
  8066  0EAD  0826               	movwf	(??___flmul+0)+0
  8067  0EAE  00AC               	movf	(??___flmul+0)+0,w
  8068  0EAF  082C               	movwf	(__Umul8_16@multiplicand)
  8069  0EB0  00F0               	movf	0+(___flmul@a)+02h,w
  8070  0EB1  082A               	fcall	__Umul8_16
  8071  0EB2  160A  158A  229F  120A  158A  	movf	(1+(?__Umul8_16)),w
  8072  0EB7  0871               	bcf	status, 5	;RP0=0, select bank0
  8073  0EB8  1283               	bcf	status, 6	;RP1=0, select bank0
  8074  0EB9  1303               	movwf	(___flmul@temp+1)
  8075  0EBA  00BD               	movf	(0+(?__Umul8_16)),w
  8076  0EBB  0870               	movwf	(___flmul@temp)
  8077  0EBC  00BC               	line	141
  8078                           	
  8079                           l2547:	
  8080  0EBD                     	movf	(___flmul@temp),w
  8081  0EBD  083C               	movwf	((??___flmul+0)+0)
  8082  0EBE  00AC               	movf	(___flmul@temp+1),w
  8083  0EBF  083D               	movwf	((??___flmul+0)+0+1)
  8084  0EC0  00AD               	clrf	((??___flmul+0)+0+2)
  8085  0EC1  01AE               	clrf	((??___flmul+0)+0+3)
  8086  0EC2  01AF               	movlw	08h
  8087  0EC3  3008               u3855:
  8088  0EC4                     	clrc
  8089  0EC4  1003               	rlf	(??___flmul+0)+0,f
  8090  0EC5  0DAC               	rlf	(??___flmul+0)+1,f
  8091  0EC6  0DAD               	rlf	(??___flmul+0)+2,f
  8092  0EC7  0DAE               	rlf	(??___flmul+0)+3,f
  8093  0EC8  0DAF               u3850:
  8094  0EC9                     	addlw	-1
  8095  0EC9  3EFF               	skipz
  8096  0ECA  1D03               	goto	u3855
  8097  0ECB  2EC4               	movf	0+(??___flmul+0)+0,w
  8098  0ECC  082C               	addwf	(___flmul@prod),f
  8099  0ECD  07B8               	movf	1+(??___flmul+0)+0,w
  8100  0ECE  082D               	clrz
  8101  0ECF  1103               	skipnc
  8102  0ED0  1803               	addlw	1
  8103  0ED1  3E01               	skipnz
  8104  0ED2  1903               	goto	u3861
  8105  0ED3  2ED5               	addwf	(___flmul@prod+1),f
  8106  0ED4  07B9               u3861:
  8107  0ED5                     	movf	2+(??___flmul+0)+0,w
  8108  0ED5  082E               	clrz
  8109  0ED6  1103               	skipnc
  8110  0ED7  1803               	addlw	1
  8111  0ED8  3E01               	skipnz
  8112  0ED9  1903               	goto	u3862
  8113  0EDA  2EDC               	addwf	(___flmul@prod+2),f
  8114  0EDB  07BA               u3862:
  8115  0EDC                     	movf	3+(??___flmul+0)+0,w
  8116  0EDC  082F               	clrz
  8117  0EDD  1103               	skipnc
  8118  0EDE  1803               	addlw	1
  8119  0EDF  3E01               	skipnz
  8120  0EE0  1903               	goto	u3863
  8121  0EE1  2EE3               	addwf	(___flmul@prod+3),f
  8122  0EE2  07BB               u3863:
  8123  0EE3                     
  8124                           	line	145
  8125                           	
  8126                           l2549:	
  8127  0EE3                     	movf	(___flmul@grs),w
  8128  0EE3  0832               	movwf	(??___flmul+0)+0
  8129  0EE4  00AC               	movf	(___flmul@grs+1),w
  8130  0EE5  0833               	movwf	((??___flmul+0)+0+1)
  8131  0EE6  00AD               	movf	(___flmul@grs+2),w
  8132  0EE7  0834               	movwf	((??___flmul+0)+0+2)
  8133  0EE8  00AE               	movf	(___flmul@grs+3),w
  8134  0EE9  0835               	movwf	((??___flmul+0)+0+3)
  8135  0EEA  00AF               	movlw	018h
  8136  0EEB  3018               u3875:
  8137  0EEC                     	clrc
  8138  0EEC  1003               	rrf	(??___flmul+0)+3,f
  8139  0EED  0CAF               	rrf	(??___flmul+0)+2,f
  8140  0EEE  0CAE               	rrf	(??___flmul+0)+1,f
  8141  0EEF  0CAD               	rrf	(??___flmul+0)+0,f
  8142  0EF0  0CAC               u3870:
  8143  0EF1                     	addlw	-1
  8144  0EF1  3EFF               	skipz
  8145  0EF2  1D03               	goto	u3875
  8146  0EF3  2EEC               	movf	0+(??___flmul+0)+0,w
  8147  0EF4  082C               	addwf	(___flmul@prod),f
  8148  0EF5  07B8               	movf	1+(??___flmul+0)+0,w
  8149  0EF6  082D               	clrz
  8150  0EF7  1103               	skipnc
  8151  0EF8  1803               	addlw	1
  8152  0EF9  3E01               	skipnz
  8153  0EFA  1903               	goto	u3881
  8154  0EFB  2EFD               	addwf	(___flmul@prod+1),f
  8155  0EFC  07B9               u3881:
  8156  0EFD                     	movf	2+(??___flmul+0)+0,w
  8157  0EFD  082E               	clrz
  8158  0EFE  1103               	skipnc
  8159  0EFF  1803               	addlw	1
  8160  0F00  3E01               	skipnz
  8161  0F01  1903               	goto	u3882
  8162  0F02  2F04               	addwf	(___flmul@prod+2),f
  8163  0F03  07BA               u3882:
  8164  0F04                     	movf	3+(??___flmul+0)+0,w
  8165  0F04  082F               	clrz
  8166  0F05  1103               	skipnc
  8167  0F06  1803               	addlw	1
  8168  0F07  3E01               	skipnz
  8169  0F08  1903               	goto	u3883
  8170  0F09  2F0B               	addwf	(___flmul@prod+3),f
  8171  0F0A  07BB               u3883:
  8172  0F0B                     
  8173                           	line	146
  8174                           	
  8175                           l2551:	
  8176  0F0B                     	movlw	08h
  8177  0F0B  3008               	movwf	(??___flmul+0)+0
  8178  0F0C  00AC               u3895:
  8179  0F0D                     	clrc
  8180  0F0D  1003               	rlf	(___flmul@grs),f
  8181  0F0E  0DB2               	rlf	(___flmul@grs+1),f
  8182  0F0F  0DB3               	rlf	(___flmul@grs+2),f
  8183  0F10  0DB4               	rlf	(___flmul@grs+3),f
  8184  0F11  0DB5               	decfsz	(??___flmul+0)+0
  8185  0F12  0BAC               	goto	u3895
  8186  0F13  2F0D               	line	149
  8187                           	
  8188                           l2553:	
  8189  0F14                     	movf	(___flmul@bexp),w
  8190  0F14  0837               	addwf	(___flmul@aexp),w
  8191  0F15  0736               	movwf	(??___flmul+0)+0
  8192  0F16  00AC               	clrf	(??___flmul+0)+0+1
  8193  0F17  01AD               	rlf	1+(??___flmul+0)+0,f
  8194  0F18  0DAD               	
  8195                           	movf	0+(??___flmul+0)+0,w
  8196  0F19  082C               	addlw	low(-126)
  8197  0F1A  3E82               	movwf	(___flmul@temp)
  8198  0F1B  00BC               	movf	1+(??___flmul+0)+0,w
  8199  0F1C  082D               	skipnc
  8200  0F1D  1803               	addlw	1
  8201  0F1E  3E01               	addlw	high(-126)
  8202  0F1F  3EFF               	movwf	1+(___flmul@temp)
  8203  0F20  00BD               	line	152
  8204                           	goto	l2565
  8205  0F21  2F41               	
  8206                           l691:	
  8207  0F22                     	line	153
  8208                           	
  8209                           l2555:	
  8210  0F22                     	movlw	01h
  8211  0F22  3001               	movwf	(??___flmul+0)+0
  8212  0F23  00AC               u3905:
  8213  0F24                     	clrc
  8214  0F24  1003               	rlf	(___flmul@prod),f
  8215  0F25  0DB8               	rlf	(___flmul@prod+1),f
  8216  0F26  0DB9               	rlf	(___flmul@prod+2),f
  8217  0F27  0DBA               	rlf	(___flmul@prod+3),f
  8218  0F28  0DBB               	decfsz	(??___flmul+0)+0
  8219  0F29  0BAC               	goto	u3905
  8220  0F2A  2F24               	line	154
  8221                           	
  8222                           l2557:	
  8223  0F2B                     	btfss	(___flmul@grs+3),(31)&7
  8224  0F2B  1FB5               	goto	u3911
  8225  0F2C  2F2E               	goto	u3910
  8226  0F2D  2F2F               u3911:
  8227  0F2E                     	goto	l2561
  8228  0F2E  2F31               u3910:
  8229  0F2F                     	line	155
  8230                           	
  8231                           l2559:	
  8232  0F2F                     	bsf	(___flmul@prod)+(0/8),(0)&7
  8233  0F2F  1438               	goto	l2561
  8234  0F30  2F31               	line	156
  8235                           	
  8236                           l692:	
  8237  0F31                     	line	157
  8238                           	
  8239                           l2561:	
  8240  0F31                     	movlw	01h
  8241  0F31  3001               	movwf	(??___flmul+0)+0
  8242  0F32  00AC               u3925:
  8243  0F33                     	clrc
  8244  0F33  1003               	rlf	(___flmul@grs),f
  8245  0F34  0DB2               	rlf	(___flmul@grs+1),f
  8246  0F35  0DB3               	rlf	(___flmul@grs+2),f
  8247  0F36  0DB4               	rlf	(___flmul@grs+3),f
  8248  0F37  0DB5               	decfsz	(??___flmul+0)+0
  8249  0F38  0BAC               	goto	u3925
  8250  0F39  2F33               	line	158
  8251                           	
  8252                           l2563:	
  8253  0F3A                     	movlw	0FFh
  8254  0F3A  30FF               	addwf	(___flmul@temp),f
  8255  0F3B  07BC               	skipnc
  8256  0F3C  1803               	incf	(___flmul@temp+1),f
  8257  0F3D  0ABD               	movlw	0FFh
  8258  0F3E  30FF               	addwf	(___flmul@temp+1),f
  8259  0F3F  07BD               	goto	l2565
  8260  0F40  2F41               	line	159
  8261                           	
  8262                           l690:	
  8263  0F41                     	line	152
  8264                           	
  8265                           l2565:	
  8266  0F41                     	btfss	(___flmul@prod+2),(23)&7
  8267  0F41  1FBA               	goto	u3931
  8268  0F42  2F44               	goto	u3930
  8269  0F43  2F45               u3931:
  8270  0F44                     	goto	l2555
  8271  0F44  2F22               u3930:
  8272  0F45                     	goto	l2567
  8273  0F45  2F46               	
  8274                           l693:	
  8275  0F46                     	line	163
  8276                           	
  8277                           l2567:	
  8278  0F46                     	clrf	(___flmul@aexp)
  8279  0F46  01B6               	line	164
  8280                           	
  8281                           l2569:	
  8282  0F47                     	btfss	(___flmul@grs+3),(31)&7
  8283  0F47  1FB5               	goto	u3941
  8284  0F48  2F4A               	goto	u3940
  8285  0F49  2F4B               u3941:
  8286  0F4A                     	goto	l2577
  8287  0F4A  2F6B               u3940:
  8288  0F4B                     	line	165
  8289                           	
  8290                           l2571:	
  8291  0F4B                     	movlw	0FFh
  8292  0F4B  30FF               	andwf	(___flmul@grs),w
  8293  0F4C  0532               	movwf	(??___flmul+0)+0
  8294  0F4D  00AC               	movlw	0FFh
  8295  0F4E  30FF               	andwf	(___flmul@grs+1),w
  8296  0F4F  0533               	movwf	((??___flmul+0)+0+1)
  8297  0F50  00AD               	movlw	0FFh
  8298  0F51  30FF               	andwf	(___flmul@grs+2),w
  8299  0F52  0534               	movwf	((??___flmul+0)+0+2)
  8300  0F53  00AE               	movlw	07Fh
  8301  0F54  307F               	andwf	(___flmul@grs+3),w
  8302  0F55  0535               	movwf	((??___flmul+0)+0+3)
  8303  0F56  00AF               	movf	3+(??___flmul+0)+0,w
  8304  0F57  082F               	iorwf	2+(??___flmul+0)+0,w
  8305  0F58  042E               	iorwf	1+(??___flmul+0)+0,w
  8306  0F59  042D               	iorwf	0+(??___flmul+0)+0,w
  8307  0F5A  042C               	skipnz
  8308  0F5B  1903               	goto	u3951
  8309  0F5C  2F5E               	goto	u3950
  8310  0F5D  2F5F               u3951:
  8311  0F5E                     	goto	l695
  8312  0F5E  2F62               u3950:
  8313  0F5F                     	line	166
  8314                           	
  8315                           l2573:	
  8316  0F5F                     	clrf	(___flmul@aexp)
  8317  0F5F  01B6               	incf	(___flmul@aexp),f
  8318  0F60  0AB6               	line	167
  8319                           	goto	l2577
  8320  0F61  2F6B               	line	168
  8321                           	
  8322                           l695:	
  8323  0F62                     	line	169
  8324                           	btfss	(___flmul@prod),(0)&7
  8325  0F62  1C38               	goto	u3961
  8326  0F63  2F65               	goto	u3960
  8327  0F64  2F66               u3961:
  8328  0F65                     	goto	l2577
  8329  0F65  2F6B               u3960:
  8330  0F66                     	line	170
  8331                           	
  8332                           l2575:	
  8333  0F66                     	clrf	(___flmul@aexp)
  8334  0F66  01B6               	incf	(___flmul@aexp),f
  8335  0F67  0AB6               	goto	l2577
  8336  0F68  2F6B               	line	171
  8337                           	
  8338                           l697:	
  8339  0F69                     	goto	l2577
  8340  0F69  2F6B               	line	172
  8341                           	
  8342                           l696:	
  8343  0F6A                     	goto	l2577
  8344  0F6A  2F6B               	line	173
  8345                           	
  8346                           l694:	
  8347  0F6B                     	line	174
  8348                           	
  8349                           l2577:	
  8350  0F6B                     	movf	((___flmul@aexp)),w
  8351  0F6B  0836               	btfsc	status,2
  8352  0F6C  1903               	goto	u3971
  8353  0F6D  2F6F               	goto	u3970
  8354  0F6E  2F70               u3971:
  8355  0F6F                     	goto	l2587
  8356  0F6F  2FA3               u3970:
  8357  0F70                     	line	175
  8358                           	
  8359                           l2579:	
  8360  0F70                     	movlw	01h
  8361  0F70  3001               	addwf	(___flmul@prod),f
  8362  0F71  07B8               	movlw	0
  8363  0F72  3000               	skipnc
  8364  0F73  1803               movlw 1
  8365  0F74  3001               	addwf	(___flmul@prod+1),f
  8366  0F75  07B9               	movlw	0
  8367  0F76  3000               	skipnc
  8368  0F77  1803               movlw 1
  8369  0F78  3001               	addwf	(___flmul@prod+2),f
  8370  0F79  07BA               	movlw	0
  8371  0F7A  3000               	skipnc
  8372  0F7B  1803               movlw 1
  8373  0F7C  3001               	addwf	(___flmul@prod+3),f
  8374  0F7D  07BB               	line	176
  8375                           	
  8376                           l2581:	
  8377  0F7E                     	btfss	(___flmul@prod+3),(24)&7
  8378  0F7E  1C3B               	goto	u3981
  8379  0F7F  2F81               	goto	u3980
  8380  0F80  2F82               u3981:
  8381  0F81                     	goto	l2587
  8382  0F81  2FA3               u3980:
  8383  0F82                     	line	177
  8384                           	
  8385                           l2583:	
  8386  0F82                     	movf	(___flmul@prod),w
  8387  0F82  0838               	movwf	(??___flmul+0)+0
  8388  0F83  00AC               	movf	(___flmul@prod+1),w
  8389  0F84  0839               	movwf	((??___flmul+0)+0+1)
  8390  0F85  00AD               	movf	(___flmul@prod+2),w
  8391  0F86  083A               	movwf	((??___flmul+0)+0+2)
  8392  0F87  00AE               	movf	(___flmul@prod+3),w
  8393  0F88  083B               	movwf	((??___flmul+0)+0+3)
  8394  0F89  00AF               	movlw	01h
  8395  0F8A  3001               	movwf	(??___flmul+4)+0
  8396  0F8B  00B0               u3995:
  8397  0F8C                     	rlf	(??___flmul+0)+3,w
  8398  0F8C  0D2F               	rrf	(??___flmul+0)+3,f
  8399  0F8D  0CAF               	rrf	(??___flmul+0)+2,f
  8400  0F8E  0CAE               	rrf	(??___flmul+0)+1,f
  8401  0F8F  0CAD               	rrf	(??___flmul+0)+0,f
  8402  0F90  0CAC               u3990:
  8403  0F91                     	decfsz	(??___flmul+4)+0,f
  8404  0F91  0BB0               	goto	u3995
  8405  0F92  2F8C               	movf	3+(??___flmul+0)+0,w
  8406  0F93  082F               	movwf	(___flmul@prod+3)
  8407  0F94  00BB               	movf	2+(??___flmul+0)+0,w
  8408  0F95  082E               	movwf	(___flmul@prod+2)
  8409  0F96  00BA               	movf	1+(??___flmul+0)+0,w
  8410  0F97  082D               	movwf	(___flmul@prod+1)
  8411  0F98  00B9               	movf	0+(??___flmul+0)+0,w
  8412  0F99  082C               	movwf	(___flmul@prod)
  8413  0F9A  00B8               
  8414                           	line	178
  8415                           	
  8416                           l2585:	
  8417  0F9B                     	movlw	01h
  8418  0F9B  3001               	addwf	(___flmul@temp),f
  8419  0F9C  07BC               	skipnc
  8420  0F9D  1803               	incf	(___flmul@temp+1),f
  8421  0F9E  0ABD               	movlw	0
  8422  0F9F  3000               	addwf	(___flmul@temp+1),f
  8423  0FA0  07BD               	goto	l2587
  8424  0FA1  2FA3               	line	179
  8425                           	
  8426                           l699:	
  8427  0FA2                     	goto	l2587
  8428  0FA2  2FA3               	line	180
  8429                           	
  8430                           l698:	
  8431  0FA3                     	line	183
  8432                           	
  8433                           l2587:	
  8434  0FA3                     	movf	(___flmul@temp+1),w
  8435  0FA3  083D               	xorlw	80h
  8436  0FA4  3A80               	movwf	btemp+1
  8437  0FA5  00FF               	movlw	(0)^80h
  8438  0FA6  3080               	subwf	btemp+1,w
  8439  0FA7  027F               	skipz
  8440  0FA8  1D03               	goto	u4005
  8441  0FA9  2FAC               	movlw	0FFh
  8442  0FAA  30FF               	subwf	(___flmul@temp),w
  8443  0FAB  023C               u4005:
  8444  0FAC                     
  8445                           	skipc
  8446  0FAC  1C03               	goto	u4001
  8447  0FAD  2FAF               	goto	u4000
  8448  0FAE  2FB0               u4001:
  8449  0FAF                     	goto	l2591
  8450  0FAF  2FBB               u4000:
  8451  0FB0                     	line	184
  8452                           	
  8453                           l2589:	
  8454  0FB0                     	movlw	07Fh
  8455  0FB0  307F               	bcf	status, 5	;RP0=0, select bank0
  8456  0FB1  1283               	bcf	status, 6	;RP1=0, select bank0
  8457  0FB2  1303               	movwf	(___flmul@prod+3)
  8458  0FB3  00BB               	movlw	080h
  8459  0FB4  3080               	movwf	(___flmul@prod+2)
  8460  0FB5  00BA               	movlw	0
  8461  0FB6  3000               	movwf	(___flmul@prod+1)
  8462  0FB7  00B9               	movlw	0
  8463  0FB8  3000               	movwf	(___flmul@prod)
  8464  0FB9  00B8               
  8465                           	line	185
  8466                           	goto	l701
  8467  0FBA  2FF2               	line	187
  8468                           	
  8469                           l700:	
  8470  0FBB                     	
  8471                           l2591:	
  8472  0FBB                     	bcf	status, 5	;RP0=0, select bank0
  8473  0FBB  1283               	bcf	status, 6	;RP1=0, select bank0
  8474  0FBC  1303               	movf	(___flmul@temp+1),w
  8475  0FBD  083D               	xorlw	80h
  8476  0FBE  3A80               	movwf	btemp+1
  8477  0FBF  00FF               	movlw	(0)^80h
  8478  0FC0  3080               	subwf	btemp+1,w
  8479  0FC1  027F               	skipz
  8480  0FC2  1D03               	goto	u4015
  8481  0FC3  2FC6               	movlw	01h
  8482  0FC4  3001               	subwf	(___flmul@temp),w
  8483  0FC5  023C               u4015:
  8484  0FC6                     
  8485                           	skipnc
  8486  0FC6  1803               	goto	u4011
  8487  0FC7  2FC9               	goto	u4010
  8488  0FC8  2FCA               u4011:
  8489  0FC9                     	goto	l2597
  8490  0FC9  2FD6               u4010:
  8491  0FCA                     	line	188
  8492                           	
  8493                           l2593:	
  8494  0FCA                     	movlw	high highword(0)
  8495  0FCA  3000               	bcf	status, 5	;RP0=0, select bank0
  8496  0FCB  1283               	bcf	status, 6	;RP1=0, select bank0
  8497  0FCC  1303               	movwf	(___flmul@prod+3)
  8498  0FCD  00BB               	movlw	low highword(0)
  8499  0FCE  3000               	movwf	(___flmul@prod+2)
  8500  0FCF  00BA               	movlw	high(0)
  8501  0FD0  3000               	movwf	(___flmul@prod+1)
  8502  0FD1  00B9               	movlw	low(0)
  8503  0FD2  3000               	movwf	(___flmul@prod)
  8504  0FD3  00B8               
  8505                           	line	190
  8506                           	
  8507                           l2595:	
  8508  0FD4                     	clrf	(___flmul@sign)
  8509  0FD4  01B1               	line	191
  8510                           	goto	l701
  8511  0FD5  2FF2               	line	192
  8512                           	
  8513                           l702:	
  8514  0FD6                     	line	194
  8515                           	
  8516                           l2597:	
  8517  0FD6                     	bcf	status, 5	;RP0=0, select bank0
  8518  0FD6  1283               	bcf	status, 6	;RP1=0, select bank0
  8519  0FD7  1303               	movf	(___flmul@temp),w
  8520  0FD8  083C               	movwf	(??___flmul+0)+0
  8521  0FD9  00AC               	movf	(??___flmul+0)+0,w
  8522  0FDA  082C               	movwf	(___flmul@bexp)
  8523  0FDB  00B7               	line	195
  8524                           	movlw	0FFh
  8525  0FDC  30FF               	andwf	(___flmul@prod),f
  8526  0FDD  05B8               	movlw	0FFh
  8527  0FDE  30FF               	andwf	(___flmul@prod+1),f
  8528  0FDF  05B9               	movlw	07Fh
  8529  0FE0  307F               	andwf	(___flmul@prod+2),f
  8530  0FE1  05BA               	movlw	0
  8531  0FE2  3000               	andwf	(___flmul@prod+3),f
  8532  0FE3  05BB               	line	196
  8533                           	
  8534                           l2599:	
  8535  0FE4                     	btfss	(___flmul@bexp),(0)&7
  8536  0FE4  1C37               	goto	u4021
  8537  0FE5  2FE7               	goto	u4020
  8538  0FE6  2FE8               u4021:
  8539  0FE7                     	goto	l2603
  8540  0FE7  2FEA               u4020:
  8541  0FE8                     	line	197
  8542                           	
  8543                           l2601:	
  8544  0FE8                     	bsf	0+(___flmul@prod)+02h+(7/8),(7)&7
  8545  0FE8  17BA               	goto	l2603
  8546  0FE9  2FEA               	line	198
  8547                           	
  8548                           l704:	
  8549  0FEA                     	line	199
  8550                           	
  8551                           l2603:	
  8552  0FEA                     	movf	(___flmul@bexp),w
  8553  0FEA  0837               	movwf	(??___flmul+0)+0
  8554  0FEB  00AC               	clrc
  8555  0FEC  1003               	rrf	(??___flmul+0)+0,w
  8556  0FED  0C2C               	movwf	(??___flmul+1)+0
  8557  0FEE  00AD               	movf	(??___flmul+1)+0,w
  8558  0FEF  082D               	movwf	0+(___flmul@prod)+03h
  8559  0FF0  00BB               	goto	l701
  8560  0FF1  2FF2               	line	200
  8561                           	
  8562                           l703:	
  8563  0FF2                     	
  8564                           l701:	
  8565  0FF2                     	line	201
  8566                           	movf	(___flmul@sign),w
  8567  0FF2  0831               	movwf	(??___flmul+0)+0
  8568  0FF3  00AC               	movf	(??___flmul+0)+0,w
  8569  0FF4  082C               	iorwf	0+(___flmul@prod)+03h,f
  8570  0FF5  04BB               	line	203
  8571                           	
  8572                           l2605:	
  8573  0FF6                     	movf	(___flmul@prod+3),w
  8574  0FF6  083B               	movwf	(?___flmul+3)
  8575  0FF7  00A7               	movf	(___flmul@prod+2),w
  8576  0FF8  083A               	movwf	(?___flmul+2)
  8577  0FF9  00A6               	movf	(___flmul@prod+1),w
  8578  0FFA  0839               	movwf	(?___flmul+1)
  8579  0FFB  00A5               	movf	(___flmul@prod),w
  8580  0FFC  0838               	movwf	(?___flmul)
  8581  0FFD  00A4               
  8582                           	goto	l689
  8583  0FFE  2FFF               	
  8584                           l2607:	
  8585  0FFF                     	line	205
  8586                           	
  8587                           l689:	
  8588  0FFF                     	return
  8589  0FFF  0008               	opt stack 0
  8590                           GLOBAL	__end_of___flmul
  8591                           	__end_of___flmul:
  8592  1000                     	signat	___flmul,8316
  8593                           	global	__Umul8_16
  8594                           
  8595 ;; *************** function __Umul8_16 *****************
  8596 ;; Defined at:
  8597 ;;		line 4 in file "/opt/microchip/xc8/v2.00/pic/sources/c90/common/Umul8_16.c"
  8598 ;; Parameters:    Size  Location     Type
  8599 ;;  multiplier      1    wreg     unsigned char 
  8600 ;;  multiplicand    1    0[COMMON] unsigned char 
  8601 ;; Auto vars:     Size  Location     Type
  8602 ;;  multiplier      1    8[COMMON] unsigned char 
  8603 ;;  word_mpld       2    6[COMMON] unsigned int 
  8604 ;;  product         2    4[COMMON] unsigned int 
  8605 ;; Return value:  Size  Location     Type
  8606 ;;                  2    0[COMMON] unsigned int 
  8607 ;; Registers used:
  8608 ;;		wreg, status,2, status,0
  8609 ;; Tracked objects:
  8610 ;;		On entry : 0/0
  8611 ;;		On exit  : 0/0
  8612 ;;		Unchanged: 0/0
  8613 ;; Data sizes:     COMMON   BANK0   BANK1   BANK3   BANK2
  8614 ;;      Params:         2       0       0       0       0
  8615 ;;      Locals:         5       0       0       0       0
  8616 ;;      Temps:          2       0       0       0       0
  8617 ;;      Totals:         9       0       0       0       0
  8618 ;;Total ram usage:        9 bytes
  8619 ;; Hardware stack levels used:    1
  8620 ;; This function calls:
  8621 ;;		Nothing
  8622 ;; This function is called by:
  8623 ;;		___flmul
  8624 ;; This function uses a non-reentrant model
  8625 ;;
  8626                           psect	text11,local,class=CODE,delta=2,merge=1,group=1
  8627                           	file	"/opt/microchip/xc8/v2.00/pic/sources/c90/common/Umul8_16.c"
  8628                           	line	4
  8629                           global __ptext11
  8630                           __ptext11:	;psect for function __Umul8_16
  8631  1A9F                     psect	text11
  8632                           	file	"/opt/microchip/xc8/v2.00/pic/sources/c90/common/Umul8_16.c"
  8633                           	line	4
  8634                           	global	__size_of__Umul8_16
  8635                           	__size_of__Umul8_16	equ	__end_of__Umul8_16-__Umul8_16
  8636  002A                     	
  8637                           __Umul8_16:	
  8638  1A9F                     ;incstack = 0
  8639                           	opt	stack 4
  8640                           ; Regs used in __Umul8_16: [wreg+status,2+status,0]
  8641                           ;__Umul8_16@multiplier stored from wreg
  8642                           	movwf	(__Umul8_16@multiplier)
  8643  1A9F  00F8               	line	5
  8644                           	
  8645                           l2131:	
  8646  1AA0                     	clrf	(__Umul8_16@product)
  8647  1AA0  01F4               	clrf	(__Umul8_16@product+1)
  8648  1AA1  01F5               	line	6
  8649                           	
  8650                           l2133:	
  8651  1AA2                     	movf	(__Umul8_16@multiplicand),w
  8652  1AA2  0870               	movwf	(??__Umul8_16+0)+0
  8653  1AA3  00F2               	clrf	(??__Umul8_16+0)+0+1
  8654  1AA4  01F3               	movf	0+(??__Umul8_16+0)+0,w
  8655  1AA5  0872               	movwf	(__Umul8_16@word_mpld)
  8656  1AA6  00F6               	movf	1+(??__Umul8_16+0)+0,w
  8657  1AA7  0873               	movwf	(__Umul8_16@word_mpld+1)
  8658  1AA8  00F7               	goto	l2135
  8659  1AA9  2AAA               	line	50
  8660                           	
  8661                           l738:	
  8662  1AAA                     	line	51
  8663                           	
  8664                           l2135:	
  8665  1AAA                     	btfss	(__Umul8_16@multiplier),(0)&7
  8666  1AAA  1C78               	goto	u2851
  8667  1AAB  2AAD               	goto	u2850
  8668  1AAC  2AAE               u2851:
  8669  1AAD                     	goto	l739
  8670  1AAD  2AB4               u2850:
  8671  1AAE                     	line	52
  8672                           	
  8673                           l2137:	
  8674  1AAE                     	movf	(__Umul8_16@word_mpld),w
  8675  1AAE  0876               	addwf	(__Umul8_16@product),f
  8676  1AAF  07F4               	skipnc
  8677  1AB0  1803               	incf	(__Umul8_16@product+1),f
  8678  1AB1  0AF5               	movf	(__Umul8_16@word_mpld+1),w
  8679  1AB2  0877               	addwf	(__Umul8_16@product+1),f
  8680  1AB3  07F5               	line	53
  8681                           	
  8682                           l739:	
  8683  1AB4                     	line	54
  8684                           	movlw	01h
  8685  1AB4  3001               	
  8686                           u2865:
  8687  1AB5                     	clrc
  8688  1AB5  1003               	rlf	(__Umul8_16@word_mpld),f
  8689  1AB6  0DF6               	rlf	(__Umul8_16@word_mpld+1),f
  8690  1AB7  0DF7               	addlw	-1
  8691  1AB8  3EFF               	skipz
  8692  1AB9  1D03               	goto	u2865
  8693  1ABA  2AB5               	line	55
  8694                           	clrc
  8695  1ABB  1003               	rrf	(__Umul8_16@multiplier),f
  8696  1ABC  0CF8               
  8697                           	line	56
  8698                           	
  8699                           l2139:	
  8700  1ABD                     	movf	((__Umul8_16@multiplier)),w
  8701  1ABD  0878               	btfss	status,2
  8702  1ABE  1D03               	goto	u2871
  8703  1ABF  2AC1               	goto	u2870
  8704  1AC0  2AC2               u2871:
  8705  1AC1                     	goto	l2135
  8706  1AC1  2AAA               u2870:
  8707  1AC2                     	goto	l2141
  8708  1AC2  2AC3               	
  8709                           l740:	
  8710  1AC3                     	line	59
  8711                           	
  8712                           l2141:	
  8713  1AC3                     	movf	(__Umul8_16@product+1),w
  8714  1AC3  0875               	movwf	(?__Umul8_16+1)
  8715  1AC4  00F1               	movf	(__Umul8_16@product),w
  8716  1AC5  0874               	movwf	(?__Umul8_16)
  8717  1AC6  00F0               	goto	l741
  8718  1AC7  2AC8               	
  8719                           l2143:	
  8720  1AC8                     	line	60
  8721                           	
  8722                           l741:	
  8723  1AC8                     	return
  8724  1AC8  0008               	opt stack 0
  8725                           GLOBAL	__end_of__Umul8_16
  8726                           	__end_of__Umul8_16:
  8727  1AC9                     	signat	__Umul8_16,8314
  8728                           	global	__tdiv_to_l_
  8729                           
  8730 ;; *************** function __tdiv_to_l_ *****************
  8731 ;; Defined at:
  8732 ;;		line 60 in file "/opt/microchip/xc8/v2.00/pic/sources/c90/common/ftdivl.c"
  8733 ;; Parameters:    Size  Location     Type
  8734 ;;  f1              4    0[COMMON] float 
  8735 ;;  f2              4    4[COMMON] float 
  8736 ;; Auto vars:     Size  Location     Type
  8737 ;;  quot            4    0[BANK0 ] unsigned long 
  8738 ;;  exp1            1    5[BANK0 ] unsigned char 
  8739 ;;  cntr            1    4[BANK0 ] unsigned char 
  8740 ;; Return value:  Size  Location     Type
  8741 ;;                  4    0[COMMON] unsigned long 
  8742 ;; Registers used:
  8743 ;;		wreg, status,2, status,0
  8744 ;; Tracked objects:
  8745 ;;		On entry : 0/0
  8746 ;;		On exit  : 0/0
  8747 ;;		Unchanged: 0/0
  8748 ;; Data sizes:     COMMON   BANK0   BANK1   BANK3   BANK2
  8749 ;;      Params:         8       0       0       0       0
  8750 ;;      Locals:         0       6       0       0       0
  8751 ;;      Temps:          4       0       0       0       0
  8752 ;;      Totals:        12       6       0       0       0
  8753 ;;Total ram usage:       18 bytes
  8754 ;; Hardware stack levels used:    1
  8755 ;; This function calls:
  8756 ;;		Nothing
  8757 ;; This function is called by:
  8758 ;;		_printf
  8759 ;; This function uses a non-reentrant model
  8760 ;;
  8761                           psect	text12,local,class=CODE,delta=2,merge=1,group=1
  8762                           	file	"/opt/microchip/xc8/v2.00/pic/sources/c90/common/ftdivl.c"
  8763                           	line	60
  8764                           global __ptext12
  8765                           __ptext12:	;psect for function __tdiv_to_l_
  8766  1F1F                     psect	text12
  8767                           	file	"/opt/microchip/xc8/v2.00/pic/sources/c90/common/ftdivl.c"
  8768                           	line	60
  8769                           	global	__size_of__tdiv_to_l_
  8770                           	__size_of__tdiv_to_l_	equ	__end_of__tdiv_to_l_-__tdiv_to_l_
  8771  00E1                     	
  8772                           __tdiv_to_l_:	
  8773  1F1F                     ;incstack = 0
  8774                           	opt	stack 6
  8775                           ; Regs used in __tdiv_to_l_: [wreg+status,2+status,0]
  8776                           	line	66
  8777                           	
  8778                           l2679:	
  8779  1F1F                     	movf	(__tdiv_to_l_@f1),w
  8780  1F1F  0870               	movwf	((??__tdiv_to_l_+0)+0)
  8781  1F20  00F8               	movf	(__tdiv_to_l_@f1+1),w
  8782  1F21  0871               	movwf	((??__tdiv_to_l_+0)+0+1)
  8783  1F22  00F9               	movf	(__tdiv_to_l_@f1+2),w
  8784  1F23  0872               	movwf	((??__tdiv_to_l_+0)+0+2)
  8785  1F24  00FA               	clrc
  8786  1F25  1003               	rlf	(??__tdiv_to_l_+0)+1,w
  8787  1F26  0D79               	rlf	(??__tdiv_to_l_+0)+2,w
  8788  1F27  0D7A               	movwf	(??__tdiv_to_l_+3)+0
  8789  1F28  00FB               	movf	(??__tdiv_to_l_+3)+0,w
  8790  1F29  087B               	bcf	status, 5	;RP0=0, select bank0
  8791  1F2A  1283               	bcf	status, 6	;RP1=0, select bank0
  8792  1F2B  1303               	movwf	(__tdiv_to_l_@exp1)
  8793  1F2C  00A5               	movf	(((__tdiv_to_l_@exp1))),w
  8794  1F2D  0825               	btfss	status,2
  8795  1F2E  1D03               	goto	u4301
  8796  1F2F  2F31               	goto	u4300
  8797  1F30  2F32               u4301:
  8798  1F31                     	goto	l2685
  8799  1F31  2F3C               u4300:
  8800  1F32                     	line	67
  8801                           	
  8802                           l2681:	
  8803  1F32                     	movlw	high highword(0)
  8804  1F32  3000               	movwf	(?__tdiv_to_l_+3)
  8805  1F33  00F3               	movlw	low highword(0)
  8806  1F34  3000               	movwf	(?__tdiv_to_l_+2)
  8807  1F35  00F2               	movlw	high(0)
  8808  1F36  3000               	movwf	(?__tdiv_to_l_+1)
  8809  1F37  00F1               	movlw	low(0)
  8810  1F38  3000               	movwf	(?__tdiv_to_l_)
  8811  1F39  00F0               
  8812                           	goto	l483
  8813  1F3A  2FFF               	
  8814                           l2683:	
  8815  1F3B                     	goto	l483
  8816  1F3B  2FFF               	
  8817                           l482:	
  8818  1F3C                     	line	68
  8819                           	
  8820                           l2685:	
  8821  1F3C                     	movf	(__tdiv_to_l_@f2),w
  8822  1F3C  0874               	movwf	((??__tdiv_to_l_+0)+0)
  8823  1F3D  00F8               	movf	(__tdiv_to_l_@f2+1),w
  8824  1F3E  0875               	movwf	((??__tdiv_to_l_+0)+0+1)
  8825  1F3F  00F9               	movf	(__tdiv_to_l_@f2+2),w
  8826  1F40  0876               	movwf	((??__tdiv_to_l_+0)+0+2)
  8827  1F41  00FA               	clrc
  8828  1F42  1003               	rlf	(??__tdiv_to_l_+0)+1,w
  8829  1F43  0D79               	rlf	(??__tdiv_to_l_+0)+2,w
  8830  1F44  0D7A               	movwf	(??__tdiv_to_l_+3)+0
  8831  1F45  00FB               	movf	(??__tdiv_to_l_+3)+0,w
  8832  1F46  087B               	movwf	(__tdiv_to_l_@cntr)
  8833  1F47  00A4               	movf	(((__tdiv_to_l_@cntr))),w
  8834  1F48  0824               	btfss	status,2
  8835  1F49  1D03               	goto	u4311
  8836  1F4A  2F4C               	goto	u4310
  8837  1F4B  2F4D               u4311:
  8838  1F4C                     	goto	l484
  8839  1F4C  2F57               u4310:
  8840  1F4D                     	line	69
  8841                           	
  8842                           l2687:	
  8843  1F4D                     	movlw	high highword(0)
  8844  1F4D  3000               	movwf	(?__tdiv_to_l_+3)
  8845  1F4E  00F3               	movlw	low highword(0)
  8846  1F4F  3000               	movwf	(?__tdiv_to_l_+2)
  8847  1F50  00F2               	movlw	high(0)
  8848  1F51  3000               	movwf	(?__tdiv_to_l_+1)
  8849  1F52  00F1               	movlw	low(0)
  8850  1F53  3000               	movwf	(?__tdiv_to_l_)
  8851  1F54  00F0               
  8852                           	goto	l483
  8853  1F55  2FFF               	
  8854                           l2689:	
  8855  1F56                     	goto	l483
  8856  1F56  2FFF               	
  8857                           l484:	
  8858  1F57                     	line	70
  8859                           	bsf	(__tdiv_to_l_@f1)+(15/8),(15)&7
  8860  1F57  17F1               	line	71
  8861                           	
  8862                           l2691:	
  8863  1F58                     	movlw	0FFh
  8864  1F58  30FF               	andwf	(__tdiv_to_l_@f1),f
  8865  1F59  05F0               	movlw	0FFh
  8866  1F5A  30FF               	andwf	(__tdiv_to_l_@f1+1),f
  8867  1F5B  05F1               	movlw	0
  8868  1F5C  3000               	andwf	(__tdiv_to_l_@f1+2),f
  8869  1F5D  05F2               	line	72
  8870                           	
  8871                           l2693:	
  8872  1F5E                     	bsf	(__tdiv_to_l_@f2)+(15/8),(15)&7
  8873  1F5E  17F5               	line	73
  8874                           	movlw	0FFh
  8875  1F5F  30FF               	andwf	(__tdiv_to_l_@f2),f
  8876  1F60  05F4               	movlw	0FFh
  8877  1F61  30FF               	andwf	(__tdiv_to_l_@f2+1),f
  8878  1F62  05F5               	movlw	0
  8879  1F63  3000               	andwf	(__tdiv_to_l_@f2+2),f
  8880  1F64  05F6               	line	74
  8881                           	movlw	high highword(0)
  8882  1F65  3000               	movwf	(__tdiv_to_l_@quot+3)
  8883  1F66  00A3               	movlw	low highword(0)
  8884  1F67  3000               	movwf	(__tdiv_to_l_@quot+2)
  8885  1F68  00A2               	movlw	high(0)
  8886  1F69  3000               	movwf	(__tdiv_to_l_@quot+1)
  8887  1F6A  00A1               	movlw	low(0)
  8888  1F6B  3000               	movwf	(__tdiv_to_l_@quot)
  8889  1F6C  00A0               
  8890                           	line	75
  8891                           	
  8892                           l2695:	
  8893  1F6D                     	movlw	07Fh
  8894  1F6D  307F               	subwf	(__tdiv_to_l_@exp1),f
  8895  1F6E  02A5               	line	76
  8896                           	
  8897                           l2697:	
  8898  1F6F                     	movlw	low(098h)
  8899  1F6F  3098               	addwf	(__tdiv_to_l_@cntr),w
  8900  1F70  0724               	movwf	(??__tdiv_to_l_+0)+0
  8901  1F71  00F8               	movf	0+(??__tdiv_to_l_+0)+0,w
  8902  1F72  0878               	subwf	(__tdiv_to_l_@exp1),f
  8903  1F73  02A5               	line	77
  8904                           	movlw	low(018h)
  8905  1F74  3018               	movwf	(??__tdiv_to_l_+0)+0
  8906  1F75  00F8               	movf	(??__tdiv_to_l_+0)+0,w
  8907  1F76  0878               	movwf	(__tdiv_to_l_@cntr)
  8908  1F77  00A4               	goto	l2699
  8909  1F78  2F79               	line	78
  8910                           	
  8911                           l485:	
  8912  1F79                     	line	79
  8913                           	
  8914                           l2699:	
  8915  1F79                     	movlw	01h
  8916  1F79  3001               	movwf	(??__tdiv_to_l_+0)+0
  8917  1F7A  00F8               u4325:
  8918  1F7B                     	clrc
  8919  1F7B  1003               	rlf	(__tdiv_to_l_@quot),f
  8920  1F7C  0DA0               	rlf	(__tdiv_to_l_@quot+1),f
  8921  1F7D  0DA1               	rlf	(__tdiv_to_l_@quot+2),f
  8922  1F7E  0DA2               	rlf	(__tdiv_to_l_@quot+3),f
  8923  1F7F  0DA3               	decfsz	(??__tdiv_to_l_+0)+0
  8924  1F80  0BF8               	goto	u4325
  8925  1F81  2F7B               	line	80
  8926                           	
  8927                           l2701:	
  8928  1F82                     	movf	(__tdiv_to_l_@f2+2),w
  8929  1F82  0876               	subwf	(__tdiv_to_l_@f1+2),w
  8930  1F83  0272               	skipz
  8931  1F84  1D03               	goto	u4335
  8932  1F85  2F8C               	movf	(__tdiv_to_l_@f2+1),w
  8933  1F86  0875               	subwf	(__tdiv_to_l_@f1+1),w
  8934  1F87  0271               	skipz
  8935  1F88  1D03               	goto	u4335
  8936  1F89  2F8C               	movf	(__tdiv_to_l_@f2),w
  8937  1F8A  0874               	subwf	(__tdiv_to_l_@f1),w
  8938  1F8B  0270               u4335:
  8939  1F8C                     	skipc
  8940  1F8C  1C03               	goto	u4331
  8941  1F8D  2F8F               	goto	u4330
  8942  1F8E  2F90               u4331:
  8943  1F8F                     	goto	l2707
  8944  1F8F  2F9C               u4330:
  8945  1F90                     	line	81
  8946                           	
  8947                           l2703:	
  8948  1F90                     	movf	(__tdiv_to_l_@f2),w
  8949  1F90  0874               	subwf	(__tdiv_to_l_@f1),f
  8950  1F91  02F0               	movf	(__tdiv_to_l_@f2+1),w
  8951  1F92  0875               	skipc
  8952  1F93  1C03               	incfsz	(__tdiv_to_l_@f2+1),w
  8953  1F94  0F75               	subwf	(__tdiv_to_l_@f1+1),f
  8954  1F95  02F1               	movf	(__tdiv_to_l_@f2+2),w
  8955  1F96  0876               	skipc
  8956  1F97  1C03               	incf	(__tdiv_to_l_@f2+2),w
  8957  1F98  0A76               	subwf	(__tdiv_to_l_@f1+2),f
  8958  1F99  02F2               	line	82
  8959                           	
  8960                           l2705:	
  8961  1F9A                     	bsf	(__tdiv_to_l_@quot)+(0/8),(0)&7
  8962  1F9A  1420               	goto	l2707
  8963  1F9B  2F9C               	line	83
  8964                           	
  8965                           l486:	
  8966  1F9C                     	line	84
  8967                           	
  8968                           l2707:	
  8969  1F9C                     	movlw	01h
  8970  1F9C  3001               u4345:
  8971  1F9D                     	clrc
  8972  1F9D  1003               	rlf	(__tdiv_to_l_@f1),f
  8973  1F9E  0DF0               	rlf	(__tdiv_to_l_@f1+1),f
  8974  1F9F  0DF1               	rlf	(__tdiv_to_l_@f1+2),f
  8975  1FA0  0DF2               	addlw	-1
  8976  1FA1  3EFF               	skipz
  8977  1FA2  1D03               	goto	u4345
  8978  1FA3  2F9D               	line	85
  8979                           	
  8980                           l2709:	
  8981  1FA4                     	movlw	01h
  8982  1FA4  3001               	subwf	(__tdiv_to_l_@cntr),f
  8983  1FA5  02A4               	btfss	status,2
  8984  1FA6  1D03               	goto	u4351
  8985  1FA7  2FA9               	goto	u4350
  8986  1FA8  2FAA               u4351:
  8987  1FA9                     	goto	l2699
  8988  1FA9  2F79               u4350:
  8989  1FAA                     	
  8990                           l487:	
  8991  1FAA                     	line	86
  8992                           	btfss	(__tdiv_to_l_@exp1),7
  8993  1FAA  1FA5               	goto	u4361
  8994  1FAB  2FAD               	goto	u4360
  8995  1FAC  2FAE               u4361:
  8996  1FAD                     	goto	l2719
  8997  1FAD  2FD3               u4360:
  8998  1FAE                     	line	87
  8999                           	
  9000                           l2711:	
  9001  1FAE                     	movf	(__tdiv_to_l_@exp1),w
  9002  1FAE  0825               	xorlw	80h
  9003  1FAF  3A80               	addlw	-((-23)^80h)
  9004  1FB0  3E97               	skipnc
  9005  1FB1  1803               	goto	u4371
  9006  1FB2  2FB4               	goto	u4370
  9007  1FB3  2FB5               u4371:
  9008  1FB4                     	goto	l2717
  9009  1FB4  2FC0               u4370:
  9010  1FB5                     	line	88
  9011                           	
  9012                           l2713:	
  9013  1FB5                     	movlw	high highword(0)
  9014  1FB5  3000               	movwf	(?__tdiv_to_l_+3)
  9015  1FB6  00F3               	movlw	low highword(0)
  9016  1FB7  3000               	movwf	(?__tdiv_to_l_+2)
  9017  1FB8  00F2               	movlw	high(0)
  9018  1FB9  3000               	movwf	(?__tdiv_to_l_+1)
  9019  1FBA  00F1               	movlw	low(0)
  9020  1FBB  3000               	movwf	(?__tdiv_to_l_)
  9021  1FBC  00F0               
  9022                           	goto	l483
  9023  1FBD  2FFF               	
  9024                           l2715:	
  9025  1FBE                     	goto	l483
  9026  1FBE  2FFF               	
  9027                           l489:	
  9028  1FBF                     	goto	l2717
  9029  1FBF  2FC0               	line	89
  9030                           	
  9031                           l490:	
  9032  1FC0                     	line	90
  9033                           	
  9034                           l2717:	
  9035  1FC0                     	movlw	01h
  9036  1FC0  3001               u4385:
  9037  1FC1                     	clrc
  9038  1FC1  1003               	rrf	(__tdiv_to_l_@quot+3),f
  9039  1FC2  0CA3               	rrf	(__tdiv_to_l_@quot+2),f
  9040  1FC3  0CA2               	rrf	(__tdiv_to_l_@quot+1),f
  9041  1FC4  0CA1               	rrf	(__tdiv_to_l_@quot),f
  9042  1FC5  0CA0               	addlw	-1
  9043  1FC6  3EFF               	skipz
  9044  1FC7  1D03               	goto	u4385
  9045  1FC8  2FC1               
  9046                           	line	91
  9047                           	movlw	low(01h)
  9048  1FC9  3001               	movwf	(??__tdiv_to_l_+0)+0
  9049  1FCA  00F8               	movf	(??__tdiv_to_l_+0)+0,w
  9050  1FCB  0878               	addwf	(__tdiv_to_l_@exp1),f
  9051  1FCC  07A5               	btfss	status,2
  9052  1FCD  1D03               	goto	u4391
  9053  1FCE  2FD0               	goto	u4390
  9054  1FCF  2FD1               u4391:
  9055  1FD0                     	goto	l2717
  9056  1FD0  2FC0               u4390:
  9057  1FD1                     	goto	l2727
  9058  1FD1  2FF6               	
  9059                           l491:	
  9060  1FD2                     	line	92
  9061                           	goto	l2727
  9062  1FD2  2FF6               	
  9063                           l488:	
  9064  1FD3                     	line	93
  9065                           	
  9066                           l2719:	
  9067  1FD3                     	movlw	low(018h)
  9068  1FD3  3018               	subwf	(__tdiv_to_l_@exp1),w
  9069  1FD4  0225               	skipc
  9070  1FD5  1C03               	goto	u4401
  9071  1FD6  2FD8               	goto	u4400
  9072  1FD7  2FD9               u4401:
  9073  1FD8                     	goto	l494
  9074  1FD8  2FEF               u4400:
  9075  1FD9                     	line	94
  9076                           	
  9077                           l2721:	
  9078  1FD9                     	movlw	high highword(0)
  9079  1FD9  3000               	movwf	(?__tdiv_to_l_+3)
  9080  1FDA  00F3               	movlw	low highword(0)
  9081  1FDB  3000               	movwf	(?__tdiv_to_l_+2)
  9082  1FDC  00F2               	movlw	high(0)
  9083  1FDD  3000               	movwf	(?__tdiv_to_l_+1)
  9084  1FDE  00F1               	movlw	low(0)
  9085  1FDF  3000               	movwf	(?__tdiv_to_l_)
  9086  1FE0  00F0               
  9087                           	goto	l483
  9088  1FE1  2FFF               	
  9089                           l2723:	
  9090  1FE2                     	goto	l483
  9091  1FE2  2FFF               	
  9092                           l493:	
  9093  1FE3                     	line	95
  9094                           	goto	l494
  9095  1FE3  2FEF               	
  9096                           l495:	
  9097  1FE4                     	line	96
  9098                           	
  9099                           l2725:	
  9100  1FE4                     	movlw	01h
  9101  1FE4  3001               	movwf	(??__tdiv_to_l_+0)+0
  9102  1FE5  00F8               u4415:
  9103  1FE6                     	clrc
  9104  1FE6  1003               	rlf	(__tdiv_to_l_@quot),f
  9105  1FE7  0DA0               	rlf	(__tdiv_to_l_@quot+1),f
  9106  1FE8  0DA1               	rlf	(__tdiv_to_l_@quot+2),f
  9107  1FE9  0DA2               	rlf	(__tdiv_to_l_@quot+3),f
  9108  1FEA  0DA3               	decfsz	(??__tdiv_to_l_+0)+0
  9109  1FEB  0BF8               	goto	u4415
  9110  1FEC  2FE6               	line	97
  9111                           	movlw	01h
  9112  1FED  3001               	subwf	(__tdiv_to_l_@exp1),f
  9113  1FEE  02A5               	line	98
  9114                           	
  9115                           l494:	
  9116  1FEF                     	line	95
  9117                           	movf	((__tdiv_to_l_@exp1)),w
  9118  1FEF  0825               	btfss	status,2
  9119  1FF0  1D03               	goto	u4421
  9120  1FF1  2FF3               	goto	u4420
  9121  1FF2  2FF4               u4421:
  9122  1FF3                     	goto	l2725
  9123  1FF3  2FE4               u4420:
  9124  1FF4                     	goto	l2727
  9125  1FF4  2FF6               	
  9126                           l496:	
  9127  1FF5                     	goto	l2727
  9128  1FF5  2FF6               	line	99
  9129                           	
  9130                           l492:	
  9131  1FF6                     	line	100
  9132                           	
  9133                           l2727:	
  9134  1FF6                     	movf	(__tdiv_to_l_@quot+3),w
  9135  1FF6  0823               	movwf	(?__tdiv_to_l_+3)
  9136  1FF7  00F3               	movf	(__tdiv_to_l_@quot+2),w
  9137  1FF8  0822               	movwf	(?__tdiv_to_l_+2)
  9138  1FF9  00F2               	movf	(__tdiv_to_l_@quot+1),w
  9139  1FFA  0821               	movwf	(?__tdiv_to_l_+1)
  9140  1FFB  00F1               	movf	(__tdiv_to_l_@quot),w
  9141  1FFC  0820               	movwf	(?__tdiv_to_l_)
  9142  1FFD  00F0               
  9143                           	goto	l483
  9144  1FFE  2FFF               	
  9145                           l2729:	
  9146  1FFF                     	line	101
  9147                           	
  9148                           l483:	
  9149  1FFF                     	return
  9150  1FFF  0008               	opt stack 0
  9151                           GLOBAL	__end_of__tdiv_to_l_
  9152                           	__end_of__tdiv_to_l_:
  9153  2000                     	signat	__tdiv_to_l_,8316
  9154                           	global	__div_to_l_
  9155                           
  9156 ;; *************** function __div_to_l_ *****************
  9157 ;; Defined at:
  9158 ;;		line 60 in file "/opt/microchip/xc8/v2.00/pic/sources/c90/common/fldivl.c"
  9159 ;; Parameters:    Size  Location     Type
  9160 ;;  f1              4    0[COMMON] unsigned long 
  9161 ;;  f2              4    4[COMMON] unsigned long 
  9162 ;; Auto vars:     Size  Location     Type
  9163 ;;  quot            4    0[BANK0 ] unsigned long 
  9164 ;;  exp1            1    5[BANK0 ] unsigned char 
  9165 ;;  cntr            1    4[BANK0 ] unsigned char 
  9166 ;; Return value:  Size  Location     Type
  9167 ;;                  4    0[COMMON] unsigned long 
  9168 ;; Registers used:
  9169 ;;		wreg, status,2, status,0
  9170 ;; Tracked objects:
  9171 ;;		On entry : 0/0
  9172 ;;		On exit  : 0/0
  9173 ;;		Unchanged: 0/0
  9174 ;; Data sizes:     COMMON   BANK0   BANK1   BANK3   BANK2
  9175 ;;      Params:         8       0       0       0       0
  9176 ;;      Locals:         0       6       0       0       0
  9177 ;;      Temps:          5       0       0       0       0
  9178 ;;      Totals:        13       6       0       0       0
  9179 ;;Total ram usage:       19 bytes
  9180 ;; Hardware stack levels used:    1
  9181 ;; This function calls:
  9182 ;;		Nothing
  9183 ;; This function is called by:
  9184 ;;		_printf
  9185 ;; This function uses a non-reentrant model
  9186 ;;
  9187                           psect	text13,local,class=CODE,delta=2,merge=1,group=1
  9188                           	file	"/opt/microchip/xc8/v2.00/pic/sources/c90/common/fldivl.c"
  9189                           	line	60
  9190                           global __ptext13
  9191                           __ptext13:	;psect for function __div_to_l_
  9192  1091                     psect	text13
  9193                           	file	"/opt/microchip/xc8/v2.00/pic/sources/c90/common/fldivl.c"
  9194                           	line	60
  9195                           	global	__size_of__div_to_l_
  9196                           	__size_of__div_to_l_	equ	__end_of__div_to_l_-__div_to_l_
  9197  00F2                     	
  9198                           __div_to_l_:	
  9199  1091                     ;incstack = 0
  9200                           	opt	stack 6
  9201                           ; Regs used in __div_to_l_: [wreg+status,2+status,0]
  9202                           	line	66
  9203                           	
  9204                           l2731:	
  9205  1091                     	movf	(__div_to_l_@f1),w
  9206  1091  0870               	movwf	(??__div_to_l_+0)+0
  9207  1092  00F8               	movf	(__div_to_l_@f1+1),w
  9208  1093  0871               	movwf	((??__div_to_l_+0)+0+1)
  9209  1094  00F9               	movf	(__div_to_l_@f1+2),w
  9210  1095  0872               	movwf	((??__div_to_l_+0)+0+2)
  9211  1096  00FA               	movf	(__div_to_l_@f1+3),w
  9212  1097  0873               	movwf	((??__div_to_l_+0)+0+3)
  9213  1098  00FB               	clrc
  9214  1099  1003               	rlf	(??__div_to_l_+0)+2,w
  9215  109A  0D7A               	rlf	(??__div_to_l_+0)+3,w
  9216  109B  0D7B               	movwf	(??__div_to_l_+4)+0
  9217  109C  00FC               	movf	(??__div_to_l_+4)+0,w
  9218  109D  087C               	bcf	status, 5	;RP0=0, select bank0
  9219  109E  1283               	bcf	status, 6	;RP1=0, select bank0
  9220  109F  1303               	movwf	(__div_to_l_@exp1)
  9221  10A0  00A5               	movf	(((__div_to_l_@exp1))),w
  9222  10A1  0825               	btfss	status,2
  9223  10A2  1D03               	goto	u4431
  9224  10A3  28A5               	goto	u4430
  9225  10A4  28A6               u4431:
  9226  10A5                     	goto	l2737
  9227  10A5  28B0               u4430:
  9228  10A6                     	line	67
  9229                           	
  9230                           l2733:	
  9231  10A6                     	movlw	high highword(0)
  9232  10A6  3000               	movwf	(?__div_to_l_+3)
  9233  10A7  00F3               	movlw	low highword(0)
  9234  10A8  3000               	movwf	(?__div_to_l_+2)
  9235  10A9  00F2               	movlw	high(0)
  9236  10AA  3000               	movwf	(?__div_to_l_+1)
  9237  10AB  00F1               	movlw	low(0)
  9238  10AC  3000               	movwf	(?__div_to_l_)
  9239  10AD  00F0               
  9240                           	goto	l436
  9241  10AE  2982               	
  9242                           l2735:	
  9243  10AF                     	goto	l436
  9244  10AF  2982               	
  9245                           l435:	
  9246  10B0                     	line	68
  9247                           	
  9248                           l2737:	
  9249  10B0                     	movf	(__div_to_l_@f2),w
  9250  10B0  0874               	movwf	(??__div_to_l_+0)+0
  9251  10B1  00F8               	movf	(__div_to_l_@f2+1),w
  9252  10B2  0875               	movwf	((??__div_to_l_+0)+0+1)
  9253  10B3  00F9               	movf	(__div_to_l_@f2+2),w
  9254  10B4  0876               	movwf	((??__div_to_l_+0)+0+2)
  9255  10B5  00FA               	movf	(__div_to_l_@f2+3),w
  9256  10B6  0877               	movwf	((??__div_to_l_+0)+0+3)
  9257  10B7  00FB               	clrc
  9258  10B8  1003               	rlf	(??__div_to_l_+0)+2,w
  9259  10B9  0D7A               	rlf	(??__div_to_l_+0)+3,w
  9260  10BA  0D7B               	movwf	(??__div_to_l_+4)+0
  9261  10BB  00FC               	movf	(??__div_to_l_+4)+0,w
  9262  10BC  087C               	movwf	(__div_to_l_@cntr)
  9263  10BD  00A4               	movf	(((__div_to_l_@cntr))),w
  9264  10BE  0824               	btfss	status,2
  9265  10BF  1D03               	goto	u4441
  9266  10C0  28C2               	goto	u4440
  9267  10C1  28C3               u4441:
  9268  10C2                     	goto	l437
  9269  10C2  28CD               u4440:
  9270  10C3                     	line	69
  9271                           	
  9272                           l2739:	
  9273  10C3                     	movlw	high highword(0)
  9274  10C3  3000               	movwf	(?__div_to_l_+3)
  9275  10C4  00F3               	movlw	low highword(0)
  9276  10C5  3000               	movwf	(?__div_to_l_+2)
  9277  10C6  00F2               	movlw	high(0)
  9278  10C7  3000               	movwf	(?__div_to_l_+1)
  9279  10C8  00F1               	movlw	low(0)
  9280  10C9  3000               	movwf	(?__div_to_l_)
  9281  10CA  00F0               
  9282                           	goto	l436
  9283  10CB  2982               	
  9284                           l2741:	
  9285  10CC                     	goto	l436
  9286  10CC  2982               	
  9287                           l437:	
  9288  10CD                     	line	70
  9289                           	bsf	(__div_to_l_@f1)+(23/8),(23)&7
  9290  10CD  17F2               	line	71
  9291                           	
  9292                           l2743:	
  9293  10CE                     	movlw	0FFh
  9294  10CE  30FF               	andwf	(__div_to_l_@f1),f
  9295  10CF  05F0               	movlw	0FFh
  9296  10D0  30FF               	andwf	(__div_to_l_@f1+1),f
  9297  10D1  05F1               	movlw	0FFh
  9298  10D2  30FF               	andwf	(__div_to_l_@f1+2),f
  9299  10D3  05F2               	movlw	0
  9300  10D4  3000               	andwf	(__div_to_l_@f1+3),f
  9301  10D5  05F3               	line	72
  9302                           	
  9303                           l2745:	
  9304  10D6                     	bsf	(__div_to_l_@f2)+(23/8),(23)&7
  9305  10D6  17F6               	line	73
  9306                           	movlw	0FFh
  9307  10D7  30FF               	andwf	(__div_to_l_@f2),f
  9308  10D8  05F4               	movlw	0FFh
  9309  10D9  30FF               	andwf	(__div_to_l_@f2+1),f
  9310  10DA  05F5               	movlw	0FFh
  9311  10DB  30FF               	andwf	(__div_to_l_@f2+2),f
  9312  10DC  05F6               	movlw	0
  9313  10DD  3000               	andwf	(__div_to_l_@f2+3),f
  9314  10DE  05F7               	line	74
  9315                           	movlw	high highword(0)
  9316  10DF  3000               	movwf	(__div_to_l_@quot+3)
  9317  10E0  00A3               	movlw	low highword(0)
  9318  10E1  3000               	movwf	(__div_to_l_@quot+2)
  9319  10E2  00A2               	movlw	high(0)
  9320  10E3  3000               	movwf	(__div_to_l_@quot+1)
  9321  10E4  00A1               	movlw	low(0)
  9322  10E5  3000               	movwf	(__div_to_l_@quot)
  9323  10E6  00A0               
  9324                           	line	75
  9325                           	
  9326                           l2747:	
  9327  10E7                     	movlw	07Fh
  9328  10E7  307F               	subwf	(__div_to_l_@exp1),f
  9329  10E8  02A5               	line	76
  9330                           	
  9331                           l2749:	
  9332  10E9                     	movlw	low(0A0h)
  9333  10E9  30A0               	addwf	(__div_to_l_@cntr),w
  9334  10EA  0724               	movwf	(??__div_to_l_+0)+0
  9335  10EB  00F8               	movf	0+(??__div_to_l_+0)+0,w
  9336  10EC  0878               	subwf	(__div_to_l_@exp1),f
  9337  10ED  02A5               	line	77
  9338                           	movlw	low(020h)
  9339  10EE  3020               	movwf	(??__div_to_l_+0)+0
  9340  10EF  00F8               	movf	(??__div_to_l_+0)+0,w
  9341  10F0  0878               	movwf	(__div_to_l_@cntr)
  9342  10F1  00A4               	goto	l2751
  9343  10F2  28F3               	line	78
  9344                           	
  9345                           l438:	
  9346  10F3                     	line	79
  9347                           	
  9348                           l2751:	
  9349  10F3                     	movlw	01h
  9350  10F3  3001               	movwf	(??__div_to_l_+0)+0
  9351  10F4  00F8               u4455:
  9352  10F5                     	clrc
  9353  10F5  1003               	rlf	(__div_to_l_@quot),f
  9354  10F6  0DA0               	rlf	(__div_to_l_@quot+1),f
  9355  10F7  0DA1               	rlf	(__div_to_l_@quot+2),f
  9356  10F8  0DA2               	rlf	(__div_to_l_@quot+3),f
  9357  10F9  0DA3               	decfsz	(??__div_to_l_+0)+0
  9358  10FA  0BF8               	goto	u4455
  9359  10FB  28F5               	line	80
  9360                           	
  9361                           l2753:	
  9362  10FC                     	movf	(__div_to_l_@f2+3),w
  9363  10FC  0877               	subwf	(__div_to_l_@f1+3),w
  9364  10FD  0273               	skipz
  9365  10FE  1D03               	goto	u4465
  9366  10FF  290A               	movf	(__div_to_l_@f2+2),w
  9367  1100  0876               	subwf	(__div_to_l_@f1+2),w
  9368  1101  0272               	skipz
  9369  1102  1D03               	goto	u4465
  9370  1103  290A               	movf	(__div_to_l_@f2+1),w
  9371  1104  0875               	subwf	(__div_to_l_@f1+1),w
  9372  1105  0271               	skipz
  9373  1106  1D03               	goto	u4465
  9374  1107  290A               	movf	(__div_to_l_@f2),w
  9375  1108  0874               	subwf	(__div_to_l_@f1),w
  9376  1109  0270               u4465:
  9377  110A                     	skipc
  9378  110A  1C03               	goto	u4461
  9379  110B  290D               	goto	u4460
  9380  110C  290E               u4461:
  9381  110D                     	goto	l2759
  9382  110D  291E               u4460:
  9383  110E                     	line	81
  9384                           	
  9385                           l2755:	
  9386  110E                     	movf	(__div_to_l_@f2),w
  9387  110E  0874               	subwf	(__div_to_l_@f1),f
  9388  110F  02F0               	movf	(__div_to_l_@f2+1),w
  9389  1110  0875               	skipc
  9390  1111  1C03               	incfsz	(__div_to_l_@f2+1),w
  9391  1112  0F75               	subwf	(__div_to_l_@f1+1),f
  9392  1113  02F1               	movf	(__div_to_l_@f2+2),w
  9393  1114  0876               	skipc
  9394  1115  1C03               	incfsz	(__div_to_l_@f2+2),w
  9395  1116  0F76               	subwf	(__div_to_l_@f1+2),f
  9396  1117  02F2               	movf	(__div_to_l_@f2+3),w
  9397  1118  0877               	skipc
  9398  1119  1C03               	incfsz	(__div_to_l_@f2+3),w
  9399  111A  0F77               	subwf	(__div_to_l_@f1+3),f
  9400  111B  02F3               	line	82
  9401                           	
  9402                           l2757:	
  9403  111C                     	bsf	(__div_to_l_@quot)+(0/8),(0)&7
  9404  111C  1420               	goto	l2759
  9405  111D  291E               	line	83
  9406                           	
  9407                           l439:	
  9408  111E                     	line	84
  9409                           	
  9410                           l2759:	
  9411  111E                     	movlw	01h
  9412  111E  3001               	movwf	(??__div_to_l_+0)+0
  9413  111F  00F8               u4475:
  9414  1120                     	clrc
  9415  1120  1003               	rlf	(__div_to_l_@f1),f
  9416  1121  0DF0               	rlf	(__div_to_l_@f1+1),f
  9417  1122  0DF1               	rlf	(__div_to_l_@f1+2),f
  9418  1123  0DF2               	rlf	(__div_to_l_@f1+3),f
  9419  1124  0DF3               	decfsz	(??__div_to_l_+0)+0
  9420  1125  0BF8               	goto	u4475
  9421  1126  2920               	line	85
  9422                           	
  9423                           l2761:	
  9424  1127                     	movlw	01h
  9425  1127  3001               	subwf	(__div_to_l_@cntr),f
  9426  1128  02A4               	btfss	status,2
  9427  1129  1D03               	goto	u4481
  9428  112A  292C               	goto	u4480
  9429  112B  292D               u4481:
  9430  112C                     	goto	l2751
  9431  112C  28F3               u4480:
  9432  112D                     	
  9433                           l440:	
  9434  112D                     	line	86
  9435                           	btfss	(__div_to_l_@exp1),7
  9436  112D  1FA5               	goto	u4491
  9437  112E  2930               	goto	u4490
  9438  112F  2931               u4491:
  9439  1130                     	goto	l2771
  9440  1130  2956               u4490:
  9441  1131                     	line	87
  9442                           	
  9443                           l2763:	
  9444  1131                     	movf	(__div_to_l_@exp1),w
  9445  1131  0825               	xorlw	80h
  9446  1132  3A80               	addlw	-((-31)^80h)
  9447  1133  3E9F               	skipnc
  9448  1134  1803               	goto	u4501
  9449  1135  2937               	goto	u4500
  9450  1136  2938               u4501:
  9451  1137                     	goto	l2769
  9452  1137  2943               u4500:
  9453  1138                     	line	88
  9454                           	
  9455                           l2765:	
  9456  1138                     	movlw	high highword(0)
  9457  1138  3000               	movwf	(?__div_to_l_+3)
  9458  1139  00F3               	movlw	low highword(0)
  9459  113A  3000               	movwf	(?__div_to_l_+2)
  9460  113B  00F2               	movlw	high(0)
  9461  113C  3000               	movwf	(?__div_to_l_+1)
  9462  113D  00F1               	movlw	low(0)
  9463  113E  3000               	movwf	(?__div_to_l_)
  9464  113F  00F0               
  9465                           	goto	l436
  9466  1140  2982               	
  9467                           l2767:	
  9468  1141                     	goto	l436
  9469  1141  2982               	
  9470                           l442:	
  9471  1142                     	goto	l2769
  9472  1142  2943               	line	89
  9473                           	
  9474                           l443:	
  9475  1143                     	line	90
  9476                           	
  9477                           l2769:	
  9478  1143                     	movlw	01h
  9479  1143  3001               u4515:
  9480  1144                     	clrc
  9481  1144  1003               	rrf	(__div_to_l_@quot+3),f
  9482  1145  0CA3               	rrf	(__div_to_l_@quot+2),f
  9483  1146  0CA2               	rrf	(__div_to_l_@quot+1),f
  9484  1147  0CA1               	rrf	(__div_to_l_@quot),f
  9485  1148  0CA0               	addlw	-1
  9486  1149  3EFF               	skipz
  9487  114A  1D03               	goto	u4515
  9488  114B  2944               
  9489                           	line	91
  9490                           	movlw	low(01h)
  9491  114C  3001               	movwf	(??__div_to_l_+0)+0
  9492  114D  00F8               	movf	(??__div_to_l_+0)+0,w
  9493  114E  0878               	addwf	(__div_to_l_@exp1),f
  9494  114F  07A5               	btfss	status,2
  9495  1150  1D03               	goto	u4521
  9496  1151  2953               	goto	u4520
  9497  1152  2954               u4521:
  9498  1153                     	goto	l2769
  9499  1153  2943               u4520:
  9500  1154                     	goto	l2779
  9501  1154  2979               	
  9502                           l444:	
  9503  1155                     	line	92
  9504                           	goto	l2779
  9505  1155  2979               	
  9506                           l441:	
  9507  1156                     	line	93
  9508                           	
  9509                           l2771:	
  9510  1156                     	movlw	low(020h)
  9511  1156  3020               	subwf	(__div_to_l_@exp1),w
  9512  1157  0225               	skipc
  9513  1158  1C03               	goto	u4531
  9514  1159  295B               	goto	u4530
  9515  115A  295C               u4531:
  9516  115B                     	goto	l447
  9517  115B  2972               u4530:
  9518  115C                     	line	94
  9519                           	
  9520                           l2773:	
  9521  115C                     	movlw	high highword(0)
  9522  115C  3000               	movwf	(?__div_to_l_+3)
  9523  115D  00F3               	movlw	low highword(0)
  9524  115E  3000               	movwf	(?__div_to_l_+2)
  9525  115F  00F2               	movlw	high(0)
  9526  1160  3000               	movwf	(?__div_to_l_+1)
  9527  1161  00F1               	movlw	low(0)
  9528  1162  3000               	movwf	(?__div_to_l_)
  9529  1163  00F0               
  9530                           	goto	l436
  9531  1164  2982               	
  9532                           l2775:	
  9533  1165                     	goto	l436
  9534  1165  2982               	
  9535                           l446:	
  9536  1166                     	line	95
  9537                           	goto	l447
  9538  1166  2972               	
  9539                           l448:	
  9540  1167                     	line	96
  9541                           	
  9542                           l2777:	
  9543  1167                     	movlw	01h
  9544  1167  3001               	movwf	(??__div_to_l_+0)+0
  9545  1168  00F8               u4545:
  9546  1169                     	clrc
  9547  1169  1003               	rlf	(__div_to_l_@quot),f
  9548  116A  0DA0               	rlf	(__div_to_l_@quot+1),f
  9549  116B  0DA1               	rlf	(__div_to_l_@quot+2),f
  9550  116C  0DA2               	rlf	(__div_to_l_@quot+3),f
  9551  116D  0DA3               	decfsz	(??__div_to_l_+0)+0
  9552  116E  0BF8               	goto	u4545
  9553  116F  2969               	line	97
  9554                           	movlw	01h
  9555  1170  3001               	subwf	(__div_to_l_@exp1),f
  9556  1171  02A5               	line	98
  9557                           	
  9558                           l447:	
  9559  1172                     	line	95
  9560                           	movf	((__div_to_l_@exp1)),w
  9561  1172  0825               	btfss	status,2
  9562  1173  1D03               	goto	u4551
  9563  1174  2976               	goto	u4550
  9564  1175  2977               u4551:
  9565  1176                     	goto	l2777
  9566  1176  2967               u4550:
  9567  1177                     	goto	l2779
  9568  1177  2979               	
  9569                           l449:	
  9570  1178                     	goto	l2779
  9571  1178  2979               	line	99
  9572                           	
  9573                           l445:	
  9574  1179                     	line	100
  9575                           	
  9576                           l2779:	
  9577  1179                     	movf	(__div_to_l_@quot+3),w
  9578  1179  0823               	movwf	(?__div_to_l_+3)
  9579  117A  00F3               	movf	(__div_to_l_@quot+2),w
  9580  117B  0822               	movwf	(?__div_to_l_+2)
  9581  117C  00F2               	movf	(__div_to_l_@quot+1),w
  9582  117D  0821               	movwf	(?__div_to_l_+1)
  9583  117E  00F1               	movf	(__div_to_l_@quot),w
  9584  117F  0820               	movwf	(?__div_to_l_)
  9585  1180  00F0               
  9586                           	goto	l436
  9587  1181  2982               	
  9588                           l2781:	
  9589  1182                     	line	101
  9590                           	
  9591                           l436:	
  9592  1182                     	return
  9593  1182  0008               	opt stack 0
  9594                           GLOBAL	__end_of__div_to_l_
  9595                           	__end_of__div_to_l_:
  9596  1183                     	signat	__div_to_l_,8316
  9597                           	global	___xxtofl
  9598                           
  9599 ;; *************** function ___xxtofl *****************
  9600 ;; Defined at:
  9601 ;;		line 10 in file "/opt/microchip/xc8/v2.00/pic/sources/c90/common/xxtofl.c"
  9602 ;; Parameters:    Size  Location     Type
  9603 ;;  sign            1    wreg     unsigned char 
  9604 ;;  val             4    0[COMMON] long 
  9605 ;; Auto vars:     Size  Location     Type
  9606 ;;  sign            1    8[COMMON] unsigned char 
  9607 ;;  arg             4   10[COMMON] unsigned long 
  9608 ;;  exp             1    9[COMMON] unsigned char 
  9609 ;; Return value:  Size  Location     Type
  9610 ;;                  4    0[COMMON] unsigned char 
  9611 ;; Registers used:
  9612 ;;		wreg, status,2, status,0
  9613 ;; Tracked objects:
  9614 ;;		On entry : 0/0
  9615 ;;		On exit  : 0/0
  9616 ;;		Unchanged: 0/0
  9617 ;; Data sizes:     COMMON   BANK0   BANK1   BANK3   BANK2
  9618 ;;      Params:         4       0       0       0       0
  9619 ;;      Locals:         6       0       0       0       0
  9620 ;;      Temps:          4       0       0       0       0
  9621 ;;      Totals:        14       0       0       0       0
  9622 ;;Total ram usage:       14 bytes
  9623 ;; Hardware stack levels used:    1
  9624 ;; This function calls:
  9625 ;;		Nothing
  9626 ;; This function is called by:
  9627 ;;		_main
  9628 ;;		_printf
  9629 ;; This function uses a non-reentrant model
  9630 ;;
  9631                           psect	text14,local,class=CODE,delta=2,merge=1,group=1
  9632                           	file	"/opt/microchip/xc8/v2.00/pic/sources/c90/common/xxtofl.c"
  9633                           	line	10
  9634                           global __ptext14
  9635                           __ptext14:	;psect for function ___xxtofl
  9636  1D9A                     psect	text14
  9637                           	file	"/opt/microchip/xc8/v2.00/pic/sources/c90/common/xxtofl.c"
  9638                           	line	10
  9639                           	global	__size_of___xxtofl
  9640                           	__size_of___xxtofl	equ	__end_of___xxtofl-___xxtofl
  9641  00C2                     	
  9642                           ___xxtofl:	
  9643  1D9A                     ;incstack = 0
  9644                           	opt	stack 6
  9645                           ; Regs used in ___xxtofl: [wreg+status,2+status,0]
  9646                           ;___xxtofl@sign stored from wreg
  9647                           	movwf	(___xxtofl@sign)
  9648  1D9A  00F8               	line	15
  9649                           	
  9650                           l2929:	
  9651  1D9B                     	movf	((___xxtofl@sign)),w
  9652  1D9B  0878               	btfsc	status,2
  9653  1D9C  1903               	goto	u4941
  9654  1D9D  2D9F               	goto	u4940
  9655  1D9E  2DA0               u4941:
  9656  1D9F                     	goto	l2935
  9657  1D9F  2DB4               u4940:
  9658  1DA0                     	
  9659                           l2931:	
  9660  1DA0                     	btfss	(___xxtofl@val+3),7
  9661  1DA0  1FF3               	goto	u4951
  9662  1DA1  2DA3               	goto	u4950
  9663  1DA2  2DA4               u4951:
  9664  1DA3                     	goto	l2935
  9665  1DA3  2DB4               u4950:
  9666  1DA4                     	line	16
  9667                           	
  9668                           l2933:	
  9669  1DA4                     	comf	(___xxtofl@val)+0,w
  9670  1DA4  0970               	movwf	(___xxtofl@arg)
  9671  1DA5  00FA               	comf	(___xxtofl@val)+1,w
  9672  1DA6  0971               	movwf	(___xxtofl@arg+1)
  9673  1DA7  00FB               	comf	(___xxtofl@val)+2,w
  9674  1DA8  0972               	movwf	(___xxtofl@arg+2)
  9675  1DA9  00FC               	comf	(___xxtofl@val)+3,w
  9676  1DAA  0973               	movwf	(___xxtofl@arg+3)
  9677  1DAB  00FD               	incf	(___xxtofl@arg),f
  9678  1DAC  0AFA               	skipnz
  9679  1DAD  1903               	incf	(___xxtofl@arg+1),f
  9680  1DAE  0AFB               	skipnz
  9681  1DAF  1903               	incf	(___xxtofl@arg+2),f
  9682  1DB0  0AFC               	skipnz
  9683  1DB1  1903               	incf	(___xxtofl@arg+3),f
  9684  1DB2  0AFD               	line	17
  9685                           	goto	l708
  9686  1DB3  2DBC               	line	18
  9687                           	
  9688                           l707:	
  9689  1DB4                     	line	19
  9690                           	
  9691                           l2935:	
  9692  1DB4                     	movf	(___xxtofl@val+3),w
  9693  1DB4  0873               	movwf	(___xxtofl@arg+3)
  9694  1DB5  00FD               	movf	(___xxtofl@val+2),w
  9695  1DB6  0872               	movwf	(___xxtofl@arg+2)
  9696  1DB7  00FC               	movf	(___xxtofl@val+1),w
  9697  1DB8  0871               	movwf	(___xxtofl@arg+1)
  9698  1DB9  00FB               	movf	(___xxtofl@val),w
  9699  1DBA  0870               	movwf	(___xxtofl@arg)
  9700  1DBB  00FA               
  9701                           	line	20
  9702                           	
  9703                           l708:	
  9704  1DBC                     	line	21
  9705                           	movf	(___xxtofl@val+3),w
  9706  1DBC  0873               	iorwf	(___xxtofl@val+2),w
  9707  1DBD  0472               	iorwf	(___xxtofl@val+1),w
  9708  1DBE  0471               	iorwf	(___xxtofl@val),w
  9709  1DBF  0470               	skipz
  9710  1DC0  1D03               	goto	u4961
  9711  1DC1  2DC3               	goto	u4960
  9712  1DC2  2DC4               u4961:
  9713  1DC3                     	goto	l2941
  9714  1DC3  2DCE               u4960:
  9715  1DC4                     	line	22
  9716                           	
  9717                           l2937:	
  9718  1DC4                     	movlw	0x0
  9719  1DC4  3000               	movwf	(?___xxtofl+3)
  9720  1DC5  00F3               	movlw	0x0
  9721  1DC6  3000               	movwf	(?___xxtofl+2)
  9722  1DC7  00F2               	movlw	0x0
  9723  1DC8  3000               	movwf	(?___xxtofl+1)
  9724  1DC9  00F1               	movlw	0x0
  9725  1DCA  3000               	movwf	(?___xxtofl)
  9726  1DCB  00F0               
  9727                           	goto	l710
  9728  1DCC  2E5B               	
  9729                           l2939:	
  9730  1DCD                     	goto	l710
  9731  1DCD  2E5B               	
  9732                           l709:	
  9733  1DCE                     	line	23
  9734                           	
  9735                           l2941:	
  9736  1DCE                     	movlw	low(096h)
  9737  1DCE  3096               	movwf	(??___xxtofl+0)+0
  9738  1DCF  00F4               	movf	(??___xxtofl+0)+0,w
  9739  1DD0  0874               	movwf	(___xxtofl@exp)
  9740  1DD1  00F9               	line	24
  9741                           	goto	l2945
  9742  1DD2  2DE1               	
  9743                           l712:	
  9744  1DD3                     	line	25
  9745                           	
  9746                           l2943:	
  9747  1DD3                     	movlw	low(01h)
  9748  1DD3  3001               	movwf	(??___xxtofl+0)+0
  9749  1DD4  00F4               	movf	(??___xxtofl+0)+0,w
  9750  1DD5  0874               	addwf	(___xxtofl@exp),f
  9751  1DD6  07F9               	line	26
  9752                           	movlw	01h
  9753  1DD7  3001               u4975:
  9754  1DD8                     	clrc
  9755  1DD8  1003               	rrf	(___xxtofl@arg+3),f
  9756  1DD9  0CFD               	rrf	(___xxtofl@arg+2),f
  9757  1DDA  0CFC               	rrf	(___xxtofl@arg+1),f
  9758  1DDB  0CFB               	rrf	(___xxtofl@arg),f
  9759  1DDC  0CFA               	addlw	-1
  9760  1DDD  3EFF               	skipz
  9761  1DDE  1D03               	goto	u4975
  9762  1DDF  2DD8               
  9763                           	goto	l2945
  9764  1DE0  2DE1               	line	27
  9765                           	
  9766                           l711:	
  9767  1DE1                     	line	24
  9768                           	
  9769                           l2945:	
  9770  1DE1                     	movlw	high highword(0FE000000h)
  9771  1DE1  30FE               	andwf	(___xxtofl@arg+3),w
  9772  1DE2  057D               	btfss	status,2
  9773  1DE3  1D03               	goto	u4981
  9774  1DE4  2DE6               	goto	u4980
  9775  1DE5  2DE7               u4981:
  9776  1DE6                     	goto	l2943
  9777  1DE6  2DD3               u4980:
  9778  1DE7                     	goto	l714
  9779  1DE7  2E04               	
  9780                           l713:	
  9781  1DE8                     	line	28
  9782                           	goto	l714
  9783  1DE8  2E04               	
  9784                           l715:	
  9785  1DE9                     	line	29
  9786                           	
  9787                           l2947:	
  9788  1DE9                     	movlw	low(01h)
  9789  1DE9  3001               	movwf	(??___xxtofl+0)+0
  9790  1DEA  00F4               	movf	(??___xxtofl+0)+0,w
  9791  1DEB  0874               	addwf	(___xxtofl@exp),f
  9792  1DEC  07F9               	line	30
  9793                           	
  9794                           l2949:	
  9795  1DED                     	movlw	01h
  9796  1DED  3001               	addwf	(___xxtofl@arg),f
  9797  1DEE  07FA               	movlw	0
  9798  1DEF  3000               	skipnc
  9799  1DF0  1803               movlw 1
  9800  1DF1  3001               	addwf	(___xxtofl@arg+1),f
  9801  1DF2  07FB               	movlw	0
  9802  1DF3  3000               	skipnc
  9803  1DF4  1803               movlw 1
  9804  1DF5  3001               	addwf	(___xxtofl@arg+2),f
  9805  1DF6  07FC               	movlw	0
  9806  1DF7  3000               	skipnc
  9807  1DF8  1803               movlw 1
  9808  1DF9  3001               	addwf	(___xxtofl@arg+3),f
  9809  1DFA  07FD               	line	31
  9810                           	
  9811                           l2951:	
  9812  1DFB                     	movlw	01h
  9813  1DFB  3001               u4995:
  9814  1DFC                     	clrc
  9815  1DFC  1003               	rrf	(___xxtofl@arg+3),f
  9816  1DFD  0CFD               	rrf	(___xxtofl@arg+2),f
  9817  1DFE  0CFC               	rrf	(___xxtofl@arg+1),f
  9818  1DFF  0CFB               	rrf	(___xxtofl@arg),f
  9819  1E00  0CFA               	addlw	-1
  9820  1E01  3EFF               	skipz
  9821  1E02  1D03               	goto	u4995
  9822  1E03  2DFC               
  9823                           	line	32
  9824                           	
  9825                           l714:	
  9826  1E04                     	line	28
  9827                           	movlw	high highword(0FF000000h)
  9828  1E04  30FF               	andwf	(___xxtofl@arg+3),w
  9829  1E05  057D               	btfss	status,2
  9830  1E06  1D03               	goto	u5001
  9831  1E07  2E09               	goto	u5000
  9832  1E08  2E0A               u5001:
  9833  1E09                     	goto	l2947
  9834  1E09  2DE9               u5000:
  9835  1E0A                     	goto	l2955
  9836  1E0A  2E18               	
  9837                           l716:	
  9838  1E0B                     	line	33
  9839                           	goto	l2955
  9840  1E0B  2E18               	
  9841                           l718:	
  9842  1E0C                     	line	34
  9843                           	
  9844                           l2953:	
  9845  1E0C                     	movlw	01h
  9846  1E0C  3001               	subwf	(___xxtofl@exp),f
  9847  1E0D  02F9               	line	35
  9848                           	movlw	01h
  9849  1E0E  3001               	movwf	(??___xxtofl+0)+0
  9850  1E0F  00F4               u5015:
  9851  1E10                     	clrc
  9852  1E10  1003               	rlf	(___xxtofl@arg),f
  9853  1E11  0DFA               	rlf	(___xxtofl@arg+1),f
  9854  1E12  0DFB               	rlf	(___xxtofl@arg+2),f
  9855  1E13  0DFC               	rlf	(___xxtofl@arg+3),f
  9856  1E14  0DFD               	decfsz	(??___xxtofl+0)+0
  9857  1E15  0BF4               	goto	u5015
  9858  1E16  2E10               	goto	l2955
  9859  1E17  2E18               	line	36
  9860                           	
  9861                           l717:	
  9862  1E18                     	line	33
  9863                           	
  9864                           l2955:	
  9865  1E18                     	btfsc	(___xxtofl@arg+2),(23)&7
  9866  1E18  1BFC               	goto	u5021
  9867  1E19  2E1B               	goto	u5020
  9868  1E1A  2E1C               u5021:
  9869  1E1B                     	goto	l721
  9870  1E1B  2E23               u5020:
  9871  1E1C                     	
  9872                           l2957:	
  9873  1E1C                     	movlw	low(02h)
  9874  1E1C  3002               	subwf	(___xxtofl@exp),w
  9875  1E1D  0279               	skipnc
  9876  1E1E  1803               	goto	u5031
  9877  1E1F  2E21               	goto	u5030
  9878  1E20  2E22               u5031:
  9879  1E21                     	goto	l2953
  9880  1E21  2E0C               u5030:
  9881  1E22                     	goto	l721
  9882  1E22  2E23               	
  9883                           l720:	
  9884  1E23                     	
  9885                           l721:	
  9886  1E23                     	line	37
  9887                           	btfsc	(___xxtofl@exp),(0)&7
  9888  1E23  1879               	goto	u5041
  9889  1E24  2E26               	goto	u5040
  9890  1E25  2E27               u5041:
  9891  1E26                     	goto	l722
  9892  1E26  2E2F               u5040:
  9893  1E27                     	line	38
  9894                           	
  9895                           l2959:	
  9896  1E27                     	movlw	0FFh
  9897  1E27  30FF               	andwf	(___xxtofl@arg),f
  9898  1E28  05FA               	movlw	0FFh
  9899  1E29  30FF               	andwf	(___xxtofl@arg+1),f
  9900  1E2A  05FB               	movlw	07Fh
  9901  1E2B  307F               	andwf	(___xxtofl@arg+2),f
  9902  1E2C  05FC               	movlw	0FFh
  9903  1E2D  30FF               	andwf	(___xxtofl@arg+3),f
  9904  1E2E  05FD               	
  9905                           l722:	
  9906  1E2F                     	line	39
  9907                           	clrc
  9908  1E2F  1003               	rrf	(___xxtofl@exp),f
  9909  1E30  0CF9               
  9910                           	line	40
  9911                           	
  9912                           l2961:	
  9913  1E31                     	movf	(___xxtofl@exp),w
  9914  1E31  0879               	movwf	(??___xxtofl+0)+0
  9915  1E32  00F4               	clrf	(??___xxtofl+0)+0+1
  9916  1E33  01F5               	clrf	(??___xxtofl+0)+0+2
  9917  1E34  01F6               	clrf	(??___xxtofl+0)+0+3
  9918  1E35  01F7               	movlw	018h
  9919  1E36  3018               u5055:
  9920  1E37                     	clrc
  9921  1E37  1003               	rlf	(??___xxtofl+0)+0,f
  9922  1E38  0DF4               	rlf	(??___xxtofl+0)+1,f
  9923  1E39  0DF5               	rlf	(??___xxtofl+0)+2,f
  9924  1E3A  0DF6               	rlf	(??___xxtofl+0)+3,f
  9925  1E3B  0DF7               u5050:
  9926  1E3C                     	addlw	-1
  9927  1E3C  3EFF               	skipz
  9928  1E3D  1D03               	goto	u5055
  9929  1E3E  2E37               	movf	0+(??___xxtofl+0)+0,w
  9930  1E3F  0874               	iorwf	(___xxtofl@arg),f
  9931  1E40  04FA               	movf	1+(??___xxtofl+0)+0,w
  9932  1E41  0875               	iorwf	(___xxtofl@arg+1),f
  9933  1E42  04FB               	movf	2+(??___xxtofl+0)+0,w
  9934  1E43  0876               	iorwf	(___xxtofl@arg+2),f
  9935  1E44  04FC               	movf	3+(??___xxtofl+0)+0,w
  9936  1E45  0877               	iorwf	(___xxtofl@arg+3),f
  9937  1E46  04FD               	line	41
  9938                           	
  9939                           l2963:	
  9940  1E47                     	movf	((___xxtofl@sign)),w
  9941  1E47  0878               	btfsc	status,2
  9942  1E48  1903               	goto	u5061
  9943  1E49  2E4B               	goto	u5060
  9944  1E4A  2E4C               u5061:
  9945  1E4B                     	goto	l2969
  9946  1E4B  2E52               u5060:
  9947  1E4C                     	
  9948                           l2965:	
  9949  1E4C                     	btfss	(___xxtofl@val+3),7
  9950  1E4C  1FF3               	goto	u5071
  9951  1E4D  2E4F               	goto	u5070
  9952  1E4E  2E50               u5071:
  9953  1E4F                     	goto	l2969
  9954  1E4F  2E52               u5070:
  9955  1E50                     	line	42
  9956                           	
  9957                           l2967:	
  9958  1E50                     	bsf	(___xxtofl@arg)+(31/8),(31)&7
  9959  1E50  17FD               	goto	l2969
  9960  1E51  2E52               	
  9961                           l723:	
  9962  1E52                     	line	43
  9963                           	
  9964                           l2969:	
  9965  1E52                     	movf	(___xxtofl@arg+3),w
  9966  1E52  087D               	movwf	(?___xxtofl+3)
  9967  1E53  00F3               	movf	(___xxtofl@arg+2),w
  9968  1E54  087C               	movwf	(?___xxtofl+2)
  9969  1E55  00F2               	movf	(___xxtofl@arg+1),w
  9970  1E56  087B               	movwf	(?___xxtofl+1)
  9971  1E57  00F1               	movf	(___xxtofl@arg),w
  9972  1E58  087A               	movwf	(?___xxtofl)
  9973  1E59  00F0               
  9974                           	goto	l710
  9975  1E5A  2E5B               	
  9976                           l2971:	
  9977  1E5B                     	line	44
  9978                           	
  9979                           l710:	
  9980  1E5B                     	return
  9981  1E5B  0008               	opt stack 0
  9982                           GLOBAL	__end_of___xxtofl
  9983                           	__end_of___xxtofl:
  9984  1E5C                     	signat	___xxtofl,8316
  9985                           	global	___wmul
  9986                           
  9987 ;; *************** function ___wmul *****************
  9988 ;; Defined at:
  9989 ;;		line 15 in file "/opt/microchip/xc8/v2.00/pic/sources/c90/common/Umul16.c"
  9990 ;; Parameters:    Size  Location     Type
  9991 ;;  multiplier      2    0[COMMON] unsigned int 
  9992 ;;  multiplicand    2    2[COMMON] unsigned int 
  9993 ;; Auto vars:     Size  Location     Type
  9994 ;;  product         2    4[COMMON] unsigned int 
  9995 ;; Return value:  Size  Location     Type
  9996 ;;                  2    0[COMMON] unsigned int 
  9997 ;; Registers used:
  9998 ;;		wreg, status,2, status,0
  9999 ;; Tracked objects:
 10000 ;;		On entry : 0/0
 10001 ;;		On exit  : 0/0
 10002 ;;		Unchanged: 0/0
 10003 ;; Data sizes:     COMMON   BANK0   BANK1   BANK3   BANK2
 10004 ;;      Params:         4       0       0       0       0
 10005 ;;      Locals:         2       0       0       0       0
 10006 ;;      Temps:          0       0       0       0       0
 10007 ;;      Totals:         6       0       0       0       0
 10008 ;;Total ram usage:        6 bytes
 10009 ;; Hardware stack levels used:    1
 10010 ;; This function calls:
 10011 ;;		Nothing
 10012 ;; This function is called by:
 10013 ;;		_printf
 10014 ;; This function uses a non-reentrant model
 10015 ;;
 10016                           psect	text15,local,class=CODE,delta=2,merge=1,group=1
 10017                           	file	"/opt/microchip/xc8/v2.00/pic/sources/c90/common/Umul16.c"
 10018                           	line	15
 10019                           global __ptext15
 10020                           __ptext15:	;psect for function ___wmul
 10021  1A77                     psect	text15
 10022                           	file	"/opt/microchip/xc8/v2.00/pic/sources/c90/common/Umul16.c"
 10023                           	line	15
 10024                           	global	__size_of___wmul
 10025                           	__size_of___wmul	equ	__end_of___wmul-___wmul
 10026  0028                     	
 10027                           ___wmul:	
 10028  1A77                     ;incstack = 0
 10029                           	opt	stack 6
 10030                           ; Regs used in ___wmul: [wreg+status,2+status,0]
 10031                           	line	43
 10032                           	
 10033                           l2783:	
 10034  1A77                     	clrf	(___wmul@product)
 10035  1A77  01F4               	clrf	(___wmul@product+1)
 10036  1A78  01F5               	goto	l2785
 10037  1A79  2A7A               	line	44
 10038                           	
 10039                           l265:	
 10040  1A7A                     	line	45
 10041                           	
 10042                           l2785:	
 10043  1A7A                     	btfss	(___wmul@multiplier),(0)&7
 10044  1A7A  1C70               	goto	u4561
 10045  1A7B  2A7D               	goto	u4560
 10046  1A7C  2A7E               u4561:
 10047  1A7D                     	goto	l266
 10048  1A7D  2A84               u4560:
 10049  1A7E                     	line	46
 10050                           	
 10051                           l2787:	
 10052  1A7E                     	movf	(___wmul@multiplicand),w
 10053  1A7E  0872               	addwf	(___wmul@product),f
 10054  1A7F  07F4               	skipnc
 10055  1A80  1803               	incf	(___wmul@product+1),f
 10056  1A81  0AF5               	movf	(___wmul@multiplicand+1),w
 10057  1A82  0873               	addwf	(___wmul@product+1),f
 10058  1A83  07F5               	
 10059                           l266:	
 10060  1A84                     	line	47
 10061                           	movlw	01h
 10062  1A84  3001               	
 10063                           u4575:
 10064  1A85                     	clrc
 10065  1A85  1003               	rlf	(___wmul@multiplicand),f
 10066  1A86  0DF2               	rlf	(___wmul@multiplicand+1),f
 10067  1A87  0DF3               	addlw	-1
 10068  1A88  3EFF               	skipz
 10069  1A89  1D03               	goto	u4575
 10070  1A8A  2A85               	line	48
 10071                           	
 10072                           l2789:	
 10073  1A8B                     	movlw	01h
 10074  1A8B  3001               	
 10075                           u4585:
 10076  1A8C                     	clrc
 10077  1A8C  1003               	rrf	(___wmul@multiplier+1),f
 10078  1A8D  0CF1               	rrf	(___wmul@multiplier),f
 10079  1A8E  0CF0               	addlw	-1
 10080  1A8F  3EFF               	skipz
 10081  1A90  1D03               	goto	u4585
 10082  1A91  2A8C               	line	49
 10083                           	
 10084                           l2791:	
 10085  1A92                     	movf	((___wmul@multiplier)),w
 10086  1A92  0870               iorwf	((___wmul@multiplier+1)),w
 10087  1A93  0471               	btfss	status,2
 10088  1A94  1D03               	goto	u4591
 10089  1A95  2A97               	goto	u4590
 10090  1A96  2A98               u4591:
 10091  1A97                     	goto	l2785
 10092  1A97  2A7A               u4590:
 10093  1A98                     	goto	l2793
 10094  1A98  2A99               	
 10095                           l267:	
 10096  1A99                     	line	52
 10097                           	
 10098                           l2793:	
 10099  1A99                     	movf	(___wmul@product+1),w
 10100  1A99  0875               	movwf	(?___wmul+1)
 10101  1A9A  00F1               	movf	(___wmul@product),w
 10102  1A9B  0874               	movwf	(?___wmul)
 10103  1A9C  00F0               	goto	l268
 10104  1A9D  2A9E               	
 10105                           l2795:	
 10106  1A9E                     	line	53
 10107                           	
 10108                           l268:	
 10109  1A9E                     	return
 10110  1A9E  0008               	opt stack 0
 10111                           GLOBAL	__end_of___wmul
 10112                           	__end_of___wmul:
 10113  1A9F                     	signat	___wmul,8314
 10114                           	global	___llmod
 10115                           
 10116 ;; *************** function ___llmod *****************
 10117 ;; Defined at:
 10118 ;;		line 5 in file "/opt/microchip/xc8/v2.00/pic/sources/c90/common/llmod.c"
 10119 ;; Parameters:    Size  Location     Type
 10120 ;;  divisor         4    0[COMMON] unsigned long 
 10121 ;;  dividend        4    4[COMMON] unsigned long 
 10122 ;; Auto vars:     Size  Location     Type
 10123 ;;  counter         1    9[COMMON] unsigned char 
 10124 ;; Return value:  Size  Location     Type
 10125 ;;                  4    0[COMMON] unsigned long 
 10126 ;; Registers used:
 10127 ;;		wreg, status,2, status,0
 10128 ;; Tracked objects:
 10129 ;;		On entry : 0/0
 10130 ;;		On exit  : 0/0
 10131 ;;		Unchanged: 0/0
 10132 ;; Data sizes:     COMMON   BANK0   BANK1   BANK3   BANK2
 10133 ;;      Params:         8       0       0       0       0
 10134 ;;      Locals:         1       0       0       0       0
 10135 ;;      Temps:          1       0       0       0       0
 10136 ;;      Totals:        10       0       0       0       0
 10137 ;;Total ram usage:       10 bytes
 10138 ;; Hardware stack levels used:    1
 10139 ;; This function calls:
 10140 ;;		Nothing
 10141 ;; This function is called by:
 10142 ;;		_printf
 10143 ;; This function uses a non-reentrant model
 10144 ;;
 10145                           psect	text16,local,class=CODE,delta=2,merge=1,group=1
 10146                           	file	"/opt/microchip/xc8/v2.00/pic/sources/c90/common/llmod.c"
 10147                           	line	5
 10148                           global __ptext16
 10149                           __ptext16:	;psect for function ___llmod
 10150  1C6F                     psect	text16
 10151                           	file	"/opt/microchip/xc8/v2.00/pic/sources/c90/common/llmod.c"
 10152                           	line	5
 10153                           	global	__size_of___llmod
 10154                           	__size_of___llmod	equ	__end_of___llmod-___llmod
 10155  005B                     	
 10156                           ___llmod:	
 10157  1C6F                     ;incstack = 0
 10158                           	opt	stack 6
 10159                           ; Regs used in ___llmod: [wreg+status,2+status,0]
 10160                           	line	12
 10161                           	
 10162                           l2903:	
 10163  1C6F                     	movf	(___llmod@divisor+3),w
 10164  1C6F  0873               	iorwf	(___llmod@divisor+2),w
 10165  1C70  0472               	iorwf	(___llmod@divisor+1),w
 10166  1C71  0471               	iorwf	(___llmod@divisor),w
 10167  1C72  0470               	skipnz
 10168  1C73  1903               	goto	u4881
 10169  1C74  2C76               	goto	u4880
 10170  1C75  2C77               u4881:
 10171  1C76                     	goto	l2919
 10172  1C76  2CC0               u4880:
 10173  1C77                     	line	13
 10174                           	
 10175                           l2905:	
 10176  1C77                     	clrf	(___llmod@counter)
 10177  1C77  01F9               	incf	(___llmod@counter),f
 10178  1C78  0AF9               	line	14
 10179                           	goto	l2909
 10180  1C79  2C88               	
 10181                           l517:	
 10182  1C7A                     	line	15
 10183                           	
 10184                           l2907:	
 10185  1C7A                     	movlw	01h
 10186  1C7A  3001               	movwf	(??___llmod+0)+0
 10187  1C7B  00F8               u4895:
 10188  1C7C                     	clrc
 10189  1C7C  1003               	rlf	(___llmod@divisor),f
 10190  1C7D  0DF0               	rlf	(___llmod@divisor+1),f
 10191  1C7E  0DF1               	rlf	(___llmod@divisor+2),f
 10192  1C7F  0DF2               	rlf	(___llmod@divisor+3),f
 10193  1C80  0DF3               	decfsz	(??___llmod+0)+0
 10194  1C81  0BF8               	goto	u4895
 10195  1C82  2C7C               	line	16
 10196                           	movlw	low(01h)
 10197  1C83  3001               	movwf	(??___llmod+0)+0
 10198  1C84  00F8               	movf	(??___llmod+0)+0,w
 10199  1C85  0878               	addwf	(___llmod@counter),f
 10200  1C86  07F9               	goto	l2909
 10201  1C87  2C88               	line	17
 10202                           	
 10203                           l516:	
 10204  1C88                     	line	14
 10205                           	
 10206                           l2909:	
 10207  1C88                     	btfss	(___llmod@divisor+3),(31)&7
 10208  1C88  1FF3               	goto	u4901
 10209  1C89  2C8B               	goto	u4900
 10210  1C8A  2C8C               u4901:
 10211  1C8B                     	goto	l2907
 10212  1C8B  2C7A               u4900:
 10213  1C8C                     	goto	l2911
 10214  1C8C  2C8E               	
 10215                           l518:	
 10216  1C8D                     	goto	l2911
 10217  1C8D  2C8E               	line	18
 10218                           	
 10219                           l519:	
 10220  1C8E                     	line	19
 10221                           	
 10222                           l2911:	
 10223  1C8E                     	movf	(___llmod@divisor+3),w
 10224  1C8E  0873               	subwf	(___llmod@dividend+3),w
 10225  1C8F  0277               	skipz
 10226  1C90  1D03               	goto	u4915
 10227  1C91  2C9C               	movf	(___llmod@divisor+2),w
 10228  1C92  0872               	subwf	(___llmod@dividend+2),w
 10229  1C93  0276               	skipz
 10230  1C94  1D03               	goto	u4915
 10231  1C95  2C9C               	movf	(___llmod@divisor+1),w
 10232  1C96  0871               	subwf	(___llmod@dividend+1),w
 10233  1C97  0275               	skipz
 10234  1C98  1D03               	goto	u4915
 10235  1C99  2C9C               	movf	(___llmod@divisor),w
 10236  1C9A  0870               	subwf	(___llmod@dividend),w
 10237  1C9B  0274               u4915:
 10238  1C9C                     	skipc
 10239  1C9C  1C03               	goto	u4911
 10240  1C9D  2C9F               	goto	u4910
 10241  1C9E  2CA0               u4911:
 10242  1C9F                     	goto	l2915
 10243  1C9F  2CAF               u4910:
 10244  1CA0                     	line	20
 10245                           	
 10246                           l2913:	
 10247  1CA0                     	movf	(___llmod@divisor),w
 10248  1CA0  0870               	subwf	(___llmod@dividend),f
 10249  1CA1  02F4               	movf	(___llmod@divisor+1),w
 10250  1CA2  0871               	skipc
 10251  1CA3  1C03               	incfsz	(___llmod@divisor+1),w
 10252  1CA4  0F71               	subwf	(___llmod@dividend+1),f
 10253  1CA5  02F5               	movf	(___llmod@divisor+2),w
 10254  1CA6  0872               	skipc
 10255  1CA7  1C03               	incfsz	(___llmod@divisor+2),w
 10256  1CA8  0F72               	subwf	(___llmod@dividend+2),f
 10257  1CA9  02F6               	movf	(___llmod@divisor+3),w
 10258  1CAA  0873               	skipc
 10259  1CAB  1C03               	incfsz	(___llmod@divisor+3),w
 10260  1CAC  0F73               	subwf	(___llmod@dividend+3),f
 10261  1CAD  02F7               	goto	l2915
 10262  1CAE  2CAF               	
 10263                           l520:	
 10264  1CAF                     	line	21
 10265                           	
 10266                           l2915:	
 10267  1CAF                     	movlw	01h
 10268  1CAF  3001               u4925:
 10269  1CB0                     	clrc
 10270  1CB0  1003               	rrf	(___llmod@divisor+3),f
 10271  1CB1  0CF3               	rrf	(___llmod@divisor+2),f
 10272  1CB2  0CF2               	rrf	(___llmod@divisor+1),f
 10273  1CB3  0CF1               	rrf	(___llmod@divisor),f
 10274  1CB4  0CF0               	addlw	-1
 10275  1CB5  3EFF               	skipz
 10276  1CB6  1D03               	goto	u4925
 10277  1CB7  2CB0               
 10278                           	line	22
 10279                           	
 10280                           l2917:	
 10281  1CB8                     	movlw	01h
 10282  1CB8  3001               	subwf	(___llmod@counter),f
 10283  1CB9  02F9               	btfss	status,2
 10284  1CBA  1D03               	goto	u4931
 10285  1CBB  2CBD               	goto	u4930
 10286  1CBC  2CBE               u4931:
 10287  1CBD                     	goto	l2911
 10288  1CBD  2C8E               u4930:
 10289  1CBE                     	goto	l2919
 10290  1CBE  2CC0               	
 10291                           l521:	
 10292  1CBF                     	goto	l2919
 10293  1CBF  2CC0               	line	23
 10294                           	
 10295                           l515:	
 10296  1CC0                     	line	24
 10297                           	
 10298                           l2919:	
 10299  1CC0                     	movf	(___llmod@dividend+3),w
 10300  1CC0  0877               	movwf	(?___llmod+3)
 10301  1CC1  00F3               	movf	(___llmod@dividend+2),w
 10302  1CC2  0876               	movwf	(?___llmod+2)
 10303  1CC3  00F2               	movf	(___llmod@dividend+1),w
 10304  1CC4  0875               	movwf	(?___llmod+1)
 10305  1CC5  00F1               	movf	(___llmod@dividend),w
 10306  1CC6  0874               	movwf	(?___llmod)
 10307  1CC7  00F0               
 10308                           	goto	l522
 10309  1CC8  2CC9               	
 10310                           l2921:	
 10311  1CC9                     	line	25
 10312                           	
 10313                           l522:	
 10314  1CC9                     	return
 10315  1CC9  0008               	opt stack 0
 10316                           GLOBAL	__end_of___llmod
 10317                           	__end_of___llmod:
 10318  1CCA                     	signat	___llmod,8316
 10319                           	global	___lldiv
 10320                           
 10321 ;; *************** function ___lldiv *****************
 10322 ;; Defined at:
 10323 ;;		line 5 in file "/opt/microchip/xc8/v2.00/pic/sources/c90/common/__lldiv.c"
 10324 ;; Parameters:    Size  Location     Type
 10325 ;;  divisor         4    0[COMMON] unsigned long 
 10326 ;;  dividend        4    4[COMMON] unsigned long 
 10327 ;; Auto vars:     Size  Location     Type
 10328 ;;  quotient        4    9[COMMON] unsigned long 
 10329 ;;  counter         1   13[COMMON] unsigned char 
 10330 ;; Return value:  Size  Location     Type
 10331 ;;                  4    0[COMMON] unsigned long 
 10332 ;; Registers used:
 10333 ;;		wreg, status,2, status,0
 10334 ;; Tracked objects:
 10335 ;;		On entry : 0/0
 10336 ;;		On exit  : 0/0
 10337 ;;		Unchanged: 0/0
 10338 ;; Data sizes:     COMMON   BANK0   BANK1   BANK3   BANK2
 10339 ;;      Params:         8       0       0       0       0
 10340 ;;      Locals:         5       0       0       0       0
 10341 ;;      Temps:          1       0       0       0       0
 10342 ;;      Totals:        14       0       0       0       0
 10343 ;;Total ram usage:       14 bytes
 10344 ;; Hardware stack levels used:    1
 10345 ;; This function calls:
 10346 ;;		Nothing
 10347 ;; This function is called by:
 10348 ;;		_printf
 10349 ;; This function uses a non-reentrant model
 10350 ;;
 10351                           psect	text17,local,class=CODE,delta=2,merge=1,group=1
 10352                           	file	"/opt/microchip/xc8/v2.00/pic/sources/c90/common/__lldiv.c"
 10353                           	line	5
 10354                           global __ptext17
 10355                           __ptext17:	;psect for function ___lldiv
 10356  1D2D                     psect	text17
 10357                           	file	"/opt/microchip/xc8/v2.00/pic/sources/c90/common/__lldiv.c"
 10358                           	line	5
 10359                           	global	__size_of___lldiv
 10360                           	__size_of___lldiv	equ	__end_of___lldiv-___lldiv
 10361  006D                     	
 10362                           ___lldiv:	
 10363  1D2D                     ;incstack = 0
 10364                           	opt	stack 6
 10365                           ; Regs used in ___lldiv: [wreg+status,2+status,0]
 10366                           	line	13
 10367                           	
 10368                           l2797:	
 10369  1D2D                     	movlw	high highword(0)
 10370  1D2D  3000               	movwf	(___lldiv@quotient+3)
 10371  1D2E  00FC               	movlw	low highword(0)
 10372  1D2F  3000               	movwf	(___lldiv@quotient+2)
 10373  1D30  00FB               	movlw	high(0)
 10374  1D31  3000               	movwf	(___lldiv@quotient+1)
 10375  1D32  00FA               	movlw	low(0)
 10376  1D33  3000               	movwf	(___lldiv@quotient)
 10377  1D34  00F9               
 10378                           	line	14
 10379                           	movf	(___lldiv@divisor+3),w
 10380  1D35  0873               	iorwf	(___lldiv@divisor+2),w
 10381  1D36  0472               	iorwf	(___lldiv@divisor+1),w
 10382  1D37  0471               	iorwf	(___lldiv@divisor),w
 10383  1D38  0470               	skipnz
 10384  1D39  1903               	goto	u4601
 10385  1D3A  2D3C               	goto	u4600
 10386  1D3B  2D3D               u4601:
 10387  1D3C                     	goto	l2817
 10388  1D3C  2D90               u4600:
 10389  1D3D                     	line	15
 10390                           	
 10391                           l2799:	
 10392  1D3D                     	clrf	(___lldiv@counter)
 10393  1D3D  01FD               	incf	(___lldiv@counter),f
 10394  1D3E  0AFD               	line	16
 10395                           	goto	l2803
 10396  1D3F  2D4E               	
 10397                           l297:	
 10398  1D40                     	line	17
 10399                           	
 10400                           l2801:	
 10401  1D40                     	movlw	01h
 10402  1D40  3001               	movwf	(??___lldiv+0)+0
 10403  1D41  00F8               u4615:
 10404  1D42                     	clrc
 10405  1D42  1003               	rlf	(___lldiv@divisor),f
 10406  1D43  0DF0               	rlf	(___lldiv@divisor+1),f
 10407  1D44  0DF1               	rlf	(___lldiv@divisor+2),f
 10408  1D45  0DF2               	rlf	(___lldiv@divisor+3),f
 10409  1D46  0DF3               	decfsz	(??___lldiv+0)+0
 10410  1D47  0BF8               	goto	u4615
 10411  1D48  2D42               	line	18
 10412                           	movlw	low(01h)
 10413  1D49  3001               	movwf	(??___lldiv+0)+0
 10414  1D4A  00F8               	movf	(??___lldiv+0)+0,w
 10415  1D4B  0878               	addwf	(___lldiv@counter),f
 10416  1D4C  07FD               	goto	l2803
 10417  1D4D  2D4E               	line	19
 10418                           	
 10419                           l296:	
 10420  1D4E                     	line	16
 10421                           	
 10422                           l2803:	
 10423  1D4E                     	btfss	(___lldiv@divisor+3),(31)&7
 10424  1D4E  1FF3               	goto	u4621
 10425  1D4F  2D51               	goto	u4620
 10426  1D50  2D52               u4621:
 10427  1D51                     	goto	l2801
 10428  1D51  2D40               u4620:
 10429  1D52                     	goto	l2805
 10430  1D52  2D54               	
 10431                           l298:	
 10432  1D53                     	goto	l2805
 10433  1D53  2D54               	line	20
 10434                           	
 10435                           l299:	
 10436  1D54                     	line	21
 10437                           	
 10438                           l2805:	
 10439  1D54                     	movlw	01h
 10440  1D54  3001               	movwf	(??___lldiv+0)+0
 10441  1D55  00F8               u4635:
 10442  1D56                     	clrc
 10443  1D56  1003               	rlf	(___lldiv@quotient),f
 10444  1D57  0DF9               	rlf	(___lldiv@quotient+1),f
 10445  1D58  0DFA               	rlf	(___lldiv@quotient+2),f
 10446  1D59  0DFB               	rlf	(___lldiv@quotient+3),f
 10447  1D5A  0DFC               	decfsz	(??___lldiv+0)+0
 10448  1D5B  0BF8               	goto	u4635
 10449  1D5C  2D56               	line	22
 10450                           	
 10451                           l2807:	
 10452  1D5D                     	movf	(___lldiv@divisor+3),w
 10453  1D5D  0873               	subwf	(___lldiv@dividend+3),w
 10454  1D5E  0277               	skipz
 10455  1D5F  1D03               	goto	u4645
 10456  1D60  2D6B               	movf	(___lldiv@divisor+2),w
 10457  1D61  0872               	subwf	(___lldiv@dividend+2),w
 10458  1D62  0276               	skipz
 10459  1D63  1D03               	goto	u4645
 10460  1D64  2D6B               	movf	(___lldiv@divisor+1),w
 10461  1D65  0871               	subwf	(___lldiv@dividend+1),w
 10462  1D66  0275               	skipz
 10463  1D67  1D03               	goto	u4645
 10464  1D68  2D6B               	movf	(___lldiv@divisor),w
 10465  1D69  0870               	subwf	(___lldiv@dividend),w
 10466  1D6A  0274               u4645:
 10467  1D6B                     	skipc
 10468  1D6B  1C03               	goto	u4641
 10469  1D6C  2D6E               	goto	u4640
 10470  1D6D  2D6F               u4641:
 10471  1D6E                     	goto	l2813
 10472  1D6E  2D7F               u4640:
 10473  1D6F                     	line	23
 10474                           	
 10475                           l2809:	
 10476  1D6F                     	movf	(___lldiv@divisor),w
 10477  1D6F  0870               	subwf	(___lldiv@dividend),f
 10478  1D70  02F4               	movf	(___lldiv@divisor+1),w
 10479  1D71  0871               	skipc
 10480  1D72  1C03               	incfsz	(___lldiv@divisor+1),w
 10481  1D73  0F71               	subwf	(___lldiv@dividend+1),f
 10482  1D74  02F5               	movf	(___lldiv@divisor+2),w
 10483  1D75  0872               	skipc
 10484  1D76  1C03               	incfsz	(___lldiv@divisor+2),w
 10485  1D77  0F72               	subwf	(___lldiv@dividend+2),f
 10486  1D78  02F6               	movf	(___lldiv@divisor+3),w
 10487  1D79  0873               	skipc
 10488  1D7A  1C03               	incfsz	(___lldiv@divisor+3),w
 10489  1D7B  0F73               	subwf	(___lldiv@dividend+3),f
 10490  1D7C  02F7               	line	24
 10491                           	
 10492                           l2811:	
 10493  1D7D                     	bsf	(___lldiv@quotient)+(0/8),(0)&7
 10494  1D7D  1479               	goto	l2813
 10495  1D7E  2D7F               	line	25
 10496                           	
 10497                           l300:	
 10498  1D7F                     	line	26
 10499                           	
 10500                           l2813:	
 10501  1D7F                     	movlw	01h
 10502  1D7F  3001               u4655:
 10503  1D80                     	clrc
 10504  1D80  1003               	rrf	(___lldiv@divisor+3),f
 10505  1D81  0CF3               	rrf	(___lldiv@divisor+2),f
 10506  1D82  0CF2               	rrf	(___lldiv@divisor+1),f
 10507  1D83  0CF1               	rrf	(___lldiv@divisor),f
 10508  1D84  0CF0               	addlw	-1
 10509  1D85  3EFF               	skipz
 10510  1D86  1D03               	goto	u4655
 10511  1D87  2D80               
 10512                           	line	27
 10513                           	
 10514                           l2815:	
 10515  1D88                     	movlw	01h
 10516  1D88  3001               	subwf	(___lldiv@counter),f
 10517  1D89  02FD               	btfss	status,2
 10518  1D8A  1D03               	goto	u4661
 10519  1D8B  2D8D               	goto	u4660
 10520  1D8C  2D8E               u4661:
 10521  1D8D                     	goto	l2805
 10522  1D8D  2D54               u4660:
 10523  1D8E                     	goto	l2817
 10524  1D8E  2D90               	
 10525                           l301:	
 10526  1D8F                     	goto	l2817
 10527  1D8F  2D90               	line	28
 10528                           	
 10529                           l295:	
 10530  1D90                     	line	29
 10531                           	
 10532                           l2817:	
 10533  1D90                     	movf	(___lldiv@quotient+3),w
 10534  1D90  087C               	movwf	(?___lldiv+3)
 10535  1D91  00F3               	movf	(___lldiv@quotient+2),w
 10536  1D92  087B               	movwf	(?___lldiv+2)
 10537  1D93  00F2               	movf	(___lldiv@quotient+1),w
 10538  1D94  087A               	movwf	(?___lldiv+1)
 10539  1D95  00F1               	movf	(___lldiv@quotient),w
 10540  1D96  0879               	movwf	(?___lldiv)
 10541  1D97  00F0               
 10542                           	goto	l302
 10543  1D98  2D99               	
 10544                           l2819:	
 10545  1D99                     	line	30
 10546                           	
 10547                           l302:	
 10548  1D99                     	return
 10549  1D99  0008               	opt stack 0
 10550                           GLOBAL	__end_of___lldiv
 10551                           	__end_of___lldiv:
 10552  1D9A                     	signat	___lldiv,8316
 10553                           	global	___fltol
 10554                           
 10555 ;; *************** function ___fltol *****************
 10556 ;; Defined at:
 10557 ;;		line 43 in file "/opt/microchip/xc8/v2.00/pic/sources/c90/common/fltol.c"
 10558 ;; Parameters:    Size  Location     Type
 10559 ;;  f1              4   49[BANK0 ] unsigned long 
 10560 ;; Auto vars:     Size  Location     Type
 10561 ;;  exp1            1   59[BANK0 ] unsigned char 
 10562 ;;  sign1           1   58[BANK0 ] unsigned char 
 10563 ;; Return value:  Size  Location     Type
 10564 ;;                  4   49[BANK0 ] long 
 10565 ;; Registers used:
 10566 ;;		wreg, status,2, status,0
 10567 ;; Tracked objects:
 10568 ;;		On entry : 0/0
 10569 ;;		On exit  : 0/0
 10570 ;;		Unchanged: 0/0
 10571 ;; Data sizes:     COMMON   BANK0   BANK1   BANK3   BANK2
 10572 ;;      Params:         0       4       0       0       0
 10573 ;;      Locals:         0       2       0       0       0
 10574 ;;      Temps:          0       5       0       0       0
 10575 ;;      Totals:         0      11       0       0       0
 10576 ;;Total ram usage:       11 bytes
 10577 ;; Hardware stack levels used:    1
 10578 ;; This function calls:
 10579 ;;		Nothing
 10580 ;; This function is called by:
 10581 ;;		_printf
 10582 ;; This function uses a non-reentrant model
 10583 ;;
 10584                           psect	text18,local,class=CODE,delta=2,merge=1,group=1
 10585                           	file	"/opt/microchip/xc8/v2.00/pic/sources/c90/common/fltol.c"
 10586                           	line	43
 10587                           global __ptext18
 10588                           __ptext18:	;psect for function ___fltol
 10589  0010                     psect	text18
 10590                           	file	"/opt/microchip/xc8/v2.00/pic/sources/c90/common/fltol.c"
 10591                           	line	43
 10592                           	global	__size_of___fltol
 10593                           	__size_of___fltol	equ	__end_of___fltol-___fltol
 10594  009C                     	
 10595                           ___fltol:	
 10596  0010                     ;incstack = 0
 10597                           	opt	stack 6
 10598                           ; Regs used in ___fltol: [wreg+status,2+status,0]
 10599                           	line	47
 10600                           	
 10601                           l2867:	
 10602  0010                     	bcf	status, 5	;RP0=0, select bank0
 10603  0010  1283               	bcf	status, 6	;RP1=0, select bank0
 10604  0011  1303               	movf	(___fltol@f1),w
 10605  0012  0851               	movwf	(??___fltol+0)+0
 10606  0013  00D5               	movf	(___fltol@f1+1),w
 10607  0014  0852               	movwf	((??___fltol+0)+0+1)
 10608  0015  00D6               	movf	(___fltol@f1+2),w
 10609  0016  0853               	movwf	((??___fltol+0)+0+2)
 10610  0017  00D7               	movf	(___fltol@f1+3),w
 10611  0018  0854               	movwf	((??___fltol+0)+0+3)
 10612  0019  00D8               	clrc
 10613  001A  1003               	rlf	(??___fltol+0)+2,w
 10614  001B  0D57               	rlf	(??___fltol+0)+3,w
 10615  001C  0D58               	movwf	(??___fltol+4)+0
 10616  001D  00D9               	movf	(??___fltol+4)+0,w
 10617  001E  0859               	movwf	(___fltol@exp1)
 10618  001F  00DB               	movf	(((___fltol@exp1))),w
 10619  0020  085B               	btfss	status,2
 10620  0021  1D03               	goto	u4781
 10621  0022  2824               	goto	u4780
 10622  0023  2825               u4781:
 10623  0024                     	goto	l2873
 10624  0024  282F               u4780:
 10625  0025                     	line	48
 10626                           	
 10627                           l2869:	
 10628  0025                     	movlw	high highword(0)
 10629  0025  3000               	movwf	(?___fltol+3)
 10630  0026  00D4               	movlw	low highword(0)
 10631  0027  3000               	movwf	(?___fltol+2)
 10632  0028  00D3               	movlw	high(0)
 10633  0029  3000               	movwf	(?___fltol+1)
 10634  002A  00D2               	movlw	low(0)
 10635  002B  3000               	movwf	(?___fltol)
 10636  002C  00D1               
 10637                           	goto	l469
 10638  002D  28AB               	
 10639                           l2871:	
 10640  002E                     	goto	l469
 10641  002E  28AB               	
 10642                           l468:	
 10643  002F                     	line	49
 10644                           	
 10645                           l2873:	
 10646  002F                     	movf	(___fltol@f1),w
 10647  002F  0851               	movwf	(??___fltol+0)+0
 10648  0030  00D5               	movf	(___fltol@f1+1),w
 10649  0031  0852               	movwf	((??___fltol+0)+0+1)
 10650  0032  00D6               	movf	(___fltol@f1+2),w
 10651  0033  0853               	movwf	((??___fltol+0)+0+2)
 10652  0034  00D7               	movf	(___fltol@f1+3),w
 10653  0035  0854               	movwf	((??___fltol+0)+0+3)
 10654  0036  00D8               	movlw	01Fh
 10655  0037  301F               u4795:
 10656  0038                     	clrc
 10657  0038  1003               	rrf	(??___fltol+0)+3,f
 10658  0039  0CD8               	rrf	(??___fltol+0)+2,f
 10659  003A  0CD7               	rrf	(??___fltol+0)+1,f
 10660  003B  0CD6               	rrf	(??___fltol+0)+0,f
 10661  003C  0CD5               u4790:
 10662  003D                     	addlw	-1
 10663  003D  3EFF               	skipz
 10664  003E  1D03               	goto	u4795
 10665  003F  2838               	movf	0+(??___fltol+0)+0,w
 10666  0040  0855               	movwf	(??___fltol+4)+0
 10667  0041  00D9               	movf	(??___fltol+4)+0,w
 10668  0042  0859               	movwf	(___fltol@sign1)
 10669  0043  00DA               	line	50
 10670                           	
 10671                           l2875:	
 10672  0044                     	bsf	(___fltol@f1)+(23/8),(23)&7
 10673  0044  17D3               	line	51
 10674                           	
 10675                           l2877:	
 10676  0045                     	movlw	0FFh
 10677  0045  30FF               	andwf	(___fltol@f1),f
 10678  0046  05D1               	movlw	0FFh
 10679  0047  30FF               	andwf	(___fltol@f1+1),f
 10680  0048  05D2               	movlw	0FFh
 10681  0049  30FF               	andwf	(___fltol@f1+2),f
 10682  004A  05D3               	movlw	0
 10683  004B  3000               	andwf	(___fltol@f1+3),f
 10684  004C  05D4               	line	52
 10685                           	
 10686                           l2879:	
 10687  004D                     	movlw	096h
 10688  004D  3096               	subwf	(___fltol@exp1),f
 10689  004E  02DB               	line	53
 10690                           	
 10691                           l2881:	
 10692  004F                     	btfss	(___fltol@exp1),7
 10693  004F  1FDB               	goto	u4801
 10694  0050  2852               	goto	u4800
 10695  0051  2853               u4801:
 10696  0052                     	goto	l2891
 10697  0052  2878               u4800:
 10698  0053                     	line	54
 10699                           	
 10700                           l2883:	
 10701  0053                     	movf	(___fltol@exp1),w
 10702  0053  085B               	xorlw	80h
 10703  0054  3A80               	addlw	-((-23)^80h)
 10704  0055  3E97               	skipnc
 10705  0056  1803               	goto	u4811
 10706  0057  2859               	goto	u4810
 10707  0058  285A               u4811:
 10708  0059                     	goto	l2889
 10709  0059  2865               u4810:
 10710  005A                     	line	55
 10711                           	
 10712                           l2885:	
 10713  005A                     	movlw	high highword(0)
 10714  005A  3000               	movwf	(?___fltol+3)
 10715  005B  00D4               	movlw	low highword(0)
 10716  005C  3000               	movwf	(?___fltol+2)
 10717  005D  00D3               	movlw	high(0)
 10718  005E  3000               	movwf	(?___fltol+1)
 10719  005F  00D2               	movlw	low(0)
 10720  0060  3000               	movwf	(?___fltol)
 10721  0061  00D1               
 10722                           	goto	l469
 10723  0062  28AB               	
 10724                           l2887:	
 10725  0063                     	goto	l469
 10726  0063  28AB               	
 10727                           l471:	
 10728  0064                     	goto	l2889
 10729  0064  2865               	line	56
 10730                           	
 10731                           l472:	
 10732  0065                     	line	57
 10733                           	
 10734                           l2889:	
 10735  0065                     	movlw	01h
 10736  0065  3001               u4825:
 10737  0066                     	clrc
 10738  0066  1003               	rrf	(___fltol@f1+3),f
 10739  0067  0CD4               	rrf	(___fltol@f1+2),f
 10740  0068  0CD3               	rrf	(___fltol@f1+1),f
 10741  0069  0CD2               	rrf	(___fltol@f1),f
 10742  006A  0CD1               	addlw	-1
 10743  006B  3EFF               	skipz
 10744  006C  1D03               	goto	u4825
 10745  006D  2866               
 10746                           	line	58
 10747                           	movlw	low(01h)
 10748  006E  3001               	movwf	(??___fltol+0)+0
 10749  006F  00D5               	movf	(??___fltol+0)+0,w
 10750  0070  0855               	addwf	(___fltol@exp1),f
 10751  0071  07DB               	btfss	status,2
 10752  0072  1D03               	goto	u4831
 10753  0073  2875               	goto	u4830
 10754  0074  2876               u4831:
 10755  0075                     	goto	l2889
 10756  0075  2865               u4830:
 10757  0076                     	goto	l2899
 10758  0076  289B               	
 10759                           l473:	
 10760  0077                     	line	59
 10761                           	goto	l2899
 10762  0077  289B               	
 10763                           l470:	
 10764  0078                     	line	60
 10765                           	
 10766                           l2891:	
 10767  0078                     	movlw	low(020h)
 10768  0078  3020               	subwf	(___fltol@exp1),w
 10769  0079  025B               	skipc
 10770  007A  1C03               	goto	u4841
 10771  007B  287D               	goto	u4840
 10772  007C  287E               u4841:
 10773  007D                     	goto	l476
 10774  007D  2894               u4840:
 10775  007E                     	line	61
 10776                           	
 10777                           l2893:	
 10778  007E                     	movlw	high highword(0)
 10779  007E  3000               	movwf	(?___fltol+3)
 10780  007F  00D4               	movlw	low highword(0)
 10781  0080  3000               	movwf	(?___fltol+2)
 10782  0081  00D3               	movlw	high(0)
 10783  0082  3000               	movwf	(?___fltol+1)
 10784  0083  00D2               	movlw	low(0)
 10785  0084  3000               	movwf	(?___fltol)
 10786  0085  00D1               
 10787                           	goto	l469
 10788  0086  28AB               	
 10789                           l2895:	
 10790  0087                     	goto	l469
 10791  0087  28AB               	
 10792                           l475:	
 10793  0088                     	line	62
 10794                           	goto	l476
 10795  0088  2894               	
 10796                           l477:	
 10797  0089                     	line	63
 10798                           	
 10799                           l2897:	
 10800  0089                     	movlw	01h
 10801  0089  3001               	movwf	(??___fltol+0)+0
 10802  008A  00D5               u4855:
 10803  008B                     	clrc
 10804  008B  1003               	rlf	(___fltol@f1),f
 10805  008C  0DD1               	rlf	(___fltol@f1+1),f
 10806  008D  0DD2               	rlf	(___fltol@f1+2),f
 10807  008E  0DD3               	rlf	(___fltol@f1+3),f
 10808  008F  0DD4               	decfsz	(??___fltol+0)+0
 10809  0090  0BD5               	goto	u4855
 10810  0091  288B               	line	64
 10811                           	movlw	01h
 10812  0092  3001               	subwf	(___fltol@exp1),f
 10813  0093  02DB               	line	65
 10814                           	
 10815                           l476:	
 10816  0094                     	line	62
 10817                           	movf	((___fltol@exp1)),w
 10818  0094  085B               	btfss	status,2
 10819  0095  1D03               	goto	u4861
 10820  0096  2898               	goto	u4860
 10821  0097  2899               u4861:
 10822  0098                     	goto	l2897
 10823  0098  2889               u4860:
 10824  0099                     	goto	l2899
 10825  0099  289B               	
 10826                           l478:	
 10827  009A                     	goto	l2899
 10828  009A  289B               	line	66
 10829                           	
 10830                           l474:	
 10831  009B                     	line	67
 10832                           	
 10833                           l2899:	
 10834  009B                     	movf	((___fltol@sign1)),w
 10835  009B  085A               	btfsc	status,2
 10836  009C  1903               	goto	u4871
 10837  009D  289F               	goto	u4870
 10838  009E  28A0               u4871:
 10839  009F                     	goto	l479
 10840  009F  28AB               u4870:
 10841  00A0                     	line	68
 10842                           	
 10843                           l2901:	
 10844  00A0                     	comf	(___fltol@f1),f
 10845  00A0  09D1               	comf	(___fltol@f1+1),f
 10846  00A1  09D2               	comf	(___fltol@f1+2),f
 10847  00A2  09D3               	comf	(___fltol@f1+3),f
 10848  00A3  09D4               	incf	(___fltol@f1),f
 10849  00A4  0AD1               	skipnz
 10850  00A5  1903               	incf	(___fltol@f1+1),f
 10851  00A6  0AD2               	skipnz
 10852  00A7  1903               	incf	(___fltol@f1+2),f
 10853  00A8  0AD3               	skipnz
 10854  00A9  1903               	incf	(___fltol@f1+3),f
 10855  00AA  0AD4               	
 10856                           l479:	
 10857  00AB                     	line	69
 10858                           	line	70
 10859                           	
 10860                           l469:	
 10861  00AB                     	return
 10862  00AB  0008               	opt stack 0
 10863                           GLOBAL	__end_of___fltol
 10864                           	__end_of___fltol:
 10865  00AC                     	signat	___fltol,4220
 10866                           	global	___flsub
 10867                           
 10868 ;; *************** function ___flsub *****************
 10869 ;; Defined at:
 10870 ;;		line 242 in file "/opt/microchip/xc8/v2.00/pic/sources/c90/common/sprcadd.c"
 10871 ;; Parameters:    Size  Location     Type
 10872 ;;  a               4    0[BANK1 ] long 
 10873 ;;  b               4    4[BANK1 ] long 
 10874 ;; Auto vars:     Size  Location     Type
 10875 ;;		None
 10876 ;; Return value:  Size  Location     Type
 10877 ;;                  4    0[BANK1 ] long 
 10878 ;; Registers used:
 10879 ;;		wreg, status,2, status,0, btemp+1, pclath, cstack
 10880 ;; Tracked objects:
 10881 ;;		On entry : 0/0
 10882 ;;		On exit  : 0/0
 10883 ;;		Unchanged: 0/0
 10884 ;; Data sizes:     COMMON   BANK0   BANK1   BANK3   BANK2
 10885 ;;      Params:         0       0       8       0       0
 10886 ;;      Locals:         0       0       0       0       0
 10887 ;;      Temps:          0       0       0       0       0
 10888 ;;      Totals:         0       0       8       0       0
 10889 ;;Total ram usage:        8 bytes
 10890 ;; Hardware stack levels used:    1
 10891 ;; Hardware stack levels required when called:    1
 10892 ;; This function calls:
 10893 ;;		___fladd
 10894 ;; This function is called by:
 10895 ;;		_printf
 10896 ;; This function uses a non-reentrant model
 10897 ;;
 10898                           psect	text19,local,class=CODE,delta=2,merge=1,group=1
 10899                           	file	"/opt/microchip/xc8/v2.00/pic/sources/c90/common/sprcadd.c"
 10900                           	line	242
 10901                           global __ptext19
 10902                           __ptext19:	;psect for function ___flsub
 10903  1C1E                     psect	text19
 10904                           	file	"/opt/microchip/xc8/v2.00/pic/sources/c90/common/sprcadd.c"
 10905                           	line	242
 10906                           	global	__size_of___flsub
 10907                           	__size_of___flsub	equ	__end_of___flsub-___flsub
 10908  0051                     	
 10909                           ___flsub:	
 10910  1C1E                     ;incstack = 0
 10911                           	opt	stack 5
 10912                           ; Regs used in ___flsub: [wreg+status,2+status,0+btemp+1+pclath+cstack]
 10913                           	line	248
 10914                           	
 10915                           l2923:	
 10916  1C1E                     	movlw	080h
 10917  1C1E  3080               	bsf	status, 5	;RP0=1, select bank1
 10918  1C1F  1683               	bcf	status, 6	;RP1=0, select bank1
 10919  1C20  1303               	xorwf	(___flsub@a+3)^080h,f
 10920  1C21  06A3               	line	249
 10921                           	
 10922                           l2925:	
 10923  1C22                     	movf	(___flsub@b+3)^080h,w
 10924  1C22  0827               	bcf	status, 5	;RP0=0, select bank0
 10925  1C23  1283               	bcf	status, 6	;RP1=0, select bank0
 10926  1C24  1303               	movwf	(___fladd@b+3)
 10927  1C25  00D5               	bsf	status, 5	;RP0=1, select bank1
 10928  1C26  1683               	bcf	status, 6	;RP1=0, select bank1
 10929  1C27  1303               	movf	(___flsub@b+2)^080h,w
 10930  1C28  0826               	bcf	status, 5	;RP0=0, select bank0
 10931  1C29  1283               	bcf	status, 6	;RP1=0, select bank0
 10932  1C2A  1303               	movwf	(___fladd@b+2)
 10933  1C2B  00D4               	bsf	status, 5	;RP0=1, select bank1
 10934  1C2C  1683               	bcf	status, 6	;RP1=0, select bank1
 10935  1C2D  1303               	movf	(___flsub@b+1)^080h,w
 10936  1C2E  0825               	bcf	status, 5	;RP0=0, select bank0
 10937  1C2F  1283               	bcf	status, 6	;RP1=0, select bank0
 10938  1C30  1303               	movwf	(___fladd@b+1)
 10939  1C31  00D3               	bsf	status, 5	;RP0=1, select bank1
 10940  1C32  1683               	bcf	status, 6	;RP1=0, select bank1
 10941  1C33  1303               	movf	(___flsub@b)^080h,w
 10942  1C34  0824               	bcf	status, 5	;RP0=0, select bank0
 10943  1C35  1283               	bcf	status, 6	;RP1=0, select bank0
 10944  1C36  1303               	movwf	(___fladd@b)
 10945  1C37  00D2               
 10946                           	bsf	status, 5	;RP0=1, select bank1
 10947  1C38  1683               	bcf	status, 6	;RP1=0, select bank1
 10948  1C39  1303               	movf	(___flsub@a+3)^080h,w
 10949  1C3A  0823               	bcf	status, 5	;RP0=0, select bank0
 10950  1C3B  1283               	bcf	status, 6	;RP1=0, select bank0
 10951  1C3C  1303               	movwf	(___fladd@a+3)
 10952  1C3D  00D9               	bsf	status, 5	;RP0=1, select bank1
 10953  1C3E  1683               	bcf	status, 6	;RP1=0, select bank1
 10954  1C3F  1303               	movf	(___flsub@a+2)^080h,w
 10955  1C40  0822               	bcf	status, 5	;RP0=0, select bank0
 10956  1C41  1283               	bcf	status, 6	;RP1=0, select bank0
 10957  1C42  1303               	movwf	(___fladd@a+2)
 10958  1C43  00D8               	bsf	status, 5	;RP0=1, select bank1
 10959  1C44  1683               	bcf	status, 6	;RP1=0, select bank1
 10960  1C45  1303               	movf	(___flsub@a+1)^080h,w
 10961  1C46  0821               	bcf	status, 5	;RP0=0, select bank0
 10962  1C47  1283               	bcf	status, 6	;RP1=0, select bank0
 10963  1C48  1303               	movwf	(___fladd@a+1)
 10964  1C49  00D7               	bsf	status, 5	;RP0=1, select bank1
 10965  1C4A  1683               	bcf	status, 6	;RP1=0, select bank1
 10966  1C4B  1303               	movf	(___flsub@a)^080h,w
 10967  1C4C  0820               	bcf	status, 5	;RP0=0, select bank0
 10968  1C4D  1283               	bcf	status, 6	;RP1=0, select bank0
 10969  1C4E  1303               	movwf	(___fladd@a)
 10970  1C4F  00D6               
 10971                           	fcall	___fladd
 10972  1C50  160A  118A  2544  160A  158A  	bcf	status, 5	;RP0=0, select bank0
 10973  1C55  1283               	bcf	status, 6	;RP1=0, select bank0
 10974  1C56  1303               	movf	(3+(?___fladd)),w
 10975  1C57  0855               	bsf	status, 5	;RP0=1, select bank1
 10976  1C58  1683               	bcf	status, 6	;RP1=0, select bank1
 10977  1C59  1303               	movwf	(?___flsub+3)^080h
 10978  1C5A  00A3               	bcf	status, 5	;RP0=0, select bank0
 10979  1C5B  1283               	bcf	status, 6	;RP1=0, select bank0
 10980  1C5C  1303               	movf	(2+(?___fladd)),w
 10981  1C5D  0854               	bsf	status, 5	;RP0=1, select bank1
 10982  1C5E  1683               	bcf	status, 6	;RP1=0, select bank1
 10983  1C5F  1303               	movwf	(?___flsub+2)^080h
 10984  1C60  00A2               	bcf	status, 5	;RP0=0, select bank0
 10985  1C61  1283               	bcf	status, 6	;RP1=0, select bank0
 10986  1C62  1303               	movf	(1+(?___fladd)),w
 10987  1C63  0853               	bsf	status, 5	;RP0=1, select bank1
 10988  1C64  1683               	bcf	status, 6	;RP1=0, select bank1
 10989  1C65  1303               	movwf	(?___flsub+1)^080h
 10990  1C66  00A1               	bcf	status, 5	;RP0=0, select bank0
 10991  1C67  1283               	bcf	status, 6	;RP1=0, select bank0
 10992  1C68  1303               	movf	(0+(?___fladd)),w
 10993  1C69  0852               	bsf	status, 5	;RP0=1, select bank1
 10994  1C6A  1683               	bcf	status, 6	;RP1=0, select bank1
 10995  1C6B  1303               	movwf	(?___flsub)^080h
 10996  1C6C  00A0               
 10997                           	goto	l639
 10998  1C6D  2C6E               	
 10999                           l2927:	
 11000  1C6E                     	line	250
 11001                           	
 11002                           l639:	
 11003  1C6E                     	return
 11004  1C6E  0008               	opt stack 0
 11005                           GLOBAL	__end_of___flsub
 11006                           	__end_of___flsub:
 11007  1C6F                     	signat	___flsub,8316
 11008                           	global	___fladd
 11009                           
 11010 ;; *************** function ___fladd *****************
 11011 ;; Defined at:
 11012 ;;		line 10 in file "/opt/microchip/xc8/v2.00/pic/sources/c90/common/sprcadd.c"
 11013 ;; Parameters:    Size  Location     Type
 11014 ;;  b               4   50[BANK0 ] long 
 11015 ;;  a               4   54[BANK0 ] long 
 11016 ;; Auto vars:     Size  Location     Type
 11017 ;;  grs             1   73[BANK0 ] unsigned char 
 11018 ;;  bexp            1   72[BANK0 ] unsigned char 
 11019 ;;  aexp            1   71[BANK0 ] unsigned char 
 11020 ;;  signs           1   70[BANK0 ] unsigned char 
 11021 ;; Return value:  Size  Location     Type
 11022 ;;                  4   50[BANK0 ] unsigned char 
 11023 ;; Registers used:
 11024 ;;		wreg, status,2, status,0, btemp+1
 11025 ;; Tracked objects:
 11026 ;;		On entry : 0/0
 11027 ;;		On exit  : 0/0
 11028 ;;		Unchanged: 0/0
 11029 ;; Data sizes:     COMMON   BANK0   BANK1   BANK3   BANK2
 11030 ;;      Params:         0       8       0       0       0
 11031 ;;      Locals:         0       4       0       0       0
 11032 ;;      Temps:          0      12       0       0       0
 11033 ;;      Totals:         0      24       0       0       0
 11034 ;;Total ram usage:       24 bytes
 11035 ;; Hardware stack levels used:    1
 11036 ;; This function calls:
 11037 ;;		Nothing
 11038 ;; This function is called by:
 11039 ;;		_main
 11040 ;;		_printf
 11041 ;;		___flsub
 11042 ;; This function uses a non-reentrant model
 11043 ;;
 11044                           psect	text20,local,class=CODE,delta=2,merge=1,group=1
 11045                           	line	10
 11046                           global __ptext20
 11047                           __ptext20:	;psect for function ___fladd
 11048  1544                     psect	text20
 11049                           	file	"/opt/microchip/xc8/v2.00/pic/sources/c90/common/sprcadd.c"
 11050                           	line	10
 11051                           	global	__size_of___fladd
 11052                           	__size_of___fladd	equ	__end_of___fladd-___fladd
 11053  02BC                     	
 11054                           ___fladd:	
 11055  1544                     ;incstack = 0
 11056                           	opt	stack 5
 11057                           ; Regs used in ___fladd: [wreg+status,2+status,0+btemp+1]
 11058                           	line	21
 11059                           	
 11060                           l2275:	
 11061  1544                     	bcf	status, 5	;RP0=0, select bank0
 11062  1544  1283               	bcf	status, 6	;RP1=0, select bank0
 11063  1545  1303               	movf	0+(___fladd@b)+03h,w
 11064  1546  0855               	andlw	080h
 11065  1547  3980               	movwf	(??___fladd+0)+0
 11066  1548  00DA               	movf	(??___fladd+0)+0,w
 11067  1549  085A               	movwf	(___fladd@signs)
 11068  154A  00E6               	line	22
 11069                           	
 11070                           l2277:	
 11071  154B                     	movf	0+(___fladd@b)+03h,w
 11072  154B  0855               	movwf	(??___fladd+0)+0
 11073  154C  00DA               	addwf	(??___fladd+0)+0,w
 11074  154D  075A               	movwf	(??___fladd+1)+0
 11075  154E  00DB               	movf	(??___fladd+1)+0,w
 11076  154F  085B               	movwf	(___fladd@bexp)
 11077  1550  00E8               	line	23
 11078                           	
 11079                           l2279:	
 11080  1551                     	btfss	0+(___fladd@b)+02h,(7)&7
 11081  1551  1FD4               	goto	u3201
 11082  1552  2D54               	goto	u3200
 11083  1553  2D55               u3201:
 11084  1554                     	goto	l2283
 11085  1554  2D57               u3200:
 11086  1555                     	line	24
 11087                           	
 11088                           l2281:	
 11089  1555                     	bsf	(___fladd@bexp)+(0/8),(0)&7
 11090  1555  1468               	goto	l2283
 11091  1556  2D57               	line	25
 11092                           	
 11093                           l585:	
 11094  1557                     	line	28
 11095                           	
 11096                           l2283:	
 11097  1557                     	movf	((___fladd@bexp)),w
 11098  1557  0868               	btfsc	status,2
 11099  1558  1903               	goto	u3211
 11100  1559  2D5B               	goto	u3210
 11101  155A  2D5C               u3211:
 11102  155B                     	goto	l2293
 11103  155B  2D6D               u3210:
 11104  155C                     	line	30
 11105                           	
 11106                           l2285:	
 11107  155C                     		incf	((___fladd@bexp)),w
 11108  155C  0A68               	btfss	status,2
 11109  155D  1D03               	goto	u3221
 11110  155E  2D60               	goto	u3220
 11111  155F  2D61               u3221:
 11112  1560                     	goto	l2289
 11113  1560  2D6A               u3220:
 11114  1561                     	line	32
 11115                           	
 11116                           l2287:	
 11117  1561                     	movlw	0x0
 11118  1561  3000               	movwf	(___fladd@b+3)
 11119  1562  00D5               	movlw	0x0
 11120  1563  3000               	movwf	(___fladd@b+2)
 11121  1564  00D4               	movlw	0x0
 11122  1565  3000               	movwf	(___fladd@b+1)
 11123  1566  00D3               	movlw	0x0
 11124  1567  3000               	movwf	(___fladd@b)
 11125  1568  00D2               
 11126                           	goto	l2289
 11127  1569  2D6A               	line	33
 11128                           	
 11129                           l587:	
 11130  156A                     	line	35
 11131                           	
 11132                           l2289:	
 11133  156A                     	bsf	(___fladd@b)+(23/8),(23)&7
 11134  156A  17D4               	line	37
 11135                           	
 11136                           l2291:	
 11137  156B                     	clrf	0+(___fladd@b)+03h
 11138  156B  01D5               	line	38
 11139                           	goto	l2295
 11140  156C  2D76               	line	39
 11141                           	
 11142                           l586:	
 11143  156D                     	line	41
 11144                           	
 11145                           l2293:	
 11146  156D                     	movlw	0x0
 11147  156D  3000               	movwf	(___fladd@b+3)
 11148  156E  00D5               	movlw	0x0
 11149  156F  3000               	movwf	(___fladd@b+2)
 11150  1570  00D4               	movlw	0x0
 11151  1571  3000               	movwf	(___fladd@b+1)
 11152  1572  00D3               	movlw	0x0
 11153  1573  3000               	movwf	(___fladd@b)
 11154  1574  00D2               
 11155                           	goto	l2295
 11156  1575  2D76               	line	42
 11157                           	
 11158                           l588:	
 11159  1576                     	line	44
 11160                           	
 11161                           l2295:	
 11162  1576                     	movf	0+(___fladd@a)+03h,w
 11163  1576  0859               	andlw	080h
 11164  1577  3980               	movwf	(??___fladd+0)+0
 11165  1578  00DA               	movf	(??___fladd+0)+0,w
 11166  1579  085A               	movwf	(___fladd@aexp)
 11167  157A  00E7               	line	46
 11168                           	
 11169                           l2297:	
 11170  157B                     	movf	(___fladd@aexp),w
 11171  157B  0867               	xorwf	(___fladd@signs),w
 11172  157C  0666               	skipnz
 11173  157D  1903               	goto	u3231
 11174  157E  2D80               	goto	u3230
 11175  157F  2D81               u3231:
 11176  1580                     	goto	l2301
 11177  1580  2D83               u3230:
 11178  1581                     	line	47
 11179                           	
 11180                           l2299:	
 11181  1581                     	bsf	(___fladd@signs)+(6/8),(6)&7
 11182  1581  1766               	goto	l2301
 11183  1582  2D83               	line	48
 11184                           	
 11185                           l589:	
 11186  1583                     	line	49
 11187                           	
 11188                           l2301:	
 11189  1583                     	movf	0+(___fladd@a)+03h,w
 11190  1583  0859               	movwf	(??___fladd+0)+0
 11191  1584  00DA               	addwf	(??___fladd+0)+0,w
 11192  1585  075A               	movwf	(??___fladd+1)+0
 11193  1586  00DB               	movf	(??___fladd+1)+0,w
 11194  1587  085B               	movwf	(___fladd@aexp)
 11195  1588  00E7               	line	50
 11196                           	
 11197                           l2303:	
 11198  1589                     	btfss	0+(___fladd@a)+02h,(7)&7
 11199  1589  1FD8               	goto	u3241
 11200  158A  2D8C               	goto	u3240
 11201  158B  2D8D               u3241:
 11202  158C                     	goto	l2307
 11203  158C  2D8F               u3240:
 11204  158D                     	line	51
 11205                           	
 11206                           l2305:	
 11207  158D                     	bsf	(___fladd@aexp)+(0/8),(0)&7
 11208  158D  1467               	goto	l2307
 11209  158E  2D8F               	line	52
 11210                           	
 11211                           l590:	
 11212  158F                     	line	55
 11213                           	
 11214                           l2307:	
 11215  158F                     	movf	((___fladd@aexp)),w
 11216  158F  0867               	btfsc	status,2
 11217  1590  1903               	goto	u3251
 11218  1591  2D93               	goto	u3250
 11219  1592  2D94               u3251:
 11220  1593                     	goto	l2317
 11221  1593  2DA5               u3250:
 11222  1594                     	line	57
 11223                           	
 11224                           l2309:	
 11225  1594                     		incf	((___fladd@aexp)),w
 11226  1594  0A67               	btfss	status,2
 11227  1595  1D03               	goto	u3261
 11228  1596  2D98               	goto	u3260
 11229  1597  2D99               u3261:
 11230  1598                     	goto	l2313
 11231  1598  2DA2               u3260:
 11232  1599                     	line	59
 11233                           	
 11234                           l2311:	
 11235  1599                     	movlw	0x0
 11236  1599  3000               	movwf	(___fladd@a+3)
 11237  159A  00D9               	movlw	0x0
 11238  159B  3000               	movwf	(___fladd@a+2)
 11239  159C  00D8               	movlw	0x0
 11240  159D  3000               	movwf	(___fladd@a+1)
 11241  159E  00D7               	movlw	0x0
 11242  159F  3000               	movwf	(___fladd@a)
 11243  15A0  00D6               
 11244                           	goto	l2313
 11245  15A1  2DA2               	line	60
 11246                           	
 11247                           l592:	
 11248  15A2                     	line	62
 11249                           	
 11250                           l2313:	
 11251  15A2                     	bsf	(___fladd@a)+(23/8),(23)&7
 11252  15A2  17D8               	line	64
 11253                           	
 11254                           l2315:	
 11255  15A3                     	clrf	0+(___fladd@a)+03h
 11256  15A3  01D9               	line	65
 11257                           	goto	l593
 11258  15A4  2DAD               	line	66
 11259                           	
 11260                           l591:	
 11261  15A5                     	line	68
 11262                           	
 11263                           l2317:	
 11264  15A5                     	movlw	0x0
 11265  15A5  3000               	movwf	(___fladd@a+3)
 11266  15A6  00D9               	movlw	0x0
 11267  15A7  3000               	movwf	(___fladd@a+2)
 11268  15A8  00D8               	movlw	0x0
 11269  15A9  3000               	movwf	(___fladd@a+1)
 11270  15AA  00D7               	movlw	0x0
 11271  15AB  3000               	movwf	(___fladd@a)
 11272  15AC  00D6               
 11273                           	line	69
 11274                           	
 11275                           l593:	
 11276  15AD                     	line	75
 11277                           	movf	(___fladd@bexp),w
 11278  15AD  0868               	subwf	(___fladd@aexp),w
 11279  15AE  0267               	skipnc
 11280  15AF  1803               	goto	u3271
 11281  15B0  2DB2               	goto	u3270
 11282  15B1  2DB3               u3271:
 11283  15B2                     	goto	l2353
 11284  15B2  2DF9               u3270:
 11285  15B3                     	line	77
 11286                           	
 11287                           l2319:	
 11288  15B3                     	btfss	(___fladd@signs),(6)&7
 11289  15B3  1F66               	goto	u3281
 11290  15B4  2DB6               	goto	u3280
 11291  15B5  2DB7               u3281:
 11292  15B6                     	goto	l2323
 11293  15B6  2DBC               u3280:
 11294  15B7                     	line	78
 11295                           	
 11296                           l2321:	
 11297  15B7                     	movlw	low(080h)
 11298  15B7  3080               	movwf	(??___fladd+0)+0
 11299  15B8  00DA               	movf	(??___fladd+0)+0,w
 11300  15B9  085A               	xorwf	(___fladd@signs),f
 11301  15BA  06E6               	goto	l2323
 11302  15BB  2DBC               	line	79
 11303                           	
 11304                           l595:	
 11305  15BC                     	line	81
 11306                           	
 11307                           l2323:	
 11308  15BC                     	movf	(___fladd@bexp),w
 11309  15BC  0868               	movwf	(??___fladd+0)+0
 11310  15BD  00DA               	movf	(??___fladd+0)+0,w
 11311  15BE  085A               	movwf	(___fladd@grs)
 11312  15BF  00E9               	line	82
 11313                           	
 11314                           l2325:	
 11315  15C0                     	movf	(___fladd@aexp),w
 11316  15C0  0867               	movwf	(??___fladd+0)+0
 11317  15C1  00DA               	movf	(??___fladd+0)+0,w
 11318  15C2  085A               	movwf	(___fladd@bexp)
 11319  15C3  00E8               	line	83
 11320                           	
 11321                           l2327:	
 11322  15C4                     	movf	(___fladd@grs),w
 11323  15C4  0869               	movwf	(??___fladd+0)+0
 11324  15C5  00DA               	movf	(??___fladd+0)+0,w
 11325  15C6  085A               	movwf	(___fladd@aexp)
 11326  15C7  00E7               	line	84
 11327                           	
 11328                           l2329:	
 11329  15C8                     	movf	(___fladd@b),w
 11330  15C8  0852               	movwf	(??___fladd+0)+0
 11331  15C9  00DA               	movf	(??___fladd+0)+0,w
 11332  15CA  085A               	movwf	(___fladd@grs)
 11333  15CB  00E9               	line	85
 11334                           	
 11335                           l2331:	
 11336  15CC                     	movf	(___fladd@a),w
 11337  15CC  0856               	movwf	(??___fladd+0)+0
 11338  15CD  00DA               	movf	(??___fladd+0)+0,w
 11339  15CE  085A               	movwf	(___fladd@b)
 11340  15CF  00D2               	line	86
 11341                           	
 11342                           l2333:	
 11343  15D0                     	movf	(___fladd@grs),w
 11344  15D0  0869               	movwf	(??___fladd+0)+0
 11345  15D1  00DA               	movf	(??___fladd+0)+0,w
 11346  15D2  085A               	movwf	(___fladd@a)
 11347  15D3  00D6               	line	87
 11348                           	
 11349                           l2335:	
 11350  15D4                     	movf	0+(___fladd@b)+01h,w
 11351  15D4  0853               	movwf	(??___fladd+0)+0
 11352  15D5  00DA               	movf	(??___fladd+0)+0,w
 11353  15D6  085A               	movwf	(___fladd@grs)
 11354  15D7  00E9               	line	88
 11355                           	
 11356                           l2337:	
 11357  15D8                     	movf	0+(___fladd@a)+01h,w
 11358  15D8  0857               	movwf	(??___fladd+0)+0
 11359  15D9  00DA               	movf	(??___fladd+0)+0,w
 11360  15DA  085A               	movwf	0+(___fladd@b)+01h
 11361  15DB  00D3               	line	89
 11362                           	
 11363                           l2339:	
 11364  15DC                     	movf	(___fladd@grs),w
 11365  15DC  0869               	movwf	(??___fladd+0)+0
 11366  15DD  00DA               	movf	(??___fladd+0)+0,w
 11367  15DE  085A               	movwf	0+(___fladd@a)+01h
 11368  15DF  00D7               	line	90
 11369                           	
 11370                           l2341:	
 11371  15E0                     	movf	0+(___fladd@b)+02h,w
 11372  15E0  0854               	movwf	(??___fladd+0)+0
 11373  15E1  00DA               	movf	(??___fladd+0)+0,w
 11374  15E2  085A               	movwf	(___fladd@grs)
 11375  15E3  00E9               	line	91
 11376                           	
 11377                           l2343:	
 11378  15E4                     	movf	0+(___fladd@a)+02h,w
 11379  15E4  0858               	movwf	(??___fladd+0)+0
 11380  15E5  00DA               	movf	(??___fladd+0)+0,w
 11381  15E6  085A               	movwf	0+(___fladd@b)+02h
 11382  15E7  00D4               	line	92
 11383                           	
 11384                           l2345:	
 11385  15E8                     	movf	(___fladd@grs),w
 11386  15E8  0869               	movwf	(??___fladd+0)+0
 11387  15E9  00DA               	movf	(??___fladd+0)+0,w
 11388  15EA  085A               	movwf	0+(___fladd@a)+02h
 11389  15EB  00D8               	line	93
 11390                           	
 11391                           l2347:	
 11392  15EC                     	movf	0+(___fladd@b)+03h,w
 11393  15EC  0855               	movwf	(??___fladd+0)+0
 11394  15ED  00DA               	movf	(??___fladd+0)+0,w
 11395  15EE  085A               	movwf	(___fladd@grs)
 11396  15EF  00E9               	line	94
 11397                           	
 11398                           l2349:	
 11399  15F0                     	movf	0+(___fladd@a)+03h,w
 11400  15F0  0859               	movwf	(??___fladd+0)+0
 11401  15F1  00DA               	movf	(??___fladd+0)+0,w
 11402  15F2  085A               	movwf	0+(___fladd@b)+03h
 11403  15F3  00D5               	line	95
 11404                           	
 11405                           l2351:	
 11406  15F4                     	movf	(___fladd@grs),w
 11407  15F4  0869               	movwf	(??___fladd+0)+0
 11408  15F5  00DA               	movf	(??___fladd+0)+0,w
 11409  15F6  085A               	movwf	0+(___fladd@a)+03h
 11410  15F7  00D9               	goto	l2353
 11411  15F8  2DF9               	line	96
 11412                           	
 11413                           l594:	
 11414  15F9                     	line	98
 11415                           	
 11416                           l2353:	
 11417  15F9                     	clrf	(___fladd@grs)
 11418  15F9  01E9               	line	100
 11419                           	
 11420                           l2355:	
 11421  15FA                     	movf	(___fladd@bexp),w
 11422  15FA  0868               	movwf	(??___fladd+0)+0
 11423  15FB  00DA               	clrf	(??___fladd+0)+0+1
 11424  15FC  01DB               	comf	(??___fladd+0)+0,f
 11425  15FD  09DA               	comf	(??___fladd+0)+1,f
 11426  15FE  09DB               	incf	(??___fladd+0)+0,f
 11427  15FF  0ADA               	skipnz
 11428  1600  1903               	incf	(??___fladd+0)+1,f
 11429  1601  0ADB               	movf	(___fladd@aexp),w
 11430  1602  0867               	addwf	0+(??___fladd+0)+0,w
 11431  1603  075A               	movwf	(??___fladd+2)+0
 11432  1604  00DC               	movf	1+(??___fladd+0)+0,w
 11433  1605  085B               	skipnc
 11434  1606  1803               	incf	1+(??___fladd+0)+0,w
 11435  1607  0A5B               	movwf	((??___fladd+2)+0)+1
 11436  1608  00DD               	movf	1+(??___fladd+2)+0,w
 11437  1609  085D               	xorlw	80h
 11438  160A  3A80               	movwf	btemp+1
 11439  160B  00FF               	movlw	(0)^80h
 11440  160C  3080               	subwf	btemp+1,w
 11441  160D  027F               	skipz
 11442  160E  1D03               	goto	u3295
 11443  160F  2E12               	movlw	01Ah
 11444  1610  301A               	subwf	0+(??___fladd+2)+0,w
 11445  1611  025C               u3295:
 11446  1612                     
 11447                           	skipc
 11448  1612  1C03               	goto	u3291
 11449  1613  2E15               	goto	u3290
 11450  1614  2E16               u3291:
 11451  1615                     	goto	l2371
 11452  1615  2E57               u3290:
 11453  1616                     	line	101
 11454                           	
 11455                           l2357:	
 11456  1616                     	bcf	status, 5	;RP0=0, select bank0
 11457  1616  1283               	bcf	status, 6	;RP1=0, select bank0
 11458  1617  1303               	movf	(___fladd@b+3),w
 11459  1618  0855               	iorwf	(___fladd@b+2),w
 11460  1619  0454               	iorwf	(___fladd@b+1),w
 11461  161A  0453               	iorwf	(___fladd@b),w
 11462  161B  0452               	skipz
 11463  161C  1D03               	goto	u3301
 11464  161D  2E1F               	goto	u3300
 11465  161E  2E21               u3301:
 11466  161F                     	movlw	1
 11467  161F  3001               	goto	u3310
 11468  1620  2E22               u3300:
 11469  1621                     	movlw	0
 11470  1621  3000               u3310:
 11471  1622                     	movwf	(??___fladd+0)+0
 11472  1622  00DA               	movf	(??___fladd+0)+0,w
 11473  1623  085A               	movwf	(___fladd@grs)
 11474  1624  00E9               	line	102
 11475                           	movlw	high highword(0)
 11476  1625  3000               	movwf	(___fladd@b+3)
 11477  1626  00D5               	movlw	low highword(0)
 11478  1627  3000               	movwf	(___fladd@b+2)
 11479  1628  00D4               	movlw	high(0)
 11480  1629  3000               	movwf	(___fladd@b+1)
 11481  162A  00D3               	movlw	low(0)
 11482  162B  3000               	movwf	(___fladd@b)
 11483  162C  00D2               
 11484                           	line	103
 11485                           	movf	(___fladd@aexp),w
 11486  162D  0867               	movwf	(??___fladd+0)+0
 11487  162E  00DA               	movf	(??___fladd+0)+0,w
 11488  162F  085A               	movwf	(___fladd@bexp)
 11489  1630  00E8               	line	104
 11490                           	goto	l597
 11491  1631  2E60               	line	105
 11492                           	
 11493                           l596:	
 11494  1632                     	line	106
 11495                           	goto	l2371
 11496  1632  2E57               	
 11497                           l599:	
 11498  1633                     	line	109
 11499                           	btfss	(___fladd@grs),(0)&7
 11500  1633  1C69               	goto	u3321
 11501  1634  2E36               	goto	u3320
 11502  1635  2E37               u3321:
 11503  1636                     	goto	l2361
 11504  1636  2E40               u3320:
 11505  1637                     	line	110
 11506                           	
 11507                           l2359:	
 11508  1637                     	movf	(___fladd@grs),w
 11509  1637  0869               	movwf	(??___fladd+0)+0
 11510  1638  00DA               	clrc
 11511  1639  1003               	rrf	(??___fladd+0)+0,w
 11512  163A  0C5A               	iorlw	01h
 11513  163B  3801               	movwf	(??___fladd+1)+0
 11514  163C  00DB               	movf	(??___fladd+1)+0,w
 11515  163D  085B               	movwf	(___fladd@grs)
 11516  163E  00E9               	line	111
 11517                           	goto	l2363
 11518  163F  2E43               	line	112
 11519                           	
 11520                           l600:	
 11521  1640                     	line	113
 11522                           	
 11523                           l2361:	
 11524  1640                     	clrc
 11525  1640  1003               	rrf	(___fladd@grs),f
 11526  1641  0CE9               
 11527                           	goto	l2363
 11528  1642  2E43               	line	114
 11529                           	
 11530                           l601:	
 11531  1643                     	line	115
 11532                           	
 11533                           l2363:	
 11534  1643                     	btfss	(___fladd@b),(0)&7
 11535  1643  1C52               	goto	u3331
 11536  1644  2E46               	goto	u3330
 11537  1645  2E47               u3331:
 11538  1646                     	goto	l2367
 11539  1646  2E49               u3330:
 11540  1647                     	line	116
 11541                           	
 11542                           l2365:	
 11543  1647                     	bsf	(___fladd@grs)+(7/8),(7)&7
 11544  1647  17E9               	goto	l2367
 11545  1648  2E49               	line	117
 11546                           	
 11547                           l602:	
 11548  1649                     	line	118
 11549                           	
 11550                           l2367:	
 11551  1649                     	movlw	01h
 11552  1649  3001               	movwf	(??___fladd+0)+0
 11553  164A  00DA               u3345:
 11554  164B                     	rlf	(___fladd@b+3),w
 11555  164B  0D55               	rrf	(___fladd@b+3),f
 11556  164C  0CD5               	rrf	(___fladd@b+2),f
 11557  164D  0CD4               	rrf	(___fladd@b+1),f
 11558  164E  0CD3               	rrf	(___fladd@b),f
 11559  164F  0CD2               	decfsz	(??___fladd+0)+0&07fh,f
 11560  1650  0BDA               	goto	u3345
 11561  1651  2E4B               
 11562                           	line	119
 11563                           	
 11564                           l2369:	
 11565  1652                     	movlw	low(01h)
 11566  1652  3001               	movwf	(??___fladd+0)+0
 11567  1653  00DA               	movf	(??___fladd+0)+0,w
 11568  1654  085A               	addwf	(___fladd@bexp),f
 11569  1655  07E8               	goto	l2371
 11570  1656  2E57               	line	120
 11571                           	
 11572                           l598:	
 11573  1657                     	line	106
 11574                           	
 11575                           l2371:	
 11576  1657                     	bcf	status, 5	;RP0=0, select bank0
 11577  1657  1283               	bcf	status, 6	;RP1=0, select bank0
 11578  1658  1303               	movf	(___fladd@aexp),w
 11579  1659  0867               	subwf	(___fladd@bexp),w
 11580  165A  0268               	skipc
 11581  165B  1C03               	goto	u3351
 11582  165C  2E5E               	goto	u3350
 11583  165D  2E5F               u3351:
 11584  165E                     	goto	l599
 11585  165E  2E33               u3350:
 11586  165F                     	goto	l597
 11587  165F  2E60               	
 11588                           l603:	
 11589  1660                     	line	121
 11590                           	
 11591                           l597:	
 11592  1660                     	line	124
 11593                           	btfsc	(___fladd@signs),(6)&7
 11594  1660  1B66               	goto	u3361
 11595  1661  2E63               	goto	u3360
 11596  1662  2E64               u3361:
 11597  1663                     	goto	l2397
 11598  1663  2EB3               u3360:
 11599  1664                     	line	127
 11600                           	
 11601                           l2373:	
 11602  1664                     	movf	((___fladd@bexp)),w
 11603  1664  0868               	btfss	status,2
 11604  1665  1D03               	goto	u3371
 11605  1666  2E68               	goto	u3370
 11606  1667  2E69               u3371:
 11607  1668                     	goto	l2379
 11608  1668  2E73               u3370:
 11609  1669                     	line	128
 11610                           	
 11611                           l2375:	
 11612  1669                     	movlw	0x0
 11613  1669  3000               	movwf	(?___fladd+3)
 11614  166A  00D5               	movlw	0x0
 11615  166B  3000               	movwf	(?___fladd+2)
 11616  166C  00D4               	movlw	0x0
 11617  166D  3000               	movwf	(?___fladd+1)
 11618  166E  00D3               	movlw	0x0
 11619  166F  3000               	movwf	(?___fladd)
 11620  1670  00D2               
 11621                           	goto	l606
 11622  1671  2FFF               	
 11623                           l2377:	
 11624  1672                     	goto	l606
 11625  1672  2FFF               	line	129
 11626                           	
 11627                           l605:	
 11628  1673                     	line	132
 11629                           	
 11630                           l2379:	
 11631  1673                     	movf	(___fladd@a),w
 11632  1673  0856               	addwf	(___fladd@b),f
 11633  1674  07D2               	movf	(___fladd@a+1),w
 11634  1675  0857               	clrz
 11635  1676  1103               	skipnc
 11636  1677  1803               	addlw	1
 11637  1678  3E01               	skipnz
 11638  1679  1903               	goto	u3381
 11639  167A  2E7C               	addwf	(___fladd@b+1),f
 11640  167B  07D3               u3381:
 11641  167C                     	movf	(___fladd@a+2),w
 11642  167C  0858               	clrz
 11643  167D  1103               	skipnc
 11644  167E  1803               	addlw	1
 11645  167F  3E01               	skipnz
 11646  1680  1903               	goto	u3382
 11647  1681  2E83               	addwf	(___fladd@b+2),f
 11648  1682  07D4               u3382:
 11649  1683                     	movf	(___fladd@a+3),w
 11650  1683  0859               	clrz
 11651  1684  1103               	skipnc
 11652  1685  1803               	addlw	1
 11653  1686  3E01               	skipnz
 11654  1687  1903               	goto	u3383
 11655  1688  2E8A               	addwf	(___fladd@b+3),f
 11656  1689  07D5               u3383:
 11657  168A                     
 11658                           	line	134
 11659                           	
 11660                           l2381:	
 11661  168A                     	btfss	(___fladd@b+3),(24)&7
 11662  168A  1C55               	goto	u3391
 11663  168B  2E8D               	goto	u3390
 11664  168C  2E8E               u3391:
 11665  168D                     	goto	l2431
 11666  168D  2F7C               u3390:
 11667  168E                     	line	135
 11668                           	
 11669                           l2383:	
 11670  168E                     	btfss	(___fladd@grs),(0)&7
 11671  168E  1C69               	goto	u3401
 11672  168F  2E91               	goto	u3400
 11673  1690  2E92               u3401:
 11674  1691                     	goto	l2387
 11675  1691  2E9B               u3400:
 11676  1692                     	line	136
 11677                           	
 11678                           l2385:	
 11679  1692                     	movf	(___fladd@grs),w
 11680  1692  0869               	movwf	(??___fladd+0)+0
 11681  1693  00DA               	clrc
 11682  1694  1003               	rrf	(??___fladd+0)+0,w
 11683  1695  0C5A               	iorlw	01h
 11684  1696  3801               	movwf	(??___fladd+1)+0
 11685  1697  00DB               	movf	(??___fladd+1)+0,w
 11686  1698  085B               	movwf	(___fladd@grs)
 11687  1699  00E9               	line	137
 11688                           	goto	l2389
 11689  169A  2E9E               	line	138
 11690                           	
 11691                           l608:	
 11692  169B                     	line	139
 11693                           	
 11694                           l2387:	
 11695  169B                     	clrc
 11696  169B  1003               	rrf	(___fladd@grs),f
 11697  169C  0CE9               
 11698                           	goto	l2389
 11699  169D  2E9E               	line	140
 11700                           	
 11701                           l609:	
 11702  169E                     	line	141
 11703                           	
 11704                           l2389:	
 11705  169E                     	btfss	(___fladd@b),(0)&7
 11706  169E  1C52               	goto	u3411
 11707  169F  2EA1               	goto	u3410
 11708  16A0  2EA2               u3411:
 11709  16A1                     	goto	l2393
 11710  16A1  2EA4               u3410:
 11711  16A2                     	line	142
 11712                           	
 11713                           l2391:	
 11714  16A2                     	bsf	(___fladd@grs)+(7/8),(7)&7
 11715  16A2  17E9               	goto	l2393
 11716  16A3  2EA4               	line	143
 11717                           	
 11718                           l610:	
 11719  16A4                     	line	144
 11720                           	
 11721                           l2393:	
 11722  16A4                     	movlw	01h
 11723  16A4  3001               	movwf	(??___fladd+0)+0
 11724  16A5  00DA               u3425:
 11725  16A6                     	rlf	(___fladd@b+3),w
 11726  16A6  0D55               	rrf	(___fladd@b+3),f
 11727  16A7  0CD5               	rrf	(___fladd@b+2),f
 11728  16A8  0CD4               	rrf	(___fladd@b+1),f
 11729  16A9  0CD3               	rrf	(___fladd@b),f
 11730  16AA  0CD2               	decfsz	(??___fladd+0)+0&07fh,f
 11731  16AB  0BDA               	goto	u3425
 11732  16AC  2EA6               
 11733                           	line	145
 11734                           	
 11735                           l2395:	
 11736  16AD                     	movlw	low(01h)
 11737  16AD  3001               	movwf	(??___fladd+0)+0
 11738  16AE  00DA               	movf	(??___fladd+0)+0,w
 11739  16AF  085A               	addwf	(___fladd@bexp),f
 11740  16B0  07E8               	goto	l2431
 11741  16B1  2F7C               	line	146
 11742                           	
 11743                           l607:	
 11744  16B2                     	line	148
 11745                           	goto	l2431
 11746  16B2  2F7C               	line	149
 11747                           	
 11748                           l604:	
 11749  16B3                     	line	153
 11750                           	
 11751                           l2397:	
 11752  16B3                     	movf	(___fladd@b+3),w
 11753  16B3  0855               	xorlw	80h
 11754  16B4  3A80               	movwf	btemp+1
 11755  16B5  00FF               	movf	(___fladd@a+3),w
 11756  16B6  0859               	xorlw	80h
 11757  16B7  3A80               	subwf	btemp+1,w
 11758  16B8  027F               	
 11759                           	skipz
 11760  16B9  1D03               	goto	u3433
 11761  16BA  2EC5               	movf	(___fladd@a+2),w
 11762  16BB  0858               	subwf	(___fladd@b+2),w
 11763  16BC  0254               	skipz
 11764  16BD  1D03               	goto	u3433
 11765  16BE  2EC5               	movf	(___fladd@a+1),w
 11766  16BF  0857               	subwf	(___fladd@b+1),w
 11767  16C0  0253               	skipz
 11768  16C1  1D03               	goto	u3433
 11769  16C2  2EC5               	movf	(___fladd@a),w
 11770  16C3  0856               	subwf	(___fladd@b),w
 11771  16C4  0252               u3433:
 11772  16C5                     	skipnc
 11773  16C5  1803               	goto	u3431
 11774  16C6  2EC8               	goto	u3430
 11775  16C7  2EC9               u3431:
 11776  16C8                     	goto	l2407
 11777  16C8  2F2F               u3430:
 11778  16C9                     	line	154
 11779                           	
 11780                           l2399:	
 11781  16C9                     	movlw	0FFh
 11782  16C9  30FF               	movwf	((??___fladd+0)+0)
 11783  16CA  00DA               	movlw	0FFh
 11784  16CB  30FF               	movwf	((??___fladd+0)+0+1)
 11785  16CC  00DB               	movlw	0FFh
 11786  16CD  30FF               	movwf	((??___fladd+0)+0+2)
 11787  16CE  00DC               	movlw	0FFh
 11788  16CF  30FF               	movwf	((??___fladd+0)+0+3)
 11789  16D0  00DD               	movf	(___fladd@a),w
 11790  16D1  0856               	movwf	(??___fladd+4)+0
 11791  16D2  00DE               	movf	(___fladd@a+1),w
 11792  16D3  0857               	movwf	((??___fladd+4)+0+1)
 11793  16D4  00DF               	movf	(___fladd@a+2),w
 11794  16D5  0858               	movwf	((??___fladd+4)+0+2)
 11795  16D6  00E0               	movf	(___fladd@a+3),w
 11796  16D7  0859               	movwf	((??___fladd+4)+0+3)
 11797  16D8  00E1               	comf	(___fladd@b),w
 11798  16D9  0952               	movwf	(??___fladd+8)+0
 11799  16DA  00E2               	comf	(___fladd@b+1),w
 11800  16DB  0953               	movwf	((??___fladd+8)+0+1)
 11801  16DC  00E3               	comf	(___fladd@b+2),w
 11802  16DD  0954               	movwf	((??___fladd+8)+0+2)
 11803  16DE  00E4               	comf	(___fladd@b+3),w
 11804  16DF  0955               	movwf	((??___fladd+8)+0+3)
 11805  16E0  00E5               	incf	(??___fladd+8)+0,f
 11806  16E1  0AE2               	skipnz
 11807  16E2  1903               	incf	((??___fladd+8)+0+1),f
 11808  16E3  0AE3               	skipnz
 11809  16E4  1903               	incf	((??___fladd+8)+0+2),f
 11810  16E5  0AE4               	skipnz
 11811  16E6  1903               	incf	((??___fladd+8)+0+3),f
 11812  16E7  0AE5               	movf	0+(??___fladd+8)+0,w
 11813  16E8  0862               	addwf	(??___fladd+4)+0,f
 11814  16E9  07DE               	movf	1+(??___fladd+8)+0,w
 11815  16EA  0863               	skipnc
 11816  16EB  1803               	incfsz	1+(??___fladd+8)+0,w
 11817  16EC  0F63               	goto	u3440
 11818  16ED  2EEF               	goto	u3441
 11819  16EE  2EF0               u3440:
 11820  16EF                     	addwf	(??___fladd+4)+1,f
 11821  16EF  07DF               u3441:
 11822  16F0                     	movf	2+(??___fladd+8)+0,w
 11823  16F0  0864               	skipnc
 11824  16F1  1803               	incfsz	2+(??___fladd+8)+0,w
 11825  16F2  0F64               	goto	u3442
 11826  16F3  2EF5               	goto	u3443
 11827  16F4  2EF6               u3442:
 11828  16F5                     	addwf	(??___fladd+4)+2,f
 11829  16F5  07E0               u3443:
 11830  16F6                     	movf	3+(??___fladd+8)+0,w
 11831  16F6  0865               	skipnc
 11832  16F7  1803               	incf	3+(??___fladd+8)+0,w
 11833  16F8  0A65               	addwf	(??___fladd+4)+3,f
 11834  16F9  07E1               	movf	0+(??___fladd+4)+0,w
 11835  16FA  085E               	addwf	(??___fladd+0)+0,f
 11836  16FB  07DA               	movf	1+(??___fladd+4)+0,w
 11837  16FC  085F               	skipnc
 11838  16FD  1803               	incfsz	1+(??___fladd+4)+0,w
 11839  16FE  0F5F               	goto	u3450
 11840  16FF  2F01               	goto	u3451
 11841  1700  2F02               u3450:
 11842  1701                     	addwf	(??___fladd+0)+1,f
 11843  1701  07DB               u3451:
 11844  1702                     	movf	2+(??___fladd+4)+0,w
 11845  1702  0860               	skipnc
 11846  1703  1803               	incfsz	2+(??___fladd+4)+0,w
 11847  1704  0F60               	goto	u3452
 11848  1705  2F07               	goto	u3453
 11849  1706  2F08               u3452:
 11850  1707                     	addwf	(??___fladd+0)+2,f
 11851  1707  07DC               u3453:
 11852  1708                     	movf	3+(??___fladd+4)+0,w
 11853  1708  0861               	skipnc
 11854  1709  1803               	incf	3+(??___fladd+4)+0,w
 11855  170A  0A61               	addwf	(??___fladd+0)+3,f
 11856  170B  07DD               	movf	3+(??___fladd+0)+0,w
 11857  170C  085D               	movwf	(___fladd@b+3)
 11858  170D  00D5               	movf	2+(??___fladd+0)+0,w
 11859  170E  085C               	movwf	(___fladd@b+2)
 11860  170F  00D4               	movf	1+(??___fladd+0)+0,w
 11861  1710  085B               	movwf	(___fladd@b+1)
 11862  1711  00D3               	movf	0+(??___fladd+0)+0,w
 11863  1712  085A               	movwf	(___fladd@b)
 11864  1713  00D2               
 11865                           	line	155
 11866                           	movlw	low(080h)
 11867  1714  3080               	movwf	(??___fladd+0)+0
 11868  1715  00DA               	movf	(??___fladd+0)+0,w
 11869  1716  085A               	xorwf	(___fladd@signs),f
 11870  1717  06E6               	line	156
 11871                           	
 11872                           l2401:	
 11873  1718                     	comf	(___fladd@grs),f
 11874  1718  09E9               	incf	(___fladd@grs),f
 11875  1719  0AE9               	line	157
 11876                           	
 11877                           l2403:	
 11878  171A                     	movf	((___fladd@grs)),w
 11879  171A  0869               	btfss	status,2
 11880  171B  1D03               	goto	u3461
 11881  171C  2F1E               	goto	u3460
 11882  171D  2F1F               u3461:
 11883  171E                     	goto	l614
 11884  171E  2F3D               u3460:
 11885  171F                     	line	158
 11886                           	
 11887                           l2405:	
 11888  171F                     	movlw	01h
 11889  171F  3001               	addwf	(___fladd@b),f
 11890  1720  07D2               	movlw	0
 11891  1721  3000               	skipnc
 11892  1722  1803               movlw 1
 11893  1723  3001               	addwf	(___fladd@b+1),f
 11894  1724  07D3               	movlw	0
 11895  1725  3000               	skipnc
 11896  1726  1803               movlw 1
 11897  1727  3001               	addwf	(___fladd@b+2),f
 11898  1728  07D4               	movlw	0
 11899  1729  3000               	skipnc
 11900  172A  1803               movlw 1
 11901  172B  3001               	addwf	(___fladd@b+3),f
 11902  172C  07D5               	goto	l614
 11903  172D  2F3D               	line	159
 11904                           	
 11905                           l613:	
 11906  172E                     	line	160
 11907                           	goto	l614
 11908  172E  2F3D               	line	161
 11909                           	
 11910                           l612:	
 11911  172F                     	line	162
 11912                           	
 11913                           l2407:	
 11914  172F                     	movf	(___fladd@a),w
 11915  172F  0856               	subwf	(___fladd@b),f
 11916  1730  02D2               	movf	(___fladd@a+1),w
 11917  1731  0857               	skipc
 11918  1732  1C03               	incfsz	(___fladd@a+1),w
 11919  1733  0F57               	subwf	(___fladd@b+1),f
 11920  1734  02D3               	movf	(___fladd@a+2),w
 11921  1735  0858               	skipc
 11922  1736  1C03               	incfsz	(___fladd@a+2),w
 11923  1737  0F58               	subwf	(___fladd@b+2),f
 11924  1738  02D4               	movf	(___fladd@a+3),w
 11925  1739  0859               	skipc
 11926  173A  1C03               	incfsz	(___fladd@a+3),w
 11927  173B  0F59               	subwf	(___fladd@b+3),f
 11928  173C  02D5               	line	163
 11929                           	
 11930                           l614:	
 11931  173D                     	line	166
 11932                           	movf	(___fladd@b+3),w
 11933  173D  0855               	iorwf	(___fladd@b+2),w
 11934  173E  0454               	iorwf	(___fladd@b+1),w
 11935  173F  0453               	iorwf	(___fladd@b),w
 11936  1740  0452               	skipz
 11937  1741  1D03               	goto	u3471
 11938  1742  2F44               	goto	u3470
 11939  1743  2F45               u3471:
 11940  1744                     	goto	l2429
 11941  1744  2F76               u3470:
 11942  1745                     	
 11943                           l2409:	
 11944  1745                     	movf	((___fladd@grs)),w
 11945  1745  0869               	btfss	status,2
 11946  1746  1D03               	goto	u3481
 11947  1747  2F49               	goto	u3480
 11948  1748  2F4A               u3481:
 11949  1749                     	goto	l2429
 11950  1749  2F76               u3480:
 11951  174A                     	line	167
 11952                           	
 11953                           l2411:	
 11954  174A                     	movlw	0x0
 11955  174A  3000               	movwf	(?___fladd+3)
 11956  174B  00D5               	movlw	0x0
 11957  174C  3000               	movwf	(?___fladd+2)
 11958  174D  00D4               	movlw	0x0
 11959  174E  3000               	movwf	(?___fladd+1)
 11960  174F  00D3               	movlw	0x0
 11961  1750  3000               	movwf	(?___fladd)
 11962  1751  00D2               
 11963                           	goto	l606
 11964  1752  2FFF               	
 11965                           l2413:	
 11966  1753                     	goto	l606
 11967  1753  2FFF               	line	168
 11968                           	
 11969                           l615:	
 11970  1754                     	line	171
 11971                           	goto	l2429
 11972  1754  2F76               	
 11973                           l617:	
 11974  1755                     	line	172
 11975                           	
 11976                           l2415:	
 11977  1755                     	movlw	01h
 11978  1755  3001               	movwf	(??___fladd+0)+0
 11979  1756  00DA               u3495:
 11980  1757                     	clrc
 11981  1757  1003               	rlf	(___fladd@b),f
 11982  1758  0DD2               	rlf	(___fladd@b+1),f
 11983  1759  0DD3               	rlf	(___fladd@b+2),f
 11984  175A  0DD4               	rlf	(___fladd@b+3),f
 11985  175B  0DD5               	decfsz	(??___fladd+0)+0
 11986  175C  0BDA               	goto	u3495
 11987  175D  2F57               	line	173
 11988                           	
 11989                           l2417:	
 11990  175E                     	btfss	(___fladd@grs),(7)&7
 11991  175E  1FE9               	goto	u3501
 11992  175F  2F61               	goto	u3500
 11993  1760  2F62               u3501:
 11994  1761                     	goto	l618
 11995  1761  2F63               u3500:
 11996  1762                     	line	174
 11997                           	
 11998                           l2419:	
 11999  1762                     	bsf	(___fladd@b)+(0/8),(0)&7
 12000  1762  1452               	line	175
 12001                           	
 12002                           l618:	
 12003  1763                     	line	176
 12004                           	btfss	(___fladd@grs),(0)&7
 12005  1763  1C69               	goto	u3511
 12006  1764  2F66               	goto	u3510
 12007  1765  2F67               u3511:
 12008  1766                     	goto	l2423
 12009  1766  2F6A               u3510:
 12010  1767                     	line	177
 12011                           	
 12012                           l2421:	
 12013  1767                     	setc
 12014  1767  1403               	rlf	(___fladd@grs),f
 12015  1768  0DE9               	line	178
 12016                           	goto	l2425
 12017  1769  2F6D               	line	179
 12018                           	
 12019                           l619:	
 12020  176A                     	line	180
 12021                           	
 12022                           l2423:	
 12023  176A                     	clrc
 12024  176A  1003               	rlf	(___fladd@grs),f
 12025  176B  0DE9               
 12026                           	goto	l2425
 12027  176C  2F6D               	line	181
 12028                           	
 12029                           l620:	
 12030  176D                     	line	182
 12031                           	
 12032                           l2425:	
 12033  176D                     	movf	((___fladd@bexp)),w
 12034  176D  0868               	btfsc	status,2
 12035  176E  1903               	goto	u3521
 12036  176F  2F71               	goto	u3520
 12037  1770  2F72               u3521:
 12038  1771                     	goto	l2429
 12039  1771  2F76               u3520:
 12040  1772                     	line	183
 12041                           	
 12042                           l2427:	
 12043  1772                     	movlw	01h
 12044  1772  3001               	subwf	(___fladd@bexp),f
 12045  1773  02E8               	goto	l2429
 12046  1774  2F76               	line	184
 12047                           	
 12048                           l621:	
 12049  1775                     	goto	l2429
 12050  1775  2F76               	line	185
 12051                           	
 12052                           l616:	
 12053  1776                     	line	171
 12054                           	
 12055                           l2429:	
 12056  1776                     	btfss	(___fladd@b+2),(23)&7
 12057  1776  1FD4               	goto	u3531
 12058  1777  2F79               	goto	u3530
 12059  1778  2F7A               u3531:
 12060  1779                     	goto	l2415
 12061  1779  2F55               u3530:
 12062  177A                     	goto	l2431
 12063  177A  2F7C               	
 12064                           l622:	
 12065  177B                     	goto	l2431
 12066  177B  2F7C               	line	186
 12067                           	
 12068                           l611:	
 12069  177C                     	line	192
 12070                           	
 12071                           l2431:	
 12072  177C                     	clrf	(___fladd@aexp)
 12073  177C  01E7               	line	193
 12074                           	
 12075                           l2433:	
 12076  177D                     	btfss	(___fladd@grs),(7)&7
 12077  177D  1FE9               	goto	u3541
 12078  177E  2F80               	goto	u3540
 12079  177F  2F81               u3541:
 12080  1780                     	goto	l2441
 12081  1780  2F93               u3540:
 12082  1781                     	line	194
 12083                           	
 12084                           l2435:	
 12085  1781                     	movf	(___fladd@grs),w
 12086  1781  0869               	andlw	07Fh
 12087  1782  397F               	btfsc	status,2
 12088  1783  1903               	goto	u3551
 12089  1784  2F86               	goto	u3550
 12090  1785  2F87               u3551:
 12091  1786                     	goto	l624
 12092  1786  2F8A               u3550:
 12093  1787                     	line	195
 12094                           	
 12095                           l2437:	
 12096  1787                     	clrf	(___fladd@aexp)
 12097  1787  01E7               	incf	(___fladd@aexp),f
 12098  1788  0AE7               	line	196
 12099                           	goto	l2441
 12100  1789  2F93               	line	197
 12101                           	
 12102                           l624:	
 12103  178A                     	line	198
 12104                           	btfss	(___fladd@b),(0)&7
 12105  178A  1C52               	goto	u3561
 12106  178B  2F8D               	goto	u3560
 12107  178C  2F8E               u3561:
 12108  178D                     	goto	l2441
 12109  178D  2F93               u3560:
 12110  178E                     	line	199
 12111                           	
 12112                           l2439:	
 12113  178E                     	clrf	(___fladd@aexp)
 12114  178E  01E7               	incf	(___fladd@aexp),f
 12115  178F  0AE7               	goto	l2441
 12116  1790  2F93               	line	200
 12117                           	
 12118                           l626:	
 12119  1791                     	goto	l2441
 12120  1791  2F93               	line	201
 12121                           	
 12122                           l625:	
 12123  1792                     	goto	l2441
 12124  1792  2F93               	line	202
 12125                           	
 12126                           l623:	
 12127  1793                     	line	203
 12128                           	
 12129                           l2441:	
 12130  1793                     	movf	((___fladd@aexp)),w
 12131  1793  0867               	btfsc	status,2
 12132  1794  1903               	goto	u3571
 12133  1795  2F97               	goto	u3570
 12134  1796  2F98               u3571:
 12135  1797                     	goto	l627
 12136  1797  2FCE               u3570:
 12137  1798                     	line	204
 12138                           	
 12139                           l2443:	
 12140  1798                     	movlw	01h
 12141  1798  3001               	addwf	(___fladd@b),f
 12142  1799  07D2               	movlw	0
 12143  179A  3000               	skipnc
 12144  179B  1803               movlw 1
 12145  179C  3001               	addwf	(___fladd@b+1),f
 12146  179D  07D3               	movlw	0
 12147  179E  3000               	skipnc
 12148  179F  1803               movlw 1
 12149  17A0  3001               	addwf	(___fladd@b+2),f
 12150  17A1  07D4               	movlw	0
 12151  17A2  3000               	skipnc
 12152  17A3  1803               movlw 1
 12153  17A4  3001               	addwf	(___fladd@b+3),f
 12154  17A5  07D5               	line	205
 12155                           	
 12156                           l2445:	
 12157  17A6                     	btfss	(___fladd@b+3),(24)&7
 12158  17A6  1C55               	goto	u3581
 12159  17A7  2FA9               	goto	u3580
 12160  17A8  2FAA               u3581:
 12161  17A9                     	goto	l627
 12162  17A9  2FCE               u3580:
 12163  17AA                     	line	206
 12164                           	
 12165                           l2447:	
 12166  17AA                     	movf	(___fladd@b),w
 12167  17AA  0852               	movwf	(??___fladd+0)+0
 12168  17AB  00DA               	movf	(___fladd@b+1),w
 12169  17AC  0853               	movwf	((??___fladd+0)+0+1)
 12170  17AD  00DB               	movf	(___fladd@b+2),w
 12171  17AE  0854               	movwf	((??___fladd+0)+0+2)
 12172  17AF  00DC               	movf	(___fladd@b+3),w
 12173  17B0  0855               	movwf	((??___fladd+0)+0+3)
 12174  17B1  00DD               	movlw	01h
 12175  17B2  3001               	movwf	(??___fladd+4)+0
 12176  17B3  00DE               u3595:
 12177  17B4                     	rlf	(??___fladd+0)+3,w
 12178  17B4  0D5D               	rrf	(??___fladd+0)+3,f
 12179  17B5  0CDD               	rrf	(??___fladd+0)+2,f
 12180  17B6  0CDC               	rrf	(??___fladd+0)+1,f
 12181  17B7  0CDB               	rrf	(??___fladd+0)+0,f
 12182  17B8  0CDA               u3590:
 12183  17B9                     	decfsz	(??___fladd+4)+0,f
 12184  17B9  0BDE               	goto	u3595
 12185  17BA  2FB4               	movf	3+(??___fladd+0)+0,w
 12186  17BB  085D               	movwf	(___fladd@b+3)
 12187  17BC  00D5               	movf	2+(??___fladd+0)+0,w
 12188  17BD  085C               	movwf	(___fladd@b+2)
 12189  17BE  00D4               	movf	1+(??___fladd+0)+0,w
 12190  17BF  085B               	movwf	(___fladd@b+1)
 12191  17C0  00D3               	movf	0+(??___fladd+0)+0,w
 12192  17C1  085A               	movwf	(___fladd@b)
 12193  17C2  00D2               
 12194                           	line	207
 12195                           		incf	((___fladd@bexp)),w
 12196  17C3  0A68               	btfsc	status,2
 12197  17C4  1903               	goto	u3601
 12198  17C5  2FC7               	goto	u3600
 12199  17C6  2FC8               u3601:
 12200  17C7                     	goto	l627
 12201  17C7  2FCE               u3600:
 12202  17C8                     	line	208
 12203                           	
 12204                           l2449:	
 12205  17C8                     	movlw	low(01h)
 12206  17C8  3001               	movwf	(??___fladd+0)+0
 12207  17C9  00DA               	movf	(??___fladd+0)+0,w
 12208  17CA  085A               	addwf	(___fladd@bexp),f
 12209  17CB  07E8               	goto	l627
 12210  17CC  2FCE               	line	209
 12211                           	
 12212                           l629:	
 12213  17CD                     	goto	l627
 12214  17CD  2FCE               	line	210
 12215                           	
 12216                           l628:	
 12217  17CE                     	line	211
 12218                           	
 12219                           l627:	
 12220  17CE                     	line	215
 12221                           		incf	((___fladd@bexp)),w
 12222  17CE  0A68               	btfsc	status,2
 12223  17CF  1903               	goto	u3611
 12224  17D0  2FD2               	goto	u3610
 12225  17D1  2FD3               u3611:
 12226  17D2                     	goto	l2453
 12227  17D2  2FD9               u3610:
 12228  17D3                     	
 12229                           l2451:	
 12230  17D3                     	movf	((___fladd@bexp)),w
 12231  17D3  0868               	btfss	status,2
 12232  17D4  1D03               	goto	u3621
 12233  17D5  2FD7               	goto	u3620
 12234  17D6  2FD8               u3621:
 12235  17D7                     	goto	l2459
 12236  17D7  2FE9               u3620:
 12237  17D8                     	goto	l2453
 12238  17D8  2FD9               	
 12239                           l632:	
 12240  17D9                     	line	216
 12241                           	
 12242                           l2453:	
 12243  17D9                     	movlw	high highword(0)
 12244  17D9  3000               	movwf	(___fladd@b+3)
 12245  17DA  00D5               	movlw	low highword(0)
 12246  17DB  3000               	movwf	(___fladd@b+2)
 12247  17DC  00D4               	movlw	high(0)
 12248  17DD  3000               	movwf	(___fladd@b+1)
 12249  17DE  00D3               	movlw	low(0)
 12250  17DF  3000               	movwf	(___fladd@b)
 12251  17E0  00D2               
 12252                           	line	218
 12253                           	
 12254                           l2455:	
 12255  17E1                     	movf	((___fladd@bexp)),w
 12256  17E1  0868               	btfss	status,2
 12257  17E2  1D03               	goto	u3631
 12258  17E3  2FE5               	goto	u3630
 12259  17E4  2FE6               u3631:
 12260  17E5                     	goto	l2459
 12261  17E5  2FE9               u3630:
 12262  17E6                     	line	219
 12263                           	
 12264                           l2457:	
 12265  17E6                     	clrf	(___fladd@signs)
 12266  17E6  01E6               	goto	l2459
 12267  17E7  2FE9               	line	220
 12268                           	
 12269                           l633:	
 12270  17E8                     	goto	l2459
 12271  17E8  2FE9               	line	221
 12272                           	
 12273                           l630:	
 12274  17E9                     	line	225
 12275                           	
 12276                           l2459:	
 12277  17E9                     	btfss	(___fladd@bexp),(0)&7
 12278  17E9  1C68               	goto	u3641
 12279  17EA  2FEC               	goto	u3640
 12280  17EB  2FED               u3641:
 12281  17EC                     	goto	l2463
 12282  17EC  2FEF               u3640:
 12283  17ED                     	line	226
 12284                           	
 12285                           l2461:	
 12286  17ED                     	bsf	0+(___fladd@b)+02h+(7/8),(7)&7
 12287  17ED  17D4               	line	227
 12288                           	goto	l635
 12289  17EE  2FF3               	line	229
 12290                           	
 12291                           l634:	
 12292  17EF                     	line	230
 12293                           	
 12294                           l2463:	
 12295  17EF                     	movlw	low(07Fh)
 12296  17EF  307F               	movwf	(??___fladd+0)+0
 12297  17F0  00DA               	movf	(??___fladd+0)+0,w
 12298  17F1  085A               	andwf	0+(___fladd@b)+02h,f
 12299  17F2  05D4               	line	231
 12300                           	
 12301                           l635:	
 12302  17F3                     	line	232
 12303                           	movf	(___fladd@bexp),w
 12304  17F3  0868               	movwf	(??___fladd+0)+0
 12305  17F4  00DA               	clrc
 12306  17F5  1003               	rrf	(??___fladd+0)+0,w
 12307  17F6  0C5A               	movwf	(??___fladd+1)+0
 12308  17F7  00DB               	movf	(??___fladd+1)+0,w
 12309  17F8  085B               	movwf	0+(___fladd@b)+03h
 12310  17F9  00D5               	line	233
 12311                           	
 12312                           l2465:	
 12313  17FA                     	btfss	(___fladd@signs),(7)&7
 12314  17FA  1FE6               	goto	u3651
 12315  17FB  2FFD               	goto	u3650
 12316  17FC  2FFE               u3651:
 12317  17FD                     	goto	l636
 12318  17FD  2FFF               u3650:
 12319  17FE                     	line	234
 12320                           	
 12321                           l2467:	
 12322  17FE                     	bsf	0+(___fladd@b)+03h+(7/8),(7)&7
 12323  17FE  17D5               	line	235
 12324                           	
 12325                           l636:	
 12326  17FF                     	line	236
 12327                           	line	237
 12328                           	
 12329                           l606:	
 12330  17FF                     	return
 12331  17FF  0008               	opt stack 0
 12332                           GLOBAL	__end_of___fladd
 12333                           	__end_of___fladd:
 12334  1800                     	signat	___fladd,8316
 12335                           	global	___flneg
 12336                           
 12337 ;; *************** function ___flneg *****************
 12338 ;; Defined at:
 12339 ;;		line 15 in file "/opt/microchip/xc8/v2.00/pic/sources/c90/common/flneg.c"
 12340 ;; Parameters:    Size  Location     Type
 12341 ;;  f1              4    0[COMMON] unsigned char 
 12342 ;; Auto vars:     Size  Location     Type
 12343 ;;		None
 12344 ;; Return value:  Size  Location     Type
 12345 ;;                  4    0[COMMON] unsigned char 
 12346 ;; Registers used:
 12347 ;;		wreg
 12348 ;; Tracked objects:
 12349 ;;		On entry : 0/0
 12350 ;;		On exit  : 0/0
 12351 ;;		Unchanged: 0/0
 12352 ;; Data sizes:     COMMON   BANK0   BANK1   BANK3   BANK2
 12353 ;;      Params:         4       0       0       0       0
 12354 ;;      Locals:         0       0       0       0       0
 12355 ;;      Temps:          0       0       0       0       0
 12356 ;;      Totals:         4       0       0       0       0
 12357 ;;Total ram usage:        4 bytes
 12358 ;; Hardware stack levels used:    1
 12359 ;; This function calls:
 12360 ;;		Nothing
 12361 ;; This function is called by:
 12362 ;;		_printf
 12363 ;; This function uses a non-reentrant model
 12364 ;;
 12365                           psect	text21,local,class=CODE,delta=2,merge=1,group=1
 12366                           	file	"/opt/microchip/xc8/v2.00/pic/sources/c90/common/flneg.c"
 12367                           	line	15
 12368                           global __ptext21
 12369                           __ptext21:	;psect for function ___flneg
 12370  0003                     psect	text21
 12371                           	file	"/opt/microchip/xc8/v2.00/pic/sources/c90/common/flneg.c"
 12372                           	line	15
 12373                           	global	__size_of___flneg
 12374                           	__size_of___flneg	equ	__end_of___flneg-___flneg
 12375  000D                     	
 12376                           ___flneg:	
 12377  0003                     ;incstack = 0
 12378                           	opt	stack 6
 12379                           ; Regs used in ___flneg: [wreg]
 12380                           	line	17
 12381                           	
 12382                           l2859:	
 12383  0003                     	movf	(___flneg@f1+3),w
 12384  0003  0873               	iorwf	(___flneg@f1+2),w
 12385  0004  0472               	iorwf	(___flneg@f1+1),w
 12386  0005  0471               	iorwf	(___flneg@f1),w
 12387  0006  0470               	skipnz
 12388  0007  1903               	goto	u4771
 12389  0008  280A               	goto	u4770
 12390  0009  280B               u4771:
 12391  000A                     	goto	l2863
 12392  000A  280E               u4770:
 12393  000B                     	line	18
 12394                           	
 12395                           l2861:	
 12396  000B                     	movlw	080h
 12397  000B  3080               	xorwf	(___flneg@f1+3),f
 12398  000C  06F3               	goto	l2863
 12399  000D  280E               	
 12400                           l464:	
 12401  000E                     	line	19
 12402                           	
 12403                           l2863:	
 12404  000E                     	goto	l465
 12405  000E  280F               	
 12406                           l2865:	
 12407  000F                     	line	20
 12408                           	
 12409                           l465:	
 12410  000F                     	return
 12411  000F  0008               	opt stack 0
 12412                           GLOBAL	__end_of___flneg
 12413                           	__end_of___flneg:
 12414  0010                     	signat	___flneg,4220
 12415                           	global	___flge
 12416                           
 12417 ;; *************** function ___flge *****************
 12418 ;; Defined at:
 12419 ;;		line 4 in file "/opt/microchip/xc8/v2.00/pic/sources/c90/common/flge.c"
 12420 ;; Parameters:    Size  Location     Type
 12421 ;;  ff1             4    0[COMMON] unsigned char 
 12422 ;;  ff2             4    4[COMMON] unsigned char 
 12423 ;; Auto vars:     Size  Location     Type
 12424 ;;		None
 12425 ;; Return value:  Size  Location     Type
 12426 ;;		None               void
 12427 ;; Registers used:
 12428 ;;		wreg, status,2, status,0
 12429 ;; Tracked objects:
 12430 ;;		On entry : 0/0
 12431 ;;		On exit  : 0/0
 12432 ;;		Unchanged: 0/0
 12433 ;; Data sizes:     COMMON   BANK0   BANK1   BANK3   BANK2
 12434 ;;      Params:         8       0       0       0       0
 12435 ;;      Locals:         0       0       0       0       0
 12436 ;;      Temps:          0       8       0       0       0
 12437 ;;      Totals:         8       8       0       0       0
 12438 ;;Total ram usage:       16 bytes
 12439 ;; Hardware stack levels used:    1
 12440 ;; This function calls:
 12441 ;;		Nothing
 12442 ;; This function is called by:
 12443 ;;		_printf
 12444 ;; This function uses a non-reentrant model
 12445 ;;
 12446                           psect	text22,local,class=CODE,delta=2,merge=1,group=1
 12447                           	file	"/opt/microchip/xc8/v2.00/pic/sources/c90/common/flge.c"
 12448                           	line	4
 12449                           global __ptext22
 12450                           __ptext22:	;psect for function ___flge
 12451  1E5C                     psect	text22
 12452                           	file	"/opt/microchip/xc8/v2.00/pic/sources/c90/common/flge.c"
 12453                           	line	4
 12454                           	global	__size_of___flge
 12455                           	__size_of___flge	equ	__end_of___flge-___flge
 12456  00C3                     	
 12457                           ___flge:	
 12458  1E5C                     ;incstack = 0
 12459                           	opt	stack 6
 12460                           ; Regs used in ___flge: [wreg+status,2+status,0]
 12461                           	line	7
 12462                           	
 12463                           l2833:	
 12464  1E5C                     	movlw	0
 12465  1E5C  3000               	andwf	(___flge@ff1),w
 12466  1E5D  0570               	bcf	status, 5	;RP0=0, select bank0
 12467  1E5E  1283               	bcf	status, 6	;RP1=0, select bank0
 12468  1E5F  1303               	movwf	(??___flge+0)+0
 12469  1E60  00A0               	movlw	0
 12470  1E61  3000               	andwf	(___flge@ff1+1),w
 12471  1E62  0571               	movwf	((??___flge+0)+0+1)
 12472  1E63  00A1               	movlw	080h
 12473  1E64  3080               	andwf	(___flge@ff1+2),w
 12474  1E65  0572               	movwf	((??___flge+0)+0+2)
 12475  1E66  00A2               	movlw	07Fh
 12476  1E67  307F               	andwf	(___flge@ff1+3),w
 12477  1E68  0573               	movwf	((??___flge+0)+0+3)
 12478  1E69  00A3               	movf	3+(??___flge+0)+0,w
 12479  1E6A  0823               	iorwf	2+(??___flge+0)+0,w
 12480  1E6B  0422               	iorwf	1+(??___flge+0)+0,w
 12481  1E6C  0421               	iorwf	0+(??___flge+0)+0,w
 12482  1E6D  0420               	skipz
 12483  1E6E  1D03               	goto	u4701
 12484  1E6F  2E71               	goto	u4700
 12485  1E70  2E72               u4701:
 12486  1E71                     	goto	l457
 12487  1E71  2E7A               u4700:
 12488  1E72                     	line	8
 12489                           	
 12490                           l2835:	
 12491  1E72                     	movlw	high highword(0)
 12492  1E72  3000               	movwf	(___flge@ff1+3)
 12493  1E73  00F3               	movlw	low highword(0)
 12494  1E74  3000               	movwf	(___flge@ff1+2)
 12495  1E75  00F2               	movlw	high(0)
 12496  1E76  3000               	movwf	(___flge@ff1+1)
 12497  1E77  00F1               	movlw	low(0)
 12498  1E78  3000               	movwf	(___flge@ff1)
 12499  1E79  00F0               
 12500                           	
 12501                           l457:	
 12502  1E7A                     	line	9
 12503                           	movlw	0
 12504  1E7A  3000               	andwf	(___flge@ff2),w
 12505  1E7B  0574               	movwf	(??___flge+0)+0
 12506  1E7C  00A0               	movlw	0
 12507  1E7D  3000               	andwf	(___flge@ff2+1),w
 12508  1E7E  0575               	movwf	((??___flge+0)+0+1)
 12509  1E7F  00A1               	movlw	080h
 12510  1E80  3080               	andwf	(___flge@ff2+2),w
 12511  1E81  0576               	movwf	((??___flge+0)+0+2)
 12512  1E82  00A2               	movlw	07Fh
 12513  1E83  307F               	andwf	(___flge@ff2+3),w
 12514  1E84  0577               	movwf	((??___flge+0)+0+3)
 12515  1E85  00A3               	movf	3+(??___flge+0)+0,w
 12516  1E86  0823               	iorwf	2+(??___flge+0)+0,w
 12517  1E87  0422               	iorwf	1+(??___flge+0)+0,w
 12518  1E88  0421               	iorwf	0+(??___flge+0)+0,w
 12519  1E89  0420               	skipz
 12520  1E8A  1D03               	goto	u4711
 12521  1E8B  2E8D               	goto	u4710
 12522  1E8C  2E8E               u4711:
 12523  1E8D                     	goto	l2839
 12524  1E8D  2E97               u4710:
 12525  1E8E                     	line	10
 12526                           	
 12527                           l2837:	
 12528  1E8E                     	movlw	high highword(0)
 12529  1E8E  3000               	movwf	(___flge@ff2+3)
 12530  1E8F  00F7               	movlw	low highword(0)
 12531  1E90  3000               	movwf	(___flge@ff2+2)
 12532  1E91  00F6               	movlw	high(0)
 12533  1E92  3000               	movwf	(___flge@ff2+1)
 12534  1E93  00F5               	movlw	low(0)
 12535  1E94  3000               	movwf	(___flge@ff2)
 12536  1E95  00F4               
 12537                           	goto	l2839
 12538  1E96  2E97               	
 12539                           l458:	
 12540  1E97                     	line	12
 12541                           	
 12542                           l2839:	
 12543  1E97                     	btfss	(___flge@ff1+3),(31)&7
 12544  1E97  1FF3               	goto	u4721
 12545  1E98  2E9A               	goto	u4720
 12546  1E99  2E9B               u4721:
 12547  1E9A                     	goto	l2843
 12548  1E9A  2ECD               u4720:
 12549  1E9B                     	line	13
 12550                           	
 12551                           l2841:	
 12552  1E9B                     	movlw	0
 12553  1E9B  3000               	movwf	((??___flge+0)+0)
 12554  1E9C  00A0               	movlw	0
 12555  1E9D  3000               	movwf	((??___flge+0)+0+1)
 12556  1E9E  00A1               	movlw	0
 12557  1E9F  3000               	movwf	((??___flge+0)+0+2)
 12558  1EA0  00A2               	movlw	080h
 12559  1EA1  3080               	movwf	((??___flge+0)+0+3)
 12560  1EA2  00A3               	comf	(___flge@ff1),w
 12561  1EA3  0970               	movwf	(??___flge+4)+0
 12562  1EA4  00A4               	comf	(___flge@ff1+1),w
 12563  1EA5  0971               	movwf	((??___flge+4)+0+1)
 12564  1EA6  00A5               	comf	(___flge@ff1+2),w
 12565  1EA7  0972               	movwf	((??___flge+4)+0+2)
 12566  1EA8  00A6               	comf	(___flge@ff1+3),w
 12567  1EA9  0973               	movwf	((??___flge+4)+0+3)
 12568  1EAA  00A7               	incf	(??___flge+4)+0,f
 12569  1EAB  0AA4               	skipnz
 12570  1EAC  1903               	incf	((??___flge+4)+0+1),f
 12571  1EAD  0AA5               	skipnz
 12572  1EAE  1903               	incf	((??___flge+4)+0+2),f
 12573  1EAF  0AA6               	skipnz
 12574  1EB0  1903               	incf	((??___flge+4)+0+3),f
 12575  1EB1  0AA7               	movf	0+(??___flge+4)+0,w
 12576  1EB2  0824               	addwf	(??___flge+0)+0,f
 12577  1EB3  07A0               	movf	1+(??___flge+4)+0,w
 12578  1EB4  0825               	skipnc
 12579  1EB5  1803               	incfsz	1+(??___flge+4)+0,w
 12580  1EB6  0F25               	goto	u4730
 12581  1EB7  2EB9               	goto	u4731
 12582  1EB8  2EBA               u4730:
 12583  1EB9                     	addwf	(??___flge+0)+1,f
 12584  1EB9  07A1               u4731:
 12585  1EBA                     	movf	2+(??___flge+4)+0,w
 12586  1EBA  0826               	skipnc
 12587  1EBB  1803               	incfsz	2+(??___flge+4)+0,w
 12588  1EBC  0F26               	goto	u4732
 12589  1EBD  2EBF               	goto	u4733
 12590  1EBE  2EC0               u4732:
 12591  1EBF                     	addwf	(??___flge+0)+2,f
 12592  1EBF  07A2               u4733:
 12593  1EC0                     	movf	3+(??___flge+4)+0,w
 12594  1EC0  0827               	skipnc
 12595  1EC1  1803               	incf	3+(??___flge+4)+0,w
 12596  1EC2  0A27               	addwf	(??___flge+0)+3,f
 12597  1EC3  07A3               	movf	3+(??___flge+0)+0,w
 12598  1EC4  0823               	movwf	(___flge@ff1+3)
 12599  1EC5  00F3               	movf	2+(??___flge+0)+0,w
 12600  1EC6  0822               	movwf	(___flge@ff1+2)
 12601  1EC7  00F2               	movf	1+(??___flge+0)+0,w
 12602  1EC8  0821               	movwf	(___flge@ff1+1)
 12603  1EC9  00F1               	movf	0+(??___flge+0)+0,w
 12604  1ECA  0820               	movwf	(___flge@ff1)
 12605  1ECB  00F0               
 12606                           	goto	l2843
 12607  1ECC  2ECD               	
 12608                           l459:	
 12609  1ECD                     	line	14
 12610                           	
 12611                           l2843:	
 12612  1ECD                     	btfss	(___flge@ff2+3),(31)&7
 12613  1ECD  1FF7               	goto	u4741
 12614  1ECE  2ED0               	goto	u4740
 12615  1ECF  2ED1               u4741:
 12616  1ED0                     	goto	l2847
 12617  1ED0  2F03               u4740:
 12618  1ED1                     	line	15
 12619                           	
 12620                           l2845:	
 12621  1ED1                     	movlw	0
 12622  1ED1  3000               	movwf	((??___flge+0)+0)
 12623  1ED2  00A0               	movlw	0
 12624  1ED3  3000               	movwf	((??___flge+0)+0+1)
 12625  1ED4  00A1               	movlw	0
 12626  1ED5  3000               	movwf	((??___flge+0)+0+2)
 12627  1ED6  00A2               	movlw	080h
 12628  1ED7  3080               	movwf	((??___flge+0)+0+3)
 12629  1ED8  00A3               	comf	(___flge@ff2),w
 12630  1ED9  0974               	movwf	(??___flge+4)+0
 12631  1EDA  00A4               	comf	(___flge@ff2+1),w
 12632  1EDB  0975               	movwf	((??___flge+4)+0+1)
 12633  1EDC  00A5               	comf	(___flge@ff2+2),w
 12634  1EDD  0976               	movwf	((??___flge+4)+0+2)
 12635  1EDE  00A6               	comf	(___flge@ff2+3),w
 12636  1EDF  0977               	movwf	((??___flge+4)+0+3)
 12637  1EE0  00A7               	incf	(??___flge+4)+0,f
 12638  1EE1  0AA4               	skipnz
 12639  1EE2  1903               	incf	((??___flge+4)+0+1),f
 12640  1EE3  0AA5               	skipnz
 12641  1EE4  1903               	incf	((??___flge+4)+0+2),f
 12642  1EE5  0AA6               	skipnz
 12643  1EE6  1903               	incf	((??___flge+4)+0+3),f
 12644  1EE7  0AA7               	movf	0+(??___flge+4)+0,w
 12645  1EE8  0824               	addwf	(??___flge+0)+0,f
 12646  1EE9  07A0               	movf	1+(??___flge+4)+0,w
 12647  1EEA  0825               	skipnc
 12648  1EEB  1803               	incfsz	1+(??___flge+4)+0,w
 12649  1EEC  0F25               	goto	u4750
 12650  1EED  2EEF               	goto	u4751
 12651  1EEE  2EF0               u4750:
 12652  1EEF                     	addwf	(??___flge+0)+1,f
 12653  1EEF  07A1               u4751:
 12654  1EF0                     	movf	2+(??___flge+4)+0,w
 12655  1EF0  0826               	skipnc
 12656  1EF1  1803               	incfsz	2+(??___flge+4)+0,w
 12657  1EF2  0F26               	goto	u4752
 12658  1EF3  2EF5               	goto	u4753
 12659  1EF4  2EF6               u4752:
 12660  1EF5                     	addwf	(??___flge+0)+2,f
 12661  1EF5  07A2               u4753:
 12662  1EF6                     	movf	3+(??___flge+4)+0,w
 12663  1EF6  0827               	skipnc
 12664  1EF7  1803               	incf	3+(??___flge+4)+0,w
 12665  1EF8  0A27               	addwf	(??___flge+0)+3,f
 12666  1EF9  07A3               	movf	3+(??___flge+0)+0,w
 12667  1EFA  0823               	movwf	(___flge@ff2+3)
 12668  1EFB  00F7               	movf	2+(??___flge+0)+0,w
 12669  1EFC  0822               	movwf	(___flge@ff2+2)
 12670  1EFD  00F6               	movf	1+(??___flge+0)+0,w
 12671  1EFE  0821               	movwf	(___flge@ff2+1)
 12672  1EFF  00F5               	movf	0+(??___flge+0)+0,w
 12673  1F00  0820               	movwf	(___flge@ff2)
 12674  1F01  00F4               
 12675                           	goto	l2847
 12676  1F02  2F03               	
 12677                           l460:	
 12678  1F03                     	line	16
 12679                           	
 12680                           l2847:	
 12681  1F03                     	movlw	080h
 12682  1F03  3080               	xorwf	(___flge@ff1+3),f
 12683  1F04  06F3               	line	17
 12684                           	
 12685                           l2849:	
 12686  1F05                     	movlw	080h
 12687  1F05  3080               	xorwf	(___flge@ff2+3),f
 12688  1F06  06F7               	line	18
 12689                           	
 12690                           l2851:	
 12691  1F07                     	movf	(___flge@ff2+3),w
 12692  1F07  0877               	subwf	(___flge@ff1+3),w
 12693  1F08  0273               	skipz
 12694  1F09  1D03               	goto	u4765
 12695  1F0A  2F15               	movf	(___flge@ff2+2),w
 12696  1F0B  0876               	subwf	(___flge@ff1+2),w
 12697  1F0C  0272               	skipz
 12698  1F0D  1D03               	goto	u4765
 12699  1F0E  2F15               	movf	(___flge@ff2+1),w
 12700  1F0F  0875               	subwf	(___flge@ff1+1),w
 12701  1F10  0271               	skipz
 12702  1F11  1D03               	goto	u4765
 12703  1F12  2F15               	movf	(___flge@ff2),w
 12704  1F13  0874               	subwf	(___flge@ff1),w
 12705  1F14  0270               u4765:
 12706  1F15                     	skipnc
 12707  1F15  1803               	goto	u4761
 12708  1F16  2F18               	goto	u4760
 12709  1F17  2F19               u4761:
 12710  1F18                     	goto	l2855
 12711  1F18  2F1B               u4760:
 12712  1F19                     	
 12713                           l2853:	
 12714  1F19                     	clrc
 12715  1F19  1003               	
 12716                           	goto	l461
 12717  1F1A  2F1E               	
 12718                           l2127:	
 12719  1F1B                     	
 12720                           l2855:	
 12721  1F1B                     	setc
 12722  1F1B  1403               	
 12723                           	goto	l461
 12724  1F1C  2F1E               	
 12725                           l2129:	
 12726  1F1D                     	goto	l461
 12727  1F1D  2F1E               	
 12728                           l2857:	
 12729  1F1E                     	line	19
 12730                           	
 12731                           l461:	
 12732  1F1E                     	return
 12733  1F1E  0008               	opt stack 0
 12734                           GLOBAL	__end_of___flge
 12735                           	__end_of___flge:
 12736  1F1F                     	signat	___flge,8312
 12737                           	global	___fleq
 12738                           
 12739 ;; *************** function ___fleq *****************
 12740 ;; Defined at:
 12741 ;;		line 4 in file "/opt/microchip/xc8/v2.00/pic/sources/c90/common/fleq.c"
 12742 ;; Parameters:    Size  Location     Type
 12743 ;;  ff1             4    0[COMMON] unsigned char 
 12744 ;;  ff2             4    4[COMMON] unsigned char 
 12745 ;; Auto vars:     Size  Location     Type
 12746 ;;		None
 12747 ;; Return value:  Size  Location     Type
 12748 ;;		None               void
 12749 ;; Registers used:
 12750 ;;		wreg, status,2, status,0
 12751 ;; Tracked objects:
 12752 ;;		On entry : 0/0
 12753 ;;		On exit  : 0/0
 12754 ;;		Unchanged: 0/0
 12755 ;; Data sizes:     COMMON   BANK0   BANK1   BANK3   BANK2
 12756 ;;      Params:         8       0       0       0       0
 12757 ;;      Locals:         0       0       0       0       0
 12758 ;;      Temps:          4       0       0       0       0
 12759 ;;      Totals:        12       0       0       0       0
 12760 ;;Total ram usage:       12 bytes
 12761 ;; Hardware stack levels used:    1
 12762 ;; This function calls:
 12763 ;;		Nothing
 12764 ;; This function is called by:
 12765 ;;		_printf
 12766 ;; This function uses a non-reentrant model
 12767 ;;
 12768                           psect	text23,local,class=CODE,delta=2,merge=1,group=1
 12769                           	file	"/opt/microchip/xc8/v2.00/pic/sources/c90/common/fleq.c"
 12770                           	line	4
 12771                           global __ptext23
 12772                           __ptext23:	;psect for function ___fleq
 12773  1BCE                     psect	text23
 12774                           	file	"/opt/microchip/xc8/v2.00/pic/sources/c90/common/fleq.c"
 12775                           	line	4
 12776                           	global	__size_of___fleq
 12777                           	__size_of___fleq	equ	__end_of___fleq-___fleq
 12778  0050                     	
 12779                           ___fleq:	
 12780  1BCE                     ;incstack = 0
 12781                           	opt	stack 6
 12782                           ; Regs used in ___fleq: [wreg+status,2+status,0]
 12783                           	line	7
 12784                           	
 12785                           l2821:	
 12786  1BCE                     	movlw	0
 12787  1BCE  3000               	andwf	(___fleq@ff1),w
 12788  1BCF  0570               	movwf	(??___fleq+0)+0
 12789  1BD0  00F8               	movlw	0
 12790  1BD1  3000               	andwf	(___fleq@ff1+1),w
 12791  1BD2  0571               	movwf	((??___fleq+0)+0+1)
 12792  1BD3  00F9               	movlw	080h
 12793  1BD4  3080               	andwf	(___fleq@ff1+2),w
 12794  1BD5  0572               	movwf	((??___fleq+0)+0+2)
 12795  1BD6  00FA               	movlw	07Fh
 12796  1BD7  307F               	andwf	(___fleq@ff1+3),w
 12797  1BD8  0573               	movwf	((??___fleq+0)+0+3)
 12798  1BD9  00FB               	movf	3+(??___fleq+0)+0,w
 12799  1BDA  087B               	iorwf	2+(??___fleq+0)+0,w
 12800  1BDB  047A               	iorwf	1+(??___fleq+0)+0,w
 12801  1BDC  0479               	iorwf	0+(??___fleq+0)+0,w
 12802  1BDD  0478               	skipz
 12803  1BDE  1D03               	goto	u4671
 12804  1BDF  2BE1               	goto	u4670
 12805  1BE0  2BE2               u4671:
 12806  1BE1                     	goto	l452
 12807  1BE1  2BEA               u4670:
 12808  1BE2                     	line	8
 12809                           	
 12810                           l2823:	
 12811  1BE2                     	movlw	high highword(0)
 12812  1BE2  3000               	movwf	(___fleq@ff1+3)
 12813  1BE3  00F3               	movlw	low highword(0)
 12814  1BE4  3000               	movwf	(___fleq@ff1+2)
 12815  1BE5  00F2               	movlw	high(0)
 12816  1BE6  3000               	movwf	(___fleq@ff1+1)
 12817  1BE7  00F1               	movlw	low(0)
 12818  1BE8  3000               	movwf	(___fleq@ff1)
 12819  1BE9  00F0               
 12820                           	
 12821                           l452:	
 12822  1BEA                     	line	9
 12823                           	movlw	0
 12824  1BEA  3000               	andwf	(___fleq@ff2),w
 12825  1BEB  0574               	movwf	(??___fleq+0)+0
 12826  1BEC  00F8               	movlw	0
 12827  1BED  3000               	andwf	(___fleq@ff2+1),w
 12828  1BEE  0575               	movwf	((??___fleq+0)+0+1)
 12829  1BEF  00F9               	movlw	080h
 12830  1BF0  3080               	andwf	(___fleq@ff2+2),w
 12831  1BF1  0576               	movwf	((??___fleq+0)+0+2)
 12832  1BF2  00FA               	movlw	07Fh
 12833  1BF3  307F               	andwf	(___fleq@ff2+3),w
 12834  1BF4  0577               	movwf	((??___fleq+0)+0+3)
 12835  1BF5  00FB               	movf	3+(??___fleq+0)+0,w
 12836  1BF6  087B               	iorwf	2+(??___fleq+0)+0,w
 12837  1BF7  047A               	iorwf	1+(??___fleq+0)+0,w
 12838  1BF8  0479               	iorwf	0+(??___fleq+0)+0,w
 12839  1BF9  0478               	skipz
 12840  1BFA  1D03               	goto	u4681
 12841  1BFB  2BFD               	goto	u4680
 12842  1BFC  2BFE               u4681:
 12843  1BFD                     	goto	l453
 12844  1BFD  2C06               u4680:
 12845  1BFE                     	line	10
 12846                           	
 12847                           l2825:	
 12848  1BFE                     	movlw	high highword(0)
 12849  1BFE  3000               	movwf	(___fleq@ff2+3)
 12850  1BFF  00F7               	movlw	low highword(0)
 12851  1C00  3000               	movwf	(___fleq@ff2+2)
 12852  1C01  00F6               	movlw	high(0)
 12853  1C02  3000               	movwf	(___fleq@ff2+1)
 12854  1C03  00F5               	movlw	low(0)
 12855  1C04  3000               	movwf	(___fleq@ff2)
 12856  1C05  00F4               
 12857                           	
 12858                           l453:	
 12859  1C06                     	line	11
 12860                           	movf	(___fleq@ff2+3),w
 12861  1C06  0877               	xorwf	(___fleq@ff1+3),w
 12862  1C07  0673               	skipz
 12863  1C08  1D03               	goto	u4695
 12864  1C09  2C14               	movf	(___fleq@ff2+2),w
 12865  1C0A  0876               	xorwf	(___fleq@ff1+2),w
 12866  1C0B  0672               	skipz
 12867  1C0C  1D03               	goto	u4695
 12868  1C0D  2C14               	movf	(___fleq@ff2+1),w
 12869  1C0E  0875               	xorwf	(___fleq@ff1+1),w
 12870  1C0F  0671               	skipz
 12871  1C10  1D03               	goto	u4695
 12872  1C11  2C14               	movf	(___fleq@ff2),w
 12873  1C12  0874               	xorwf	(___fleq@ff1),w
 12874  1C13  0670               u4695:
 12875  1C14                     	skipnz
 12876  1C14  1903               	goto	u4691
 12877  1C15  2C17               	goto	u4690
 12878  1C16  2C18               u4691:
 12879  1C17                     	goto	l2829
 12880  1C17  2C1A               u4690:
 12881  1C18                     	
 12882                           l2827:	
 12883  1C18                     	clrc
 12884  1C18  1003               	
 12885                           	goto	l454
 12886  1C19  2C1D               	
 12887                           l2123:	
 12888  1C1A                     	
 12889                           l2829:	
 12890  1C1A                     	setc
 12891  1C1A  1403               	
 12892                           	goto	l454
 12893  1C1B  2C1D               	
 12894                           l2125:	
 12895  1C1C                     	goto	l454
 12896  1C1C  2C1D               	
 12897                           l2831:	
 12898  1C1D                     	line	12
 12899                           	
 12900                           l454:	
 12901  1C1D                     	return
 12902  1C1D  0008               	opt stack 0
 12903                           GLOBAL	__end_of___fleq
 12904                           	__end_of___fleq:
 12905  1C1E                     	signat	___fleq,8312
 12906                           	global	_confBusLCD
 12907                           
 12908 ;; *************** function _confBusLCD *****************
 12909 ;; Defined at:
 12910 ;;		line 112 in file "adc.c"
 12911 ;; Parameters:    Size  Location     Type
 12912 ;;		None
 12913 ;; Auto vars:     Size  Location     Type
 12914 ;;  t               2    4[COMMON] int 
 12915 ;;  estado          2    2[COMMON] int 
 12916 ;; Return value:  Size  Location     Type
 12917 ;;                  1    wreg      void 
 12918 ;; Registers used:
 12919 ;;		wreg, status,2, status,0
 12920 ;; Tracked objects:
 12921 ;;		On entry : 0/0
 12922 ;;		On exit  : 0/0
 12923 ;;		Unchanged: 0/0
 12924 ;; Data sizes:     COMMON   BANK0   BANK1   BANK3   BANK2
 12925 ;;      Params:         0       0       0       0       0
 12926 ;;      Locals:         4       0       0       0       0
 12927 ;;      Temps:          2       0       0       0       0
 12928 ;;      Totals:         6       0       0       0       0
 12929 ;;Total ram usage:        6 bytes
 12930 ;; Hardware stack levels used:    1
 12931 ;; This function calls:
 12932 ;;		Nothing
 12933 ;; This function is called by:
 12934 ;;		_main
 12935 ;; This function uses a non-reentrant model
 12936 ;;
 12937                           psect	text24,local,class=CODE,delta=2,merge=1,group=0
 12938                           	file	"adc.c"
 12939                           	line	112
 12940                           global __ptext24
 12941                           __ptext24:	;psect for function _confBusLCD
 12942  1AC9                     psect	text24
 12943                           	file	"adc.c"
 12944                           	line	112
 12945                           	global	__size_of_confBusLCD
 12946                           	__size_of_confBusLCD	equ	__end_of_confBusLCD-_confBusLCD
 12947  0031                     	
 12948                           _confBusLCD:	
 12949  1AC9                     ;incstack = 0
 12950                           	opt	stack 7
 12951                           ; Regs used in _confBusLCD: [wreg+status,2+status,0]
 12952                           	line	116
 12953                           	
 12954                           l2973:	
 12955  1AC9                     ;adc.c: 113:     int t, estado;;adc.c: 116:     PORTEbits.RE0=0; t=0;
 12956                           	bcf	status, 5	;RP0=0, select bank0
 12957  1AC9  1283               	bcf	status, 6	;RP1=0, select bank0
 12958  1ACA  1303               	bcf	(9),0	;volatile
 12959  1ACB  1009               	
 12960                           l2975:	
 12961  1ACC                     	clrf	(confBusLCD@t)
 12962  1ACC  01F4               	clrf	(confBusLCD@t+1)
 12963  1ACD  01F5               	line	117
 12964                           	
 12965                           l2977:	
 12966  1ACE                     ;adc.c: 117:     PORTEbits.RE1=1; t=0;
 12967                           	bsf	(9),1	;volatile
 12968  1ACE  1489               	clrf	(confBusLCD@t)
 12969  1ACF  01F4               	clrf	(confBusLCD@t+1)
 12970  1AD0  01F5               	goto	l2979
 12971  1AD1  2AD2               	line	118
 12972                           ;adc.c: 118:     do {
 12973                           	
 12974                           l42:	
 12975  1AD2                     	line	119
 12976                           	
 12977                           l2979:	
 12978  1AD2                     ;adc.c: 119:         PORTEbits.RE2=1; t=0;
 12979                           	bsf	(9),2	;volatile
 12980  1AD2  1509               	clrf	(confBusLCD@t)
 12981  1AD3  01F4               	clrf	(confBusLCD@t+1)
 12982  1AD4  01F5               	line	120
 12983                           	
 12984                           l2981:	
 12985  1AD5                     ;adc.c: 120:         estado=(PORTD&0x80);
 12986                           	movf	(8),w	;volatile
 12987  1AD5  0808               	andlw	080h
 12988  1AD6  3980               	movwf	(??_confBusLCD+0)+0
 12989  1AD7  00F0               	clrf	(??_confBusLCD+0)+0+1
 12990  1AD8  01F1               	movf	0+(??_confBusLCD+0)+0,w
 12991  1AD9  0870               	movwf	(confBusLCD@estado)
 12992  1ADA  00F2               	movf	1+(??_confBusLCD+0)+0,w
 12993  1ADB  0871               	movwf	(confBusLCD@estado+1)
 12994  1ADC  00F3               	line	121
 12995                           	
 12996                           l2983:	
 12997  1ADD                     ;adc.c: 121:         PORTEbits.RE2=0; t=0;
 12998                           	bcf	(9),2	;volatile
 12999  1ADD  1109               	
 13000                           l2985:	
 13001  1ADE                     	clrf	(confBusLCD@t)
 13002  1ADE  01F4               	clrf	(confBusLCD@t+1)
 13003  1ADF  01F5               	line	122
 13004                           	
 13005                           l2987:	
 13006  1AE0                     ;adc.c: 122:     } while (estado!=0);
 13007                           	movf	((confBusLCD@estado)),w
 13008  1AE0  0872               iorwf	((confBusLCD@estado+1)),w
 13009  1AE1  0473               	btfss	status,2
 13010  1AE2  1D03               	goto	u5081
 13011  1AE3  2AE5               	goto	u5080
 13012  1AE4  2AE6               u5081:
 13013  1AE5                     	goto	l2979
 13014  1AE5  2AD2               u5080:
 13015  1AE6                     	
 13016                           l43:	
 13017  1AE6                     	line	123
 13018                           ;adc.c: 123:     PORTEbits.RE1=0;
 13019                           	bcf	(9),1	;volatile
 13020  1AE6  1089               	line	124
 13021                           	
 13022                           l2989:	
 13023  1AE7                     ;adc.c: 124:     TRISD=0x0F;
 13024                           	movlw	low(0Fh)
 13025  1AE7  300F               	bsf	status, 5	;RP0=1, select bank1
 13026  1AE8  1683               	bcf	status, 6	;RP1=0, select bank1
 13027  1AE9  1303               	movwf	(136)^080h	;volatile
 13028  1AEA  0088               	line	125
 13029                           ;adc.c: 125:     PORTD=0x20;
 13030                           	movlw	low(020h)
 13031  1AEB  3020               	bcf	status, 5	;RP0=0, select bank0
 13032  1AEC  1283               	bcf	status, 6	;RP1=0, select bank0
 13033  1AED  1303               	movwf	(8)	;volatile
 13034  1AEE  0088               	line	126
 13035                           	
 13036                           l2991:	
 13037  1AEF                     ;adc.c: 126:     PORTEbits.RE2=1; t=0;
 13038                           	bsf	(9),2	;volatile
 13039  1AEF  1509               	
 13040                           l2993:	
 13041  1AF0                     	clrf	(confBusLCD@t)
 13042  1AF0  01F4               	clrf	(confBusLCD@t+1)
 13043  1AF1  01F5               	line	127
 13044                           	
 13045                           l2995:	
 13046  1AF2                     ;adc.c: 127:     PORTEbits.RE2=0; t=0;
 13047                           	bcf	(9),2	;volatile
 13048  1AF2  1109               	
 13049                           l2997:	
 13050  1AF3                     	clrf	(confBusLCD@t)
 13051  1AF3  01F4               	clrf	(confBusLCD@t+1)
 13052  1AF4  01F5               	line	128
 13053                           ;adc.c: 128:     TRISD=0xFF;
 13054                           	movlw	low(0FFh)
 13055  1AF5  30FF               	bsf	status, 5	;RP0=1, select bank1
 13056  1AF6  1683               	bcf	status, 6	;RP1=0, select bank1
 13057  1AF7  1303               	movwf	(136)^080h	;volatile
 13058  1AF8  0088               	line	129
 13059                           	
 13060                           l44:	
 13061  1AF9                     	return
 13062  1AF9  0008               	opt stack 0
 13063                           GLOBAL	__end_of_confBusLCD
 13064                           	__end_of_confBusLCD:
 13065  1AFA                     	signat	_confBusLCD,89
 13066                           	global	_comando
 13067                           
 13068 ;; *************** function _comando *****************
 13069 ;; Defined at:
 13070 ;;		line 131 in file "adc.c"
 13071 ;; Parameters:    Size  Location     Type
 13072 ;;  com             2    0[COMMON] unsigned int 
 13073 ;; Auto vars:     Size  Location     Type
 13074 ;;  t               2    6[COMMON] int 
 13075 ;;  estado          2    4[COMMON] int 
 13076 ;; Return value:  Size  Location     Type
 13077 ;;                  1    wreg      void 
 13078 ;; Registers used:
 13079 ;;		wreg, status,2, status,0
 13080 ;; Tracked objects:
 13081 ;;		On entry : 0/0
 13082 ;;		On exit  : 0/0
 13083 ;;		Unchanged: 0/0
 13084 ;; Data sizes:     COMMON   BANK0   BANK1   BANK3   BANK2
 13085 ;;      Params:         2       0       0       0       0
 13086 ;;      Locals:         4       0       0       0       0
 13087 ;;      Temps:          2       0       0       0       0
 13088 ;;      Totals:         8       0       0       0       0
 13089 ;;Total ram usage:        8 bytes
 13090 ;; Hardware stack levels used:    1
 13091 ;; This function calls:
 13092 ;;		Nothing
 13093 ;; This function is called by:
 13094 ;;		_main
 13095 ;; This function uses a non-reentrant model
 13096 ;;
 13097                           psect	text25,local,class=CODE,delta=2,merge=1,group=0
 13098                           	line	131
 13099                           global __ptext25
 13100                           __ptext25:	;psect for function _comando
 13101  1B3B                     psect	text25
 13102                           	file	"adc.c"
 13103                           	line	131
 13104                           	global	__size_of_comando
 13105                           	__size_of_comando	equ	__end_of_comando-_comando
 13106  0048                     	
 13107                           _comando:	
 13108  1B3B                     ;incstack = 0
 13109                           	opt	stack 7
 13110                           ; Regs used in _comando: [wreg+status,2+status,0]
 13111                           	line	135
 13112                           	
 13113                           l2999:	
 13114  1B3B                     ;adc.c: 132:     int t, estado;;adc.c: 135:     PORTEbits.RE0=0; t=0;
 13115                           	bcf	status, 5	;RP0=0, select bank0
 13116  1B3B  1283               	bcf	status, 6	;RP1=0, select bank0
 13117  1B3C  1303               	bcf	(9),0	;volatile
 13118  1B3D  1009               	
 13119                           l3001:	
 13120  1B3E                     	clrf	(comando@t)
 13121  1B3E  01F6               	clrf	(comando@t+1)
 13122  1B3F  01F7               	line	136
 13123                           	
 13124                           l3003:	
 13125  1B40                     ;adc.c: 136:     PORTEbits.RE1=1; t=0;
 13126                           	bsf	(9),1	;volatile
 13127  1B40  1489               	clrf	(comando@t)
 13128  1B41  01F6               	clrf	(comando@t+1)
 13129  1B42  01F7               	goto	l3005
 13130  1B43  2B44               	line	137
 13131                           ;adc.c: 137:     do {
 13132                           	
 13133                           l47:	
 13134  1B44                     	line	138
 13135                           	
 13136                           l3005:	
 13137  1B44                     ;adc.c: 138:         PORTEbits.RE2=1; t=0;
 13138                           	bsf	(9),2	;volatile
 13139  1B44  1509               	clrf	(comando@t)
 13140  1B45  01F6               	clrf	(comando@t+1)
 13141  1B46  01F7               	line	139
 13142                           	
 13143                           l3007:	
 13144  1B47                     ;adc.c: 139:         estado=(PORTD&0x80);
 13145                           	movf	(8),w	;volatile
 13146  1B47  0808               	andlw	080h
 13147  1B48  3980               	movwf	(??_comando+0)+0
 13148  1B49  00F2               	clrf	(??_comando+0)+0+1
 13149  1B4A  01F3               	movf	0+(??_comando+0)+0,w
 13150  1B4B  0872               	movwf	(comando@estado)
 13151  1B4C  00F4               	movf	1+(??_comando+0)+0,w
 13152  1B4D  0873               	movwf	(comando@estado+1)
 13153  1B4E  00F5               	line	140
 13154                           	
 13155                           l3009:	
 13156  1B4F                     ;adc.c: 140:         PORTEbits.RE2=0; t=0;
 13157                           	bcf	(9),2	;volatile
 13158  1B4F  1109               	
 13159                           l3011:	
 13160  1B50                     	clrf	(comando@t)
 13161  1B50  01F6               	clrf	(comando@t+1)
 13162  1B51  01F7               	line	141
 13163                           	
 13164                           l3013:	
 13165  1B52                     ;adc.c: 141:         PORTEbits.RE2=1; t=0;
 13166                           	bsf	(9),2	;volatile
 13167  1B52  1509               	
 13168                           l3015:	
 13169  1B53                     	clrf	(comando@t)
 13170  1B53  01F6               	clrf	(comando@t+1)
 13171  1B54  01F7               	line	142
 13172                           	
 13173                           l3017:	
 13174  1B55                     ;adc.c: 142:         PORTEbits.RE2=0; t=0;
 13175                           	bcf	(9),2	;volatile
 13176  1B55  1109               	
 13177                           l3019:	
 13178  1B56                     	clrf	(comando@t)
 13179  1B56  01F6               	clrf	(comando@t+1)
 13180  1B57  01F7               	line	143
 13181                           	
 13182                           l3021:	
 13183  1B58                     ;adc.c: 143:     } while (estado!=0);
 13184                           	movf	((comando@estado)),w
 13185  1B58  0874               iorwf	((comando@estado+1)),w
 13186  1B59  0475               	btfss	status,2
 13187  1B5A  1D03               	goto	u5091
 13188  1B5B  2B5D               	goto	u5090
 13189  1B5C  2B5E               u5091:
 13190  1B5D                     	goto	l3005
 13191  1B5D  2B44               u5090:
 13192  1B5E                     	
 13193                           l48:	
 13194  1B5E                     	line	144
 13195                           ;adc.c: 144:     PORTEbits.RE1=0;
 13196                           	bcf	(9),1	;volatile
 13197  1B5E  1089               	line	145
 13198                           	
 13199                           l3023:	
 13200  1B5F                     ;adc.c: 145:     TRISD=0x0F;
 13201                           	movlw	low(0Fh)
 13202  1B5F  300F               	bsf	status, 5	;RP0=1, select bank1
 13203  1B60  1683               	bcf	status, 6	;RP1=0, select bank1
 13204  1B61  1303               	movwf	(136)^080h	;volatile
 13205  1B62  0088               	line	146
 13206                           ;adc.c: 146:     PORTD=com;
 13207                           	movf	(comando@com),w
 13208  1B63  0870               	bcf	status, 5	;RP0=0, select bank0
 13209  1B64  1283               	bcf	status, 6	;RP1=0, select bank0
 13210  1B65  1303               	movwf	(8)	;volatile
 13211  1B66  0088               	line	147
 13212                           	
 13213                           l3025:	
 13214  1B67                     ;adc.c: 147:     PORTEbits.RE2=1; t=0;
 13215                           	bsf	(9),2	;volatile
 13216  1B67  1509               	
 13217                           l3027:	
 13218  1B68                     	clrf	(comando@t)
 13219  1B68  01F6               	clrf	(comando@t+1)
 13220  1B69  01F7               	line	148
 13221                           	
 13222                           l3029:	
 13223  1B6A                     ;adc.c: 148:     PORTEbits.RE2=0; t=0;
 13224                           	bcf	(9),2	;volatile
 13225  1B6A  1109               	
 13226                           l3031:	
 13227  1B6B                     	clrf	(comando@t)
 13228  1B6B  01F6               	clrf	(comando@t+1)
 13229  1B6C  01F7               	line	149
 13230                           	
 13231                           l3033:	
 13232  1B6D                     ;adc.c: 149:     PORTD=(com<<4);
 13233                           	movf	(comando@com),w
 13234  1B6D  0870               	movwf	(??_comando+0)+0
 13235  1B6E  00F2               	movlw	(04h)-1
 13236  1B6F  3003               u5105:
 13237  1B70                     	clrc
 13238  1B70  1003               	rlf	(??_comando+0)+0,f
 13239  1B71  0DF2               	addlw	-1
 13240  1B72  3EFF               	skipz
 13241  1B73  1D03               	goto	u5105
 13242  1B74  2B70               	clrc
 13243  1B75  1003               	rlf	(??_comando+0)+0,w
 13244  1B76  0D72               	movwf	(8)	;volatile
 13245  1B77  0088               	line	150
 13246                           	
 13247                           l3035:	
 13248  1B78                     ;adc.c: 150:     PORTEbits.RE2=1; t=0;
 13249                           	bsf	(9),2	;volatile
 13250  1B78  1509               	
 13251                           l3037:	
 13252  1B79                     	clrf	(comando@t)
 13253  1B79  01F6               	clrf	(comando@t+1)
 13254  1B7A  01F7               	line	151
 13255                           	
 13256                           l3039:	
 13257  1B7B                     ;adc.c: 151:     PORTEbits.RE2=0; t=0;
 13258                           	bcf	(9),2	;volatile
 13259  1B7B  1109               	
 13260                           l3041:	
 13261  1B7C                     	clrf	(comando@t)
 13262  1B7C  01F6               	clrf	(comando@t+1)
 13263  1B7D  01F7               	line	152
 13264                           	
 13265                           l3043:	
 13266  1B7E                     ;adc.c: 152:     TRISD=0xFF;
 13267                           	movlw	low(0FFh)
 13268  1B7E  30FF               	bsf	status, 5	;RP0=1, select bank1
 13269  1B7F  1683               	bcf	status, 6	;RP1=0, select bank1
 13270  1B80  1303               	movwf	(136)^080h	;volatile
 13271  1B81  0088               	line	153
 13272                           	
 13273                           l49:	
 13274  1B82                     	return
 13275  1B82  0008               	opt stack 0
 13276                           GLOBAL	__end_of_comando
 13277                           	__end_of_comando:
 13278  1B83                     	signat	_comando,4217
 13279                           global	___latbits
 13280                           ___latbits	equ	2
 13281  0002                     	global	btemp
 13282                           	btemp set 07Eh
 13283  007E                     
 13284                           	DABS	1,126,2	;btemp
 13285                           	global	wtemp0
 13286                           	wtemp0 set btemp+0
 13287  007E                     	end
 13288  0815                     


Data Sizes:
    Strings     29
    Constant    144
    Data        0
    BSS         0
    Persistent  0
    Stack       0

Auto Spaces:
    Space          Size  Autos    Used
    COMMON           14     14      14
    BANK0            80     78      78
    BANK1            80     52      52
    BANK3            96      0       0
    BANK2            96      0       0

Pointer List with Targets:

    printf@cp	PTR const unsigned char  size(2) Largest target is 13
		 -> STR_5(CODE[7]), ?_printf(BANK0[2]), STR_2(CODE[13]), 

    printf@f	PTR const unsigned char  size(1) Largest target is 6
		 -> STR_4(CODE[6]), STR_3(CODE[6]), STR_1(CODE[3]), 

    printf@ap	PTR void [1] size(1) Largest target is 2
		 -> ?_printf(BANK0[2]), 


Critical Paths under _main in COMMON

    _main->___xxtofl
    _printf->___lldiv
    _printf->___xxtofl
    ___awdiv->___awmod
    _fround->___lwdiv
    ___lwdiv->___lwmod
    ___flmul->___lwdiv
    ___flsub->___xxtofl
    ___fladd->___xxtofl

Critical Paths under _main in BANK0

    _main->_printf
    _printf->___fladd
    _scale->___flmul
    _fround->___flmul
    ___flmul->___awdiv
    ___fltol->_scale
    ___flsub->___fladd
    ___fladd->_fround

Critical Paths under _main in BANK1

    _main->_printf
    _printf->___flsub

Critical Paths under _main in BANK3

    None.

Critical Paths under _main in BANK2

    None.

Call Graph Tables:

 ---------------------------------------------------------------------------------
 (Depth) Function   	        Calls       Base Space   Used Autos Params    Refs
 ---------------------------------------------------------------------------------
 (0) _main                                                10    10      0   40881
                                             44 BANK1      8     8      0
                            ___fladd
                            ___flmul
                           ___xxtofl
                            _comando
                         _confBusLCD
                             _printf
 ---------------------------------------------------------------------------------
 (1) _printf                                              41    37      4   32518
                                             74 BANK0      4     0      4
                                              8 BANK1     36    36      0
                            ___awdiv
                            ___fladd
                             ___fleq
                             ___flge
                            ___flmul
                            ___flneg
                            ___flsub
                            ___fltol
                            ___lldiv
                            ___llmod
                             ___wmul
                           ___xxtofl
                         __div_to_l_
                        __tdiv_to_l_
                             _fround
                            _isdigit
                              _putch
                              _scale
 ---------------------------------------------------------------------------------
 (2) _scale                                               19    15      4    7712
                                             30 BANK0     19    15      4
                            ___awdiv
                            ___awmod
                            ___flmul
 ---------------------------------------------------------------------------------
 (3) ___awmod                                              7     3      4    1208
                                              0 COMMON     7     3      4
 ---------------------------------------------------------------------------------
 (3) ___awdiv                                              9     5      4    1364
                                              7 COMMON     5     1      4
                                              0 BANK0      4     4      0
                            ___awmod (ARG)
 ---------------------------------------------------------------------------------
 (2) _putch                                                1     1      0       0
 ---------------------------------------------------------------------------------
 (2) _isdigit                                              2     2      0      68
                                              0 COMMON     2     2      0
 ---------------------------------------------------------------------------------
 (2) _fround                                              20    16      4    6175
                                             30 BANK0     20    16      4
                            ___flmul
                            ___lwdiv
                            ___lwmod
 ---------------------------------------------------------------------------------
 (3) ___lwmod                                              6     2      4     615
                                              0 COMMON     6     2      4
 ---------------------------------------------------------------------------------
 (3) ___lwdiv                                              8     4      4     618
                                              6 COMMON     8     4      4
                            ___lwmod (ARG)
 ---------------------------------------------------------------------------------
 (3) ___flmul                                             26    18      8    4697
                                              4 BANK0     26    18      8
                          __Umul8_16
                            ___awdiv (ARG)
                            ___awmod (ARG)
                            ___lwdiv (ARG)
                            ___lwmod (ARG)
 ---------------------------------------------------------------------------------
 (4) __Umul8_16                                            9     7      2     799
                                              0 COMMON     9     7      2
 ---------------------------------------------------------------------------------
 (2) __tdiv_to_l_                                         18    10      8     455
                                              0 COMMON    12     4      8
                                              0 BANK0      6     6      0
 ---------------------------------------------------------------------------------
 (2) __div_to_l_                                          19    11      8     455
                                              0 COMMON    13     5      8
                                              0 BANK0      6     6      0
 ---------------------------------------------------------------------------------
 (2) ___xxtofl                                            14    10      4     550
                                              0 COMMON    14    10      4
 ---------------------------------------------------------------------------------
 (2) ___wmul                                               6     2      4     548
                                              0 COMMON     6     2      4
 ---------------------------------------------------------------------------------
 (2) ___llmod                                             10     2      8     615
                                              0 COMMON    10     2      8
 ---------------------------------------------------------------------------------
 (2) ___lldiv                                             14     6      8     466
                                              0 COMMON    14     6      8
 ---------------------------------------------------------------------------------
 (2) ___fltol                                             11     7      4     457
                                             49 BANK0     11     7      4
                            ___flmul (ARG)
                              _scale (ARG)
 ---------------------------------------------------------------------------------
 (2) ___flsub                                              8     0      8    2637
                                              0 BANK1      8     0      8
                            ___fladd
                           ___xxtofl (ARG)
 ---------------------------------------------------------------------------------
 (3) ___fladd                                             24    16      8    2440
                                             50 BANK0     24    16      8
                           ___xxtofl (ARG)
                             _fround (ARG)
 ---------------------------------------------------------------------------------
 (2) ___flneg                                              4     0      4     121
                                              0 COMMON     4     0      4
 ---------------------------------------------------------------------------------
 (2) ___flge                                              16     8      8     790
                                              0 COMMON     8     0      8
                                              0 BANK0      8     8      0
 ---------------------------------------------------------------------------------
 (2) ___fleq                                              12     4      8     394
                                              0 COMMON    12     4      8
 ---------------------------------------------------------------------------------
 (1) _confBusLCD                                           6     6      0      29
                                              0 COMMON     6     6      0
 ---------------------------------------------------------------------------------
 (1) _comando                                              8     6      2     533
                                              0 COMMON     8     6      2
 ---------------------------------------------------------------------------------
 Estimated maximum stack depth 4
 ---------------------------------------------------------------------------------

 Call Graph Graphs:

 _main (ROOT)
   ___fladd
     ___xxtofl (ARG)
     _fround (ARG)
       ___flmul
         __Umul8_16
         ___awdiv (ARG)
           ___awmod (ARG)
         ___awmod (ARG)
         ___lwdiv (ARG)
           ___lwmod (ARG)
         ___lwmod (ARG)
       ___lwdiv
         ___lwmod (ARG)
       ___lwmod
   ___flmul
     __Umul8_16
     ___awdiv (ARG)
       ___awmod (ARG)
     ___awmod (ARG)
     ___lwdiv (ARG)
       ___lwmod (ARG)
     ___lwmod (ARG)
   ___xxtofl
   _comando
   _confBusLCD
   _printf
     ___awdiv
       ___awmod (ARG)
     ___fladd
       ___xxtofl (ARG)
       _fround (ARG)
         ___flmul
           __Umul8_16
           ___awdiv (ARG)
             ___awmod (ARG)
           ___awmod (ARG)
           ___lwdiv (ARG)
             ___lwmod (ARG)
           ___lwmod (ARG)
         ___lwdiv
           ___lwmod (ARG)
         ___lwmod
     ___fleq
     ___flge
     ___flmul
       __Umul8_16
       ___awdiv (ARG)
         ___awmod (ARG)
       ___awmod (ARG)
       ___lwdiv (ARG)
         ___lwmod (ARG)
       ___lwmod (ARG)
     ___flneg
     ___flsub
       ___fladd
         ___xxtofl (ARG)
         _fround (ARG)
           ___flmul
             __Umul8_16
             ___awdiv (ARG)
               ___awmod (ARG)
             ___awmod (ARG)
             ___lwdiv (ARG)
               ___lwmod (ARG)
             ___lwmod (ARG)
           ___lwdiv
             ___lwmod (ARG)
           ___lwmod
       ___xxtofl (ARG)
     ___fltol
       ___flmul (ARG)
         __Umul8_16
         ___awdiv (ARG)
           ___awmod (ARG)
         ___awmod (ARG)
         ___lwdiv (ARG)
           ___lwmod (ARG)
         ___lwmod (ARG)
       _scale (ARG)
         ___awdiv
           ___awmod (ARG)
         ___awmod
         ___flmul
           __Umul8_16
           ___awdiv (ARG)
             ___awmod (ARG)
           ___awmod (ARG)
           ___lwdiv (ARG)
             ___lwmod (ARG)
           ___lwmod (ARG)
     ___lldiv
     ___llmod
     ___wmul
     ___xxtofl
     __div_to_l_
     __tdiv_to_l_
     _fround
       ___flmul
         __Umul8_16
         ___awdiv (ARG)
           ___awmod (ARG)
         ___awmod (ARG)
         ___lwdiv (ARG)
           ___lwmod (ARG)
         ___lwmod (ARG)
       ___lwdiv
         ___lwmod (ARG)
       ___lwmod
     _isdigit
     _putch
     _scale
       ___awdiv
         ___awmod (ARG)
       ___awmod
       ___flmul
         __Umul8_16
         ___awdiv (ARG)
           ___awmod (ARG)
         ___awmod (ARG)
         ___lwdiv (ARG)
           ___lwmod (ARG)
         ___lwmod (ARG)

 Address spaces:
Name               Size   Autos  Total    Cost      Usage
BITCOMMON            E      0       0       0        0.0%
EEDATA             100      0       0       0        0.0%
NULL                 0      0       0       0        0.0%
CODE                 0      0       0       0        0.0%
COMMON               E      E       E       1      100.0%
BITSFR0              0      0       0       1        0.0%
SFR0                 0      0       0       1        0.0%
BITSFR1              0      0       0       2        0.0%
SFR1                 0      0       0       2        0.0%
STACK                0      0       0       2        0.0%
ABS                  0      0       0       3        0.0%
BITBANK0            50      0       0       4        0.0%
BITSFR3              0      0       0       4        0.0%
SFR3                 0      0       0       4        0.0%
BANK0               50     4E      4E       5       97.5%
BITSFR2              0      0       0       5        0.0%
SFR2                 0      0       0       5        0.0%
BITBANK1            50      0       0       6        0.0%
BANK1               50     34      34       7       65.0%
BITBANK3            60      0       0       8        0.0%
BANK3               60      0       0       9        0.0%
BITBANK2            60      0       0      10        0.0%
BANK2               60      0       0      11        0.0%
DATA                 0      0       0      12        0.0%


Microchip Technology PIC Macro Assembler V2.00 build -1524193055 
Symbol Table                                                                                   Wed Dec 12 19:59:16 2018

                      pc 0002                       l33 11D6                       l42 1AD2  
                     l34 11E8                       l43 1AE6                       l35 11E8  
                     l44 1AF9                       l36 11ED                       l37 132D  
                     l38 132E                       l47 1B44                       l39 132E  
                     l48 1B5E                       l49 1B82             ___awdiv@sign 0021  
                     fsr 0004      ___wmul@multiplicand 0072      __Umul8_16@word_mpld 0076  
                    l200 010B                      l201 00F0                      l210 02B6  
                    l202 011A                      l211 02B5                      l203 011B  
                    l300 1D7F                      l204 0717                      l212 030E  
                    l301 1D8F                      l213 0403                      l221 03FA  
                    l205 0155                      l302 1D99                      l230 050A  
                    l222 046A                      l206 019E                      l231 051F  
                    l223 0474                      l215 036F                      l207 02B7  
                    l160 14FE                      l240 05DD                      l232 0584  
                    l224 04B7                      l216 0393                      l208 0205  
                    l241 06F7                      l233 0520                      l225 04AC  
                    l217 039C                      l209 0291                      l410 103B  
                    l170 0C5C                      l250 0756                      l242 0658  
                    l234 058E                      l226 04D9                      l411 1080  
                    l163 0AD8                      l251 0772                      l243 06FF  
                    l235 059E                      l227 04EC                      l219 03DA  
                    l412 1052                      l164 0A18                      l260 07DF  
                    l252 0793                      l244 070F                      l236 058F  
                    l228 04FC                      l180 08C0                      l157 144B  
                    l413 1046                      l165 0C8A                      l261 07F7  
                    l173 07E0                      l253 078D                      l245 0700  
                    l237 05AC                      l229 04ED                      l181 0894  
                    l158 1543                      l414 1057                      l430 1D1B  
                    l422 1CD7                      l166 0AAA                      l254 0792  
                    l246 0716                      l238 05C2                      l190 08FA  
                    l262 07F8                      l182 08D3                      l174 0818  
                    l159 14FF                      l415 1058                      l431 1D27  
                    l423 1CE1                      l167 0AA9                      l255 07AA  
                    l247 072B                      l239 05C8                      l191 0906  
                    l183 08DA                      l175 0825                      l600 1640  
                    l520 1CAF                      l440 112D                      l416 1071  
                    l432 1D2C                      l424 1D1C                      l168 0BCB  
                    l256 07AF                      l248 073D                      l184 011D  
                    l192 08FD                      l176 087E                      l601 1643  
                    l521 1CBF                      l265 1A7A                      l441 1156  
                    l417 107F                      l409 102D                      l425 1CF6  
                    l169 0C5D                      l257 07CC                      l249 0757  
                    l193 00AC                      l185 08DB                      l177 0840  
                    l610 16A4                      l602 1649                      l522 1CC9  
                    l266 1A84                      l442 1142                      l418 108B  
                    l426 1CEA                      l186 07F8                      l258 07B6  
                    l194 00C2                      l178 087D                      l611 177C  
                    l603 1660                      l515 1CC0                      l267 1A99  
                    l443 1143                      l435 10B0                      l419 1090  
                    l427 1CFB                      l259 07CB                      l195 00D3  
                    l187 08DE                      l179 08D4                      l452 1BEA  
                    l460 1F03                      l620 176D                      l612 172F  
                    l604 16B3                      l516 1C88                      l268 1A9E  
                    l444 1155                      l436 1182                      l700 0FBB  
                    l428 1CFC                      l188 0140                      l196 00D6  
                    l453 1C06                      l461 1F1E                      l621 1775  
                    l613 172E                      l605 1673                      l517 1C7A  
                    l445 1179                      l437 10CD                      l701 0FF2  
                    l429 1D0D                      l197 00DE                      l189 08E2  
                    l454 1C1D                      l630 17E9                      l622 177B  
                    l614 173D                      l606 17FF                      l470 0078  
                    l518 1C8D                      l710 1E5B                      l446 1166  
                    l438 10F3                      l702 0FD6                      l198 00D7  
                    l623 1793                      l615 1754                      l607 16B2  
                    l471 0064                      l295 1D90                      l519 1C8E  
                    l711 1DE1                      l447 1172                      l439 111E  
                    l703 0FF2                      l199 00EF                      l464 000E  
                    l632 17D9                      l624 178A                      l616 1776  
                    l608 169B                      l472 0065                      l296 1D4E  
                    l720 1E23                      l712 1DD3                      l448 1167  
                    l704 0FEA                      l457 1E7A                      l465 000F  
                    l633 17E8                      l625 1792                      l617 1755  
                    l609 169E                      l473 0077                      l297 1D40  
                    l721 1E23                      l713 1DE8                      l449 1178  
                    l458 1E97                      l634 17EF                      l626 1791  
                    l618 1763                      l474 009B                      l298 1D53  
                    l722 1E2F                      l714 1E04                      l490 1FC0  
                    l482 1F3C                      l570 1BB9                      l459 1ECD  
                    l635 17F3                      l627 17CE                      l619 176A  
                    l475 0088                      l299 1D54                      l723 1E52  
                    l715 1DE9                      l707 1DB4                      l491 1FD2  
                    l483 1FFF                      l571 1BC7                      l636 17FF  
                    l628 17CE                      l476 0094                      l468 002F  
                    l716 1E0B                      l708 1DBC                      l492 1FF6  
                    l484 1F57                      l740 1AC3                      l572 1BCD  
                    l580 1B26                      l629 17CD                      l477 0089  
                    l469 00AB                      l717 1E18                      l709 1DCE  
                    l493 1FE3                      l485 1F79                      l741 1AC8  
                    l565 1BC8                      l581 1B34                      l590 158F  
                    l478 009A                      l718 1E0C                      l494 1FEF  
                    l486 1F9C                      l566 1B9A                      l582 1B3A  
                    l591 15A5                      l639 1C6E                      l479 00AB  
                    l495 1FE4                      l487 1FAA                      l567 1B8E  
                    l575 1B35                      l727 101B                      l735 080D  
                    l592 15A2                      l496 1FF5                      l488 1FD3  
                    l680 0CB1                      l568 1B9F                      l576 1B0F  
                    l728 101D                      l593 15AD                      l585 1557  
                    l489 1FBF                      l681 0CBC                      l569 1BA0  
                    l577 1B03                      l594 15F9                      l586 156D  
                    l738 1AAA                      l690 0F41                      l682 0CCD  
                    l578 1B14                      l595 15BC                      l587 156A  
                    l739 1AB4                      l691 0F22                      l683 0CE2  
                    l579 1B15                      l596 1632                      l588 1576  
                    l692 0F31                      l684 0CE0                      l597 1660  
                    l589 1583                      l693 0F46                      l685 0CEB  
                    l598 1657                      l694 0F6B                      l686 0D00  
                    l678 0C9E                      l599 1633                      l695 0F62  
                    l679 0CB3                      l696 0F6A                      l688 0CF6  
                    l697 0F69                      l689 0FFF                      l698 0FA3  
                    l699 0FA2            comando@estado 0074                      fsr0 0004  
                    indf 0000             ___awmod@sign 0076             ___flmul@aexp 0036  
           ___flmul@bexp 0037             ___flmul@sign 0031             ___flmul@temp 003C  
           ___flmul@prod 0038             ___fltol@exp1 005B                     l3001 1B3E  
                   l2201 1CE1                     l3011 1B50                     l3003 1B40  
                   l2123 1C1A                     l2131 1AA0                     l2211 1CFC  
                   l2203 1CE7                     l3021 1B58                     l3013 1B52  
                   l3005 1B44                     l2125 1C1C                     l2301 1583  
                   l2141 1AC3                     l2133 1AA2                     l2221 1D21  
                   l2213 1D06                     l2205 1CEA                     l3101 00BE  
                   l3031 1B6B                     l3023 1B5F                     l3015 1B53  
                   l3007 1B47                     l2127 1F1B                     l2311 1599  
                   l2303 1589                     l2143 1AC8                     l2135 1AAA  
                   l2231 1B8B                     l2151 102A                     l2223 1D27  
                   l2215 1D0D                     l2207 1CF1                     l3111 00F0  
                   l3103 00CC                     l3041 1B7C                     l3033 1B6D  
                   l3025 1B67                     l3017 1B55                     l3009 1B4F  
                   l2129 1F1D                     l2401 1718                     l2321 15B7  
                   l2313 15A2                     l2305 158D                     l2137 1AAE  
                   l2241 1BB1                     l2233 1B8E                     l2161 103D  
                   l2153 102D                     l2145 101E                     l2225 1D2C  
                   l2217 1D14                     l2209 1CF6                     l3201 0473  
                   l3113 0104                     l3105 00D3                     l3121 0140  
                   l3043 1B7E                     l3035 1B78                     l3027 1B68  
                   l3019 1B56                     l2411 174A                     l2403 171A  
                   l2331 15CC                     l2323 15BC                     l2315 15A3  
                   l2307 158F                     l2139 1ABD                     l2251 1BCD  
                   l2243 1BB7                     l2235 1B95                     l2227 1B83  
                   l2171 1058                     l2163 1043                     l2155 1031  
                   l2147 1021                     l2219 1D1C                     l3211 04D2  
                   l3203 0474                     l3131 0167                     l3123 014C  
                   l3115 010B                     l3107 00D7                     l3051 0825  
                   l3037 1B79                     l3029 1B6A                     l2421 1767  
                   l2413 1753                     l2405 171F                     l2341 15E0  
                   l2333 15D0                     l2325 15C0                     l2309 1594  
                   l2317 15A5                     l2501 0CE0                     l2245 1BB9  
                   l2237 1B9A                     l2229 1B85                     l2261 1B0F  
                   l2253 1AFA                     l2173 1069                     l2165 1046  
                   l2181 1080                     l2157 1036                     l2149 1025  
                   l3301 07AF                     l3221 04FC                     l3213 04D9  
                   l3205 04AB                     l3141 01BB                     l3133 0180  
                   l3125 0150                     l3117 011C                     l3109 00DE  
                   l3061 0868                     l3053 082B                     l3045 0811  
                   l3039 1B7B                     l2423 176A                     l2415 1755  
                   l2407 172F                     l2431 177C                     l2351 15F4  
                   l2343 15E4                     l2335 15D4                     l2327 15C4  
                   l2319 15B3                     l2511 0CFF                     l2503 0CE2  
                   l2247 1BC0                     l2239 1BA0                     l2263 1B15  
                   l2255 1B00                     l2271 1B35                     l2183 1085  
                   l2175 106F                     l2167 104D                     l2159 103B  
                   l2191 1CCB                     l3303 07B6                     l3231 057C  
                   l3223 050A                     l3215 04E5                     l3207 04AC  
                   l3151 01FE                     l3143 01CE                     l3135 0199  
                   l3127 0155                     l3119 011D                     l3071 0891  
                   l3063 086C                     l3055 083B                     l3047 0818  
                   l3311 07E0                     l2441 1793                     l2433 177D  
                   l2425 176D                     l2417 175E                     l2409 1745  
                   l2361 1640                     l2345 15E8                     l2337 15D8  
                   l2329 15C8                     l2353 15F9                     l2281 1555  
                   l2601 0FE8                     l2521 0D56                     l2513 0D00  
                   l2505 0CEB                     l2249 1BC8                     l2273 1B3A  
                   l2265 1B1F                     l2257 1B03                     l2185 108B  
                   l2177 1071                     l2169 1052                     l2193 1CCF  
                   l3305 07BC                     l3241 05AC                     l3225 0518  
                   l3233 0584                     l3217 04ED                     l3209 04B7  
                   l3161 0291                     l3153 0205                     l3145 01D4  
                   l3137 019E                     l3129 0163                     l3081 08D8  
                   l3073 0894                     l3057 0840                     l3065 087E  
                   l3049 081E                     l3321 118A                     l2451 17D3  
                   l2443 1798                     l2435 1781                     l2427 1772  
                   l2419 1762                     l2363 1643                     l2371 1657  
                   l2355 15FA                     l2347 15EC                     l2339 15DC  
                   l2291 156B                     l2283 1557                     l2275 1544  
                   l2603 0FEA                     l2531 0DD3                     l2523 0D82  
                   l2515 0D10                     l2507 0CF0                     l2267 1B26  
                   l2259 1B0A                     l2611 133A                     l2187 1090  
                   l2179 1078                     l2195 1CD4                     l3307 07CC  
                   l3251 05DD                     l3243 05BB                     l3235 058F  
                   l3227 0520                     l3219 04F3                     l3171 031D  
                   l3163 02AC                     l3155 0224                     l3147 01E7  
                   l3139 01A2                     l3091 08FA                     l3083 08E2  
                   l3075 08BB                     l3067 088C                     l3059 0855  
                   l3331 11B3                     l3323 118F                     l2461 17ED  
                   l2453 17D9                     l2445 17A6                     l2437 1787  
                   l2429 1776                     l2381 168A                     l2373 1664  
                   l2365 1647                     l2357 1616                     l2349 15F0  
                   l2285 155C                     l2293 156D                     l2277 154B  
                   l2701 1F82                     l2605 0FF6                     l2541 0E53  
                   l2533 0DF0                     l2525 0D9E                     l2517 0D1D  
                   l2509 0CF6                     l2269 1B2D                     l2621 14FD  
                   l2613 1449                     l2197 1CD7                     l2189 1CCA  
                   l3309 07D8                     l3261 06F7                     l3253 05FD  
                   l3245 05C2                     l3237 0595                     l3229 055D  
                   l3181 0393                     l3173 0338                     l3157 026F  
                   l3149 01FA                     l3165 02B7                     l3093 08FD  
                   l3085 08EB                     l3077 08C0                     l3069 088D  
                   l3341 11CF                     l3333 11BF                     l3325 1198  
                   l3317 1183                     l2463 17EF                     l2455 17E1  
                   l2447 17AA                     l2439 178E                     l2391 16A2  
                   l2383 168E                     l2375 1669                     l2367 1649  
                   l2359 1637                     l2295 1576                     l2287 1561  
                   l2279 1551                     l2711 1FAE                     l2703 1F90  
                   l2607 0FFF                     l2551 0F0B                     l2543 0E80  
                   l2535 0E00                     l2527 0DBA                     l2519 0D3A  
                   l2471 0C92                     l2623 14FF                     l2615 144A  
                   l2199 1CDB                     l2631 0925                     l3271 071D  
                   l3263 0700                     l3255 0658                     l3247 05D1  
                   l3239 059E                     l3183 039C                     l3175 035F  
                   l3191 0403                     l3167 02C6                     l3159 0288  
                   l3095 0906                     l3087 08EF                     l3079 08D4  
                   l3351 11E4                     l3343 11D0                     l3335 11C2  
                   l3327 11A1                     l3319 1187                     l2465 17FA  
                   l2457 17E6                     l2449 17C8                     l2393 16A4  
                   l2385 1692                     l2377 1672                     l2369 1652  
                   l2297 157B                     l2289 156A                     l2801 1D40  
                   l2721 1FD9                     l2713 1FB5                     l2705 1F9A  
                   l2561 0F31                     l2553 0F14                     l2545 0E90  
                   l2537 0E1D                     l2529 0DC3                     l2481 0CA8  
                   l2473 0C98                     l2625 1543                     l2617 144B  
                   l2609 1334                     l2641 0A1F                     l2633 092C  
                   l3281 0757                     l3273 0725                     l3265 0706  
                   l3257 0693                     l3249 05D6                     l3193 0438  
                   l3185 03BA                     l3177 036F                     l3169 030E  
                   l3097 00AC                     l3089 08F5                     l3361 130E  
                   l3353 11ED                     l3345 11D3                     l3337 11C5  
                   l3329 11AA                     l2467 17FE                     l2459 17E9  
                   l2395 16AD                     l2387 169B                     l2379 1673  
                   l2299 1581                     l2811 1D7D                     l2803 1D4E  
                   l2731 1091                     l2723 1FE2                     l2715 1FBE  
                   l2707 1F9C                     l2571 0F4B                     l2563 0F3A  
                   l2555 0F22                     l2547 0EBD                     l2539 0E36  
                   l2491 0CC7                     l2483 0CB1                     l2475 0C9C  
                   l2619 1451                     l2651 0ADF                     l2643 0AA8  
                   l2635 0A16                     l2627 091F                     l3291 0784  
                   l3283 075F                     l3275 0736                     l3267 070F  
                   l3259 06B2                     l3195 0467                     l3187 03DA  
                   l3179 038A                     l3099 00B4                     l3355 12DE  
                   l3347 11D4                     l3339 11CB                     l2821 1BCE  
                   l2389 169E                     l2397 16B3                     l2901 00A0  
                   l2813 1D7F                     l2805 1D54                     l2741 10CC  
                   l2733 10A6                     l2725 1FE4                     l2717 1FC0  
                   l2709 1FA4                     l2581 0F7E                     l2573 0F5F  
                   l2557 0F2B                     l2565 0F41                     l2549 0EE3  
                   l2493 0CCB                     l2485 0CB3                     l2477 0C9E  
                   l2469 0C8B                     l2661 0C5B                     l2653 0BC9  
                   l2645 0AAA                     l2637 0A17                     l2629 0923  
                   l3293 078D                     l3285 076B                     l3277 073D  
                   l3197 046A                     l3189 03FA                     l3269 0717  
                   l3357 12E7                     l3349 11D6                     l2831 1C1D  
                   l2823 1BE2                     l2399 16C9                     l2815 1D88  
                   l2807 1D5D                     l2911 1C8E                     l2903 1C6F  
                   l2751 10F3                     l2743 10CE                     l2735 10AF  
                   l2727 1FF6                     l2719 1FD3                     l2591 0FBB  
                   l2583 0F82                     l2575 0F66                     l2567 0F46  
                   l2559 0F2F                     l2495 0CCD                     l2487 0CBC  
                   l2479 0CA3                     l2671 1012                     l2663 0C5D  
                   l2655 0BCA                     l2647 0AD7                     l2639 0A18  
                   l3295 0793                     l3287 0772                     l3279 074C  
                   l3199 046C                     l3383 0131                     l3359 1305  
                   l2825 1BFE                     l2841 1E9B                     l2833 1E5C  
                   l2809 1D6F                     l2817 1D90                     l2921 1CC9  
                   l2913 1CA0                     l2905 1C77                     l2761 1127  
                   l2753 10FC                     l2745 10D6                     l2737 10B0  
                   l2729 1FFF                     l2681 1F32                     l2593 0FCA  
                   l2585 0F9B                     l2577 0F6B                     l2569 0F47  
                   l2497 0CD2                     l2489 0CC1                     l2673 1018  
                   l2665 0C8A                     l2657 0BCB                     l2649 0AD8  
                   l3297 079E                     l3289 0776                     l2827 1C18  
                   l2851 1F07                     l2843 1ECD                     l2835 1E72  
                   l2923 1C1E                     l2819 1D99                     l2915 1CAF  
                   l2907 1C7A                     l2931 1DA0                     l2763 1131  
                   l2771 1156                     l2755 110E                     l2747 10E7  
                   l2739 10C3                     l2691 1F58                     l2683 1F3B  
                   l2595 0FD4                     l2579 0F70                     l2587 0FA3  
                   l2499 0CD7                     l2675 101B                     l2667 100B  
                   l2659 0BD2                     l3299 07AA                     l2829 1C1A  
                   l2853 1F19                     l2845 1ED1                     l2837 1E8E  
                   l2861 000B                     l2925 1C22                     l2917 1CB8  
                   l2909 1C88                     l2941 1DCE                     l2933 1DA4  
                   l2781 1182                     l2773 115C                     l2765 1138  
                   l2757 111C                     l2749 10E9                     l2693 1F5E  
                   l2685 1F3C                     l2597 0FD6                     l2589 0FB0  
                   l2677 101D                     l2669 100C                     l2855 1F1B  
                   l2847 1F03                     l2839 1E97                     l2863 000E  
                   l2927 1C6E                     l2871 002E                     l2919 1CC0  
                   l2791 1A92                     l2783 1A77                     l2951 1DFB  
                   l2943 1DD3                     l2935 1DB4                     l2775 1165  
                   l2767 1141                     l2759 111E                     l2695 1F6D  
                   l2687 1F4D                     l2679 1F1F                     l2599 0FE4  
                   l2857 1F1E                     l2849 1F05                     l2865 000F  
                   l2881 004F                     l2873 002F                     l2793 1A99  
                   l2785 1A7A                     l2961 1E31                     l2953 1E0C  
                   l2945 1DE1                     l2937 1DC4                     l2929 1D9B  
                   l2777 1167                     l2769 1143                     l2697 1F6F  
                   l2689 1F56                     l2859 0003                     l2883 0053  
                   l2891 0078                     l2875 0044                     l2867 0010  
                   l2795 1A9E                     l2787 1A7E                     l2971 1E5B  
                   l2963 1E47                     l2955 1E18                     l2947 1DE9  
                   l2939 1DCD                     l2779 1179                     l2699 1F79  
                   l2981 1AD5                     l2973 1AC9                     l2893 007E  
                   l2885 005A                     l2877 0045                     l2869 0025  
                   l2797 1D2D                     l2789 1A8B                     l2965 1E4C  
                   l2957 1E1C                     l2949 1DED                     l2991 1AEF  
                   l2983 1ADD                     l2975 1ACC                     l2895 0087  
                   l2887 0063                     l2879 004D                     l2799 1D3D  
                   l2967 1E50                     l2959 1E27                     l2993 1AF0  
                   l2985 1ADE                     l2977 1ACE                     l2897 0089  
                   l2889 0065                     l2969 1E52                     l2995 1AF2  
                   l2987 1AE0                     l2979 1AD2                     l2899 009B  
                   l2997 1AF3                     l2989 1AE7                     l2999 1B3B  
                   STR_1 18BA                     STR_2 18A0                     STR_3 18B4  
                   STR_4 18B4                     STR_5 18AD                     u3000 1CE7  
                   u3001 1CE6                     u3020 1CFA                     u3021 1CF9  
                   u3110 1BB1                     u3030 1D06                     u3111 1BB0  
                   u3031 1D05                     u3015 1CEB                     u3200 1555  
                   u4000 0FB0                     u3201 1554                     u4001 0FAF  
                   u3105 1BA1                     u3210 155C                     u4010 0FCA  
                   u3130 1BC6                     u3050 1D1A                     u3211 155B  
                   u4011 0FC9                     u3131 1BC5                     u3115 1BAD  
                   u3051 1D19                     u3035 1D02                     u3300 1621  
                   u3220 1561                     u4020 0FE8                     u3140 1B00  
                   u3060 1D21                     u3301 161F                     u3221 1560  
                   u4021 0FE7                     u4005 0FAC                     u3125 1BBA  
                   u3141 1AFF                     u3061 1D20                     u3045 1D0E  
                   u3310 1622                     u3230 1581                     u3070 1B8B  
                   u4030 133A                     u4110 0923                     u3231 1580  
                   u4015 0FC6                     u3071 1B8A                     u4031 1339  
                   u4111 0922                     u3400 1692                     u3320 1637  
                   u3240 158D                     u5000 1E0A                     u3160 1B13  
                   u4200 0ADF                     u4120 092C                     u3401 1691  
                   u3321 1636                     u3241 158C                     u5001 1E09  
                   u3161 1B12                     u4105 150A                     u4201 0ADE  
                   u4121 092B                     u3410 16A2                     u3330 1647  
                   u3250 1594                     u3090 1B9E                     u3170 1B1F  
                   u3411 16A1                     u3331 1646                     u3251 1593  
                   u3091 1B9D                     u3171 1B1E                     u3155 1B04  
                   u3500 1762                     u3260 1599                     u5020 1E1C  
                   u4300 1F32                     u3501 1761                     u3261 1598  
                   u5021 1E1B                     u4301 1F31                     u3085 1B8F  
                   u4045 1357                     u3510 1767                     u3430 16C9  
                   u3350 165F                     u3270 15B3                     u5030 1E22  
                   u4310 1F4D                     u3190 1B33                     u4070 1451  
                   u5110 081E                     u3511 1766                     u3431 16C8  
                   u3351 165E                     u3271 15B2                     u5031 1E21  
                   u5015 1E10                     u4311 1F4C                     u3191 1B32  
                   u3175 1B1B                     u4071 1450                     u4055 13B2  
                   u4215 0AFF                     u4135 094C                     u5111 081D  
                   u3600 17C8                     u3520 1772                     u3440 16EF  
                   u3360 1664                     u3280 15B7                     u5040 1E27  
                   u4400 1FD9                     u4240 0BD2                     u4160 0A1F  
                   u5200 00CC                     u5120 083B                     u5105 1B70  
                   u3601 17C7                     u3521 1771                     u3441 16F0  
                   u3433 16C5                     u3425 16A6                     u3361 1663  
                   u3345 164B                     u3281 15B6                     u5041 1E26  
                   u4401 1FD8                     u3185 1B27                     u4065 1408  
                   u4241 0BD1                     u4225 0B3C                     u4161 0A1E  
                   u4145 0989                     u5201 00CB                     u5121 083A  
                   u3610 17D3                     u3530 177A                     u3450 1701  
                   u3442 16F5                     u3370 1669                     u3290 1616  
                   u5050 1E3C                     u4330 1F90                     u5210 00EE  
                   u5130 087C                     u3611 17D2                     u3531 1779  
                   u3451 1702                     u3443 16F6                     u3371 1668  
                   u3291 1615                     u4331 1F8F                     u4235 0B88  
                   u4155 09D5                     u5211 00ED                     u5131 087B  
           printf@tmpval 00BD                     u3620 17D8                     u3540 1781  
                   u3460 171F                     u3452 1707                     u5060 1E4C  
                   u4500 1138                     u4420 1FF4                     u3700 0CD2  
                   u2900 1043                     u5300 02C6                     u5220 0119  
                   u5140 088C                     u3621 17D7                     u3541 1780  
                   u3461 171E                     u3453 1708                     u3381 167C  
                   u5061 1E4B                     u4501 1137                     u4421 1FF3  
                   u4325 1F7B                     u3701 0CD1                     u4085 146E  
                   u2901 1042                     u5301 02C5                     u5221 0118  
                   u5205 00C8                     u5141 088B                     u3630 17E6  
                   u3550 1787                     u3470 1745                     u3390 168E  
                   u3382 1683                     u5070 1E50                     u4430 10A6  
                   u4350 1FAA                     u3710 0CD7                     u5310 031D  
                   u5230 014C                     u5150 08D0                     u3631 17E5  
                   u3551 1786                     u3471 1744                     u3391 168D  
                   u3383 168A                     u3295 1612                     u5071 1E4F  
                   u5055 1E37                     u4431 10A5                     u4415 1FE6  
                   u4351 1FA9                     u4335 1F8C                     u3711 0CD6  
                   u4095 14BC                     u4255 0BE5                     u4175 0A32  
                   u5311 031C                     u5231 014B                     u5151 08CF  
                   u5080 1AE6                     u3640 17ED                     u3560 178E  
                   u3480 174A                     u4600 1D3D                     u4520 1154  
                   u4440 10C3                     u4360 1FAE                     u3720 0CF0  
                   u4280 1012                     u2920 1056                     u5400 04D2  
                   u5320 0338                     u5240 0150                     u5160 08F5  
                   u5081 1AE5                     u3641 17EC                     u3561 178D  
                   u3481 1749                     u4601 1D3C                     u4521 1153  
                   u4441 10C2                     u4361 1FAD                     u4345 1F9D  
                   u3801 0E0F                     u3721 0CEF                     u4281 1011  
                   u2921 1055                     u4265 0C21                     u4185 0A6E  
                   u5401 04D1                     u5321 0337                     u5305 02C2  
                   u5241 014F                     u5161 08F4                     u5090 1B5E  
                   u3650 17FE                     u3570 1798                     u4530 115C  
                   u4370 1FB5                     u2850 1AAE                     u3802 0E16  
                   u3730 0CF5                     u4290 1018                     u5410 04E5  
                   u5330 035F                     u5250 0180                     u5170 0919  
                   u5091 1B5D                     u3651 17FD                     u3571 1797  
                   u4531 115B                     u4515 1144                     u4371 1FB4  
                   u2851 1AAD                     u3803 0E1D                     u3731 0CF4  
                   u4291 1017                     u2915 1047                     u4275 0C60  
                   u4195 0AAD                     u5411 04E4                     u5331 035E  
                   u5315 0319                     u5251 017F                     u5171 0918  
                   u4700 1E72                     u3580 17AA                     u4620 1D52  
                   u4460 110E                     u3660 0C9C                     u2940 1069  
                   u5420 0509                     u5340 036E                     u5260 01BB  
                   u5180 00B4                     u4701 1E71                     u3581 17A9  
                   u4621 1D51                     u4461 110D                     u3821 0E45  
                   u3741 0D48                     u3661 0C9B                     u2941 1068  
                   u5421 0508                     u5341 036D                     u5261 01BA  
                   u5181 00B3                     u4710 1E8E                     u3590 17B9  
                   u4550 1177                     u4390 1FD1                     u2870 1AC2  
                   u3910 0F2F                     u3822 0E4C                     u3742 0D4F  
                   u3670 0CA3                     u5510 06FE                     u5430 0518  
                   u5350 038A                     u5270 01FE                     u5190 00BE  
                   u4711 1E8D                     u3495 1757                     u4615 1D42  
                   u4551 1176                     u4455 10F5                     u4391 1FD0  
                   u2871 1AC1                     u3911 0F2E                     u3831 0E72  
                   u3823 0E53                     u3815 0E1F                     u3751 0D64  
                   u3743 0D56                     u3671 0CA2                     u2935 1059  
                   u5511 06FD                     u5431 0517                     u5351 0389  
                   u5271 01FD                     u5191 00BD                     u4720 1E9B  
                   u4800 0053                     u4640 1D6F                     u4560 1A7E  
                   u4480 112D                     u3832 0E79                     u3752 0D6B  
                   u3680 0CA8                     u2960 107E                     u2880 1025  
                   u5600 0784                     u5520 0715                     u5360 0472  
                   u5280 0288                     u4721 1E9A                     u4801 0052  
                   u4641 1D6E                     u4561 1A7D                     u4545 1169  
                   u4481 112C                     u4465 110A                     u4385 1FC1  
                   u2865 1AB5                     u3905 0F24                     u3841 0E9F  
                   u3833 0E80                     u3761 0D90                     u3753 0D72  
                   u3681 0CA7                     u2961 107D                     u2945 1065  
                   u2881 1024                     u5601 0783                     u5521 0714  
                   u5505 06BE                     u5425 0505                     u5361 0471  
                   u5345 036A                     u5281 0287                     u4730 1EB9  
                   u4810 005A                     u4490 1131                     u3930 0F45  
                   u3850 0EC9                     u3842 0EA6                     u3762 0D97  
                   u3690 0CCB                     u2970 1085                     u2890 1031  
                   u5610 079E                     u5530 071D                     u5450 058D  
                   u5290 02AC                     u4731 1EBA                     u3595 17B4  
                   u4811 0059                     u4635 1D56                     u4491 1130  
                   u4475 1120                     u3931 0F44                     u3843 0EAD  
                   u3771 0DAC                     u3763 0D9E                     u3691 0CCA  
                   u2971 1084                     u2955 1072                     u2891 1030  
                   u5611 079D                     u5531 071C                     u5451 058C  
                   u5291 02AB                     u5195 00BA                     u4740 1ED1  
                   u4732 1EBF                     u4660 1D8E                     u4900 1C8C  
                   u3940 0F4B                     u3772 0DB3                     u2980 1CCF  
                   u5620 07B5                     u5540 0725                     u5460 05AB  
                   u5380 04AA                     u4741 1ED0                     u4733 1EC0  
                   u4661 1D8D                     u4645 1D6B                     u4901 1C8B  
                   u3941 0F4A                     u3925 0F33                     u3861 0ED5  
                   u3773 0DBA                     u2981 1CCE                     u5621 07B4  
                   u5605 0780                     u5541 0724                     u5461 05AA  
                   u5445 0525                     u5381 04A9                     u4670 1BE2  
                   u4750 1EEF                     u4830 0076                     u4910 1CA0  
                   u4590 1A98                     u3950 0F5F                     u3870 0EF1  
                   u3862 0EDC                     u2990 1CDB                     u5630 07CA  
                   u5550 0736                     u5470 05BB                     u5390 04B6  
                   u4671 1BE1                     u4751 1EF0                     u4831 0075  
                   u4655 1D80                     u4911 1C9F                     u4591 1A97  
                   u4575 1A85                     u3951 0F5E                     u3863 0EE3  
                   u3855 0EC4                     u3791 0DE2                     u2991 1CDA  
                   u5631 07C9                     u5615 079A                     u5551 0735  
                   u5471 05BA                     u5391 04B5                     u5375 0477  
                   u4680 1BFE                     u4760 1F19                     u4752 1EF5  
                   u4840 007E                     u3960 0F66                     u3792 0DE9  
                   u5640 07D8                     u5560 074C                     u5480 05D6  
                   u4681 1BFD                     u4761 1F18                     u4753 1EF6  
                   u4841 007D                     u4825 0066                     u4585 1A8C  
                   u3961 0F65                     u3881 0EFD                     u3793 0DF0  
                   u3785 0DBC                     u5641 07D7                     u5561 074B  
                   u5481 05D5                     u5465 05A7                     u5385 04A6  
                   u4690 1C18                     u4770 000B                     u4930 1CBE  
                   u3970 0F70                     u3882 0F04                     u5650 07F6  
                   u5570 075F                     u4691 1C17                     u4771 000A  
                   u4931 1CBD                     u4915 1C9C                     u3971 0F6F  
                   u3883 0F0B                     u3875 0EEC                     u5651 07F3  
                   u5571 075E                     u5555 0732                     u5475 05B7  
                   u4860 0099                     u4780 0025                     u4940 1DA0  
                   u3980 0F82                     u5580 076B                     u5660 11EC  
                   u4765 1F15                     u4861 0098                     u4781 0024  
                   u4925 1CB0                     u4941 1D9F                     u3981 0F81  
                   u5581 076A                     u5565 0748                     u5661 11EB  
                   u4870 00A0                     u4790 003D                     u4950 1DA4  
                   u3990 0F91                     u5590 0776                     u4695 1C14  
                   u4871 009F                     u4855 008B                     u4951 1DA3  
                   u3895 0F0D                     u5591 0775                     u5495 065B  
                   u4880 1C77                     u4960 1DC4                     u4881 1C76  
                   u4961 1DC3                     u4795 0038                     u3995 0F8C  
                   u4980 1DE7                     u4981 1DE6                     u5677 11DE  
                   u4895 1C7C                     u4975 1DD8                     u4995 1DFC  
                   _main 1183                     btemp 007E                     start 0000  
          __CFG_IESO$OFF 0000            ___fltol@sign1 005A          __end_of___fladd 1800  
                  ?_main 0070          __end_of___awdiv 1091          __end_of___flneg 0010  
          __CFG_WDTE$OFF 0000          __end_of___awmod 1D2D          __end_of___flmul 1000  
        __end_of___flsub 1C6F          __end_of___fltol 00AC                    _ANSEL 0188  
        __end_of___lldiv 1D9A          ___awdiv@divisor 0077          __end_of___llmod 1CCA  
        __end_of___lwdiv 1BCE          __end_of___lwmod 1B3B          ___awdiv@counter 0020  
                  _PORTD 0008                    _TRISD 0088                    _TRISE 0089  
          __CFG_PWRTE$ON 0000           __CFG_FCMEN$OFF 0000          __end_of_comando 1B83  
        __end_of_dpowers 18A0                    _scale 091C          __end_of_isdigit 101E  
                  _putch 080D                    pclath 000A                    status 0003  
                  wtemp0 007E          __initialization 07FC             __end_of_main 1331  
                 ??_main 00CC     __size_of__tdiv_to_l_ 00E1         ___llmod@dividend 0074  
                 ?_scale 003E                   _ADRESH 001E                   _ADRESL 009E  
       ___awdiv@dividend 0079                   ?_putch 0070         __end_of___xxtofl 1E5C  
       __end_of__powers_ 1844                   ___flge 1E5C                   ___fleq 1BCE  
              ??___fladd 005A                   ___wmul 1A77                ??___awdiv 007B  
              ??___flneg 0074                ??___awmod 0074                ??___flmul 002C  
              ??___flsub 007E                ??___fltol 0055                ??___lldiv 0078  
              ??___llmod 0078                ??___lwdiv 007A                ??___lwmod 0074  
                 _fround 1331         ___awdiv@quotient 0022          ___awmod@divisor 0070  
        ___awmod@counter 0075                   _printf 080E                ??_comando 0072  
              ??_isdigit 0070       __size_of__Umul8_16 002A                   putch@c 0070  
             ___flge@ff1 0070               ___flge@ff2 0074             ___xxtofl@arg 007A  
           ___xxtofl@exp 0079             ___xxtofl@val 0070               ___fleq@ff1 0070  
             ___fleq@ff2 0074  __end_of__initialization 07FC               ___flneg@f1 0070  
             ___fltol@f1 0051           __pcstackCOMMON 0070            __end_of_scale 0C8B  
          __end_of_putch 080E               __div_to_l_ 1091          __div_to_l_@exp1 0025  
        __div_to_l_@cntr 0024                  ??_scale 0042          __div_to_l_@quot 0020  
                ??_putch 0070            __div_to_l_@f1 0070            __div_to_l_@f2 0074  
      __end_of__Umul8_16 1AC9               __pmaintext 1183                  ?___flge 0070  
                ?___fleq 0070                  ?___wmul 0070                  ?_fround 003E  
             _confBusLCD 1AC9                  ?_printf 006A                ?___xxtofl 0070  
             __stringtab 1800        __end_of__npowers_ 1878          __size_of___flge 00C3  
        __size_of___fleq 0050                  ___fladd 1544                  ___awdiv 101E  
                ___flneg 0003                  ___awmod 1CCA                  ___flmul 0C8B  
                ___flsub 1C1E                  ___fltol 0010                  ___lldiv 1D2D  
        __size_of___wmul 0028                  ___llmod 1C6F                  ___lwdiv 1B83  
             _fround$876 004D               _fround$877 0049                  ___lwmod 1AFA  
        __size_of_fround 0213                  __ptext1 080E                  __ptext2 091C  
                __ptext3 1CCA                  __ptext4 101E                  __ptext5 080D  
                __ptext6 100A                  __ptext7 1331                  __ptext8 1AFA  
                __ptext9 1B83                  _comando 1B3B          __size_of_printf FFEB  
            ?__div_to_l_ 0070                  _dpowers 1878                  _isdigit 100A  
             ??___xxtofl 0074         ___awmod@dividend 0072     end_of_initialization 07FC  
        ___lldiv@divisor 0070          ___lldiv@counter 007D                  printf@c 00CB  
                printf@f 00BC                  psplit$0 80021           __tdiv_to_l_@f1 0070  
         __tdiv_to_l_@f2 0074               _printf$879 00AD              ?_confBusLCD 0070  
          ??__tdiv_to_l_ 0078                _PORTEbits 0009              ___fladd@grs 0069  
          ___xxtofl@sign 0078                _TRISAbits 0085               comando@com 0070  
            ___flmul@grs 0032              printf@width 00C3      __size_of__div_to_l_ 00F2  
         __end_of___flge 1F1F           __end_of___fleq 1C1E           __end_of___wmul 1A9F  
      pnum$text1_split_1 0021           __end_of_fround 1544           __end_of_printf 07F9  
    start_initialization 07FC      __end_of__tdiv_to_l_ 2000      __size_of_confBusLCD 0031  
        ___llmod@divisor 0070          ___llmod@counter 0079                 ??___flge 0020  
               ??___fleq 0078                 ??___wmul 0074                __Umul8_16 1A9F  
       confBusLCD@estado 0072                 ??_fround 0042                 ??_printf 00A8  
              ___fladd@a 0056                ___fladd@b 0052               fround@prec 0051  
              ___flmul@a 0028                ___flmul@b 0024                ___flsub@a 00A0  
              ___flsub@b 00A4                ___latbits 0002            __pcstackBANK0 0020  
          __pcstackBANK1 00A0        __size_of___xxtofl 00C2   __CFG_FOSC$INTRC_CLKOUT 0000  
       ___lwdiv@dividend 0078                 ?___fladd 0052                 ?___awdiv 0077  
               ?___flneg 0070                 ?___awmod 0070                 ?___flmul 0024  
               ?___flsub 00A0                 ?___fltol 0051                 ?___lldiv 0070  
               ?___llmod 0070                __npowers_ 1844               ?__Umul8_16 0070  
               ?___lwdiv 0076                 ?___lwmod 0070                __pstrings 1800  
            __tdiv_to_l_ 1F1F                 ?_comando 0070             ??__div_to_l_ 0078  
               ?_isdigit 0070                _scale$878 004C         ___lwdiv@quotient 007B  
         __size_of_scale 036F           __size_of_putch 0001           ___wmul@product 0074  
     __end_of__div_to_l_ 1183             ??_confBusLCD 0070               _ADCON0bits 001F  
            __stringbase 180F               _ADCON1bits 009F        ___wmul@multiplier 0070  
             printf@flag 00BA               printf@eexp 00C1               printf@fval 00C5  
             printf@prec 00C9       __end_of_confBusLCD 1AFA              ??__Umul8_16 0072  
       __size_of___fladd 02BC         __size_of___awdiv 0073         __size_of___flneg 000D  
       __size_of___awmod 0063         __size_of___flmul 0375         __size_of___flsub 0051  
       __size_of___fltol 009C         __size_of___lldiv 006D         __size_of___llmod 005B  
       __size_of___lwdiv 004B         __size_of___lwmod 0041       __end_of__stringtab 1810  
            _isdigit$703 0070         __size_of_comando 0048                 ___xxtofl 1D9A  
       __size_of_isdigit 0014          ___lwdiv@divisor 0076          ___lwdiv@counter 007D  
               __ptext10 0C8B                 __ptext11 1A9F                 __ptext20 1544  
               __ptext12 1F1F                 __ptext21 0003                 __ptext13 1091  
               __ptext22 1E5C                 __ptext14 1D9A                 __ptext23 1BCE  
               __ptext15 1A77                 __ptext24 1AC9                 __ptext16 1C6F  
               __ptext25 1B3B                 __ptext17 1D2D                 __ptext18 0010  
               __ptext19 1C1E                 __powers_ 1810            __size_of_main 01AE  
              pnum$text1 0008                 comando@t 0076                printf@len 00B4  
              printf@val 00B6                 main@temp 00D0                 isdigit@c 0071  
               scale@scl 0050         __tdiv_to_l_@exp1 0025         __tdiv_to_l_@cntr 0024  
       __tdiv_to_l_@quot 0020         ___lwmod@dividend 0072         ___lldiv@dividend 0074  
              stringcode 180A                 printf@ap 00B1                 printf@cp 00B2  
           ?__tdiv_to_l_ 0070   __Umul8_16@multiplicand 0070              confBusLCD@t 0074  
       ___lldiv@quotient 0079          ___lwmod@divisor 0070          ___lwmod@counter 0075  
               stringdir 180A                 stringtab 1800            ___fladd@signs 0066  
           ___fladd@aexp 0067             ___fladd@bexp 0068     __Umul8_16@multiplier 0078  
      __Umul8_16@product 0074  
